 zlibwapi

 Timestamp is 5bfcddd2 (Tue Nov 27 07:01:54 2018)

 Preferred load address is 10000000

 Start         Length     Name                   Class
 0001:00000000 0005248dH .text$mn                CODE
 0001:0005248d 0000006bH .text$x                 CODE
 0002:00000000 0000014cH .idata$5                DATA
 0002:0000014c 00000004H .00cfg                  DATA
 0002:00000150 00000004H .CRT$XCA                DATA
 0002:00000154 00000004H .CRT$XCZ                DATA
 0002:00000158 00000004H .CRT$XIA                DATA
 0002:0000015c 0000000cH .CRT$XIC                DATA
 0002:00000168 00000004H .CRT$XIZ                DATA
 0002:0000016c 00000004H .CRT$XPA                DATA
 0002:00000170 00000008H .CRT$XPX                DATA
 0002:00000178 00000004H .CRT$XPXA               DATA
 0002:0000017c 00000004H .CRT$XPZ                DATA
 0002:00000180 00000004H .CRT$XTA                DATA
 0002:00000184 0000000cH .CRT$XTZ                DATA
 0002:00000188 00000000H .gfids$y                DATA
 0002:00000190 0000b6e0H .rdata                  DATA
 0002:0000b870 000002a0H .rdata$r                DATA
 0002:0000bb10 00000330H .rdata$zzzdbg           DATA
 0002:0000be40 00000004H .rtc$IAA                DATA
 0002:0000be44 00000004H .rtc$IZZ                DATA
 0002:0000be48 00000004H .rtc$TAA                DATA
 0002:0000be4c 00000004H .rtc$TZZ                DATA
 0002:0000be50 00000a70H .xdata$x                DATA
 0002:0000c8c0 00000cfcH .edata                  DATA
 0002:0000d5bc 00000014H .idata$2                DATA
 0002:0000d5d0 00000014H .idata$3                DATA
 0002:0000d5e4 0000014cH .idata$4                DATA
 0002:0000d730 00000606H .idata$6                DATA
 0003:00000000 000008b0H .data                   DATA
 0003:000008b0 00000110H .data$r                 DATA
 0003:000009c0 000012c0H .bss                    DATA
 0004:00000000 00000060H .rsrc$01                DATA
 0004:00000060 00000338H .rsrc$02                DATA

  Address         Publics by Value              Rva+Base       Lib:Object

 0000:00000000       ___hybrid_code_map_count   00000000     <absolute>
 0000:00000000       ___safe_se_handler_count   00000000     <absolute>
 0000:00000000       ___enclave_config          00000000     <absolute>
 0000:00000000       ___guard_iat_table         00000000     <absolute>
 0000:00000000       ___safe_se_handler_table   00000000     <absolute>
 0000:00000000       ___hybrid_code_map         00000000     <absolute>
 0000:00000000       ___dynamic_value_reloc_table 00000000     <absolute>
 0000:00000000       ___guard_fids_table        00000000     <absolute>
 0000:00000000       ___guard_iat_count         00000000     <absolute>
 0000:00000000       __except_list              00000000     <absolute>
 0000:00000000       ___guard_fids_count        00000000     <absolute>
 0000:00000000       ___guard_longjmp_count     00000000     <absolute>
 0000:00000000       ___volatile_metadata       00000000     <absolute>
 0000:00000000       ___guard_longjmp_table     00000000     <absolute>
 0000:00000000       ___hybrid_auxiliary_iat    00000000     <absolute>
 0000:00000100       ___guard_flags             00000100     <absolute>
 0000:00000000       ___ImageBase               10000000     <linker-defined>
 0001:00000000       _adler32_z@12              10001000 f   adler32.obj
 0001:00000280       _adler32@12                10001280 f   adler32.obj
 0001:00000360       _adler32_combine@12        10001360 f   adler32.obj
 0001:00000380       _compress2@20              10001380 f   compress.obj
 0001:00000460       _compress@16               10001460 f   compress.obj
 0001:00000480       _compressBound@4           10001480 f   compress.obj
 0001:000004a0       _get_crc_table@0           100014a0 f   crc32.obj
 0001:000004b0       _crc32_z@12                100014b0 f   crc32.obj
 0001:000004e0       _crc32@12                  100014e0 f   crc32.obj
 0001:00000bb0       _crc32_combine@12          10001bb0 f   crc32.obj
 0001:00000c40       _deflateInit_@16           10001c40 f   deflate.obj
 0001:00000c60       _deflateInit2_@32          10001c60 f   deflate.obj
 0001:00000ef0       _deflateSetDictionary@12   10001ef0 f   deflate.obj
 0001:00001090       _deflateGetDictionary@12   10002090 f   deflate.obj
 0001:000010f0       _deflateResetKeep@4        100020f0 f   deflate.obj
 0001:000011a0       _deflateReset@4            100021a0 f   deflate.obj
 0001:000011d0       _deflateSetHeader@8        100021d0 f   deflate.obj
 0001:00001200       _deflatePending@12         10002200 f   deflate.obj
 0001:00001240       _deflatePrime@12           10002240 f   deflate.obj
 0001:000012e0       _deflateParams@12          100022e0 f   deflate.obj
 0001:00001430       _deflateTune@20            10002430 f   deflate.obj
 0001:00001480       _deflateBound@8            10002480 f   deflate.obj
 0001:000015f0       _deflate@8                 100025f0 f   deflate.obj
 0001:00001eb0       _deflateEnd@4              10002eb0 f   deflate.obj
 0001:00001f60       _deflateCopy@8             10002f60 f   deflate.obj
 0001:000033f0       _gzclose@4                 100043f0 f   gzclose.obj
 0001:00003420       ___local_stdio_printf_options 10004420 f i gzlib.obj
 0001:00003430       _vsnprintf                 10004430 f i gzlib.obj
 0001:00003470       _snprintf                  10004470 f i gzlib.obj
 0001:00003820       _gzopen@8                  10004820 f   gzlib.obj
 0001:00003840       _gzdopen@8                 10004840 f   gzlib.obj
 0001:000038a0       _gzopen_w@8                100048a0 f   gzlib.obj
 0001:000038c0       _gzbuffer@8                100048c0 f   gzlib.obj
 0001:00003910       _gzrewind@4                10004910 f   gzlib.obj
 0001:00003970       _gzseek64@16               10004970 f   gzlib.obj
 0001:00003b00       _gzseek@12                 10004b00 f   gzlib.obj
 0001:00003b40       _gztell64@4                10004b40 f   gzlib.obj
 0001:00003ba0       _gztell@4                  10004ba0 f   gzlib.obj
 0001:00003bd0       _gzoffset64@4              10004bd0 f   gzlib.obj
 0001:00003c20       _gzoffset@4                10004c20 f   gzlib.obj
 0001:00003c50       _gzeof@4                   10004c50 f   gzlib.obj
 0001:00003c80       _gzerror@8                 10004c80 f   gzlib.obj
 0001:00003cd0       _gzclearerr@4              10004cd0 f   gzlib.obj
 0001:00003d20       _gz_error                  10004d20 f   gzlib.obj
 0001:000043f0       _gzread@12                 100053f0 f   gzread.obj
 0001:00004460       _gzfread@16                10005460 f   gzread.obj
 0001:000044e0       _gzgetc@4                  100054e0 f   gzread.obj
 0001:00004550       _gzgetc_@4                 10005550 f   gzread.obj
 0001:00004560       _gzungetc@8                10005560 f   gzread.obj
 0001:00004660       _gzgets@12                 10005660 f   gzread.obj
 0001:00004790       _gzdirect@4                10005790 f   gzread.obj
 0001:000047d0       _gzclose_r@4               100057d0 f   gzread.obj
 0001:00004c40       _gzwrite@12                10005c40 f   gzwrite.obj
 0001:00004c90       _gzfwrite@16               10005c90 f   gzwrite.obj
 0001:00004d00       _gzputc@8                  10005d00 f   gzwrite.obj
 0001:00004dd0       _gzputs@8                  10005dd0 f   gzwrite.obj
 0001:00004e20       _gzvprintf                 10005e20 f   gzwrite.obj
 0001:00004f50       _gzprintf                  10005f50 f   gzwrite.obj
 0001:00004f70       _gzflush@8                 10005f70 f   gzwrite.obj
 0001:00004fe0       _gzsetparams@12            10005fe0 f   gzwrite.obj
 0001:000050a0       _gzclose_w@4               100060a0 f   gzwrite.obj
 0001:00005170       _inflateBackInit_@20       10006170 f   infback.obj
 0001:00005270       _inflateBack@20            10006270 f   infback.obj
 0001:00006070       _inflateBackEnd@4          10007070 f   infback.obj
 0001:000060b0       _inflate_fast              100070b0 f   inffast.obj
 0001:00006540       _inflateResetKeep@4        10007540 f   inflate.obj
 0001:000065e0       _inflateReset@4            100075e0 f   inflate.obj
 0001:00006620       _inflateReset2@8           10007620 f   inflate.obj
 0001:000066b0       _inflateInit2_@16          100076b0 f   inflate.obj
 0001:00006780       _inflateInit_@12           10007780 f   inflate.obj
 0001:000067a0       _inflatePrime@12           100077a0 f   inflate.obj
 0001:00006930       _inflate@8                 10007930 f   inflate.obj
 0001:00008100       _inflateEnd@4              10009100 f   inflate.obj
 0001:00008150       _inflateGetDictionary@12   10009150 f   inflate.obj
 0001:000081c0       _inflateSetDictionary@12   100091c0 f   inflate.obj
 0001:00008260       _inflateGetHeader@8        10009260 f   inflate.obj
 0001:00008320       _inflateSync@4             10009320 f   inflate.obj
 0001:00008410       _inflateSyncPoint@4        10009410 f   inflate.obj
 0001:00008450       _inflateCopy@8             10009450 f   inflate.obj
 0001:000085a0       _inflateUndermine@8        100095a0 f   inflate.obj
 0001:000085d0       _inflateValidate@8         100095d0 f   inflate.obj
 0001:00008610       _inflateMark@4             10009610 f   inflate.obj
 0001:00008680       _inflateCodesUsed@4        10009680 f   inflate.obj
 0001:000086b0       _inflate_table             100096b0 f   inftrees.obj
 0001:00008ac0       _call_zopen64              10009ac0 f   ioapi.obj
 0001:00008ae0       _call_zseek64              10009ae0 f   ioapi.obj
 0001:00008b30       _call_ztell64              10009b30 f   ioapi.obj
 0001:00008b60       _fill_zlib_filefunc64_32_def_from_filefunc32 10009b60 f   ioapi.obj
 0001:00008d70       _fill_fopen64_filefunc     10009d70 f   ioapi.obj
 0001:00008e60       _win32_open64_file_func    10009e60 f   iowin32.obj
 0001:00008ec0       _win32_open64_file_funcA   10009ec0 f   iowin32.obj
 0001:00008f20       _win32_open64_file_funcW   10009f20 f   iowin32.obj
 0001:00008f80       _win32_open_file_func      10009f80 f   iowin32.obj
 0001:00008fe0       _win32_read_file_func      10009fe0 f   iowin32.obj
 0001:00009030       _win32_write_file_func     1000a030 f   iowin32.obj
 0001:000090e0       _win32_tell_file_func      1000a0e0 f   iowin32.obj
 0001:00009130       _win32_tell64_file_func    1000a130 f   iowin32.obj
 0001:00009190       _win32_seek_file_func      1000a190 f   iowin32.obj
 0001:00009200       _win32_seek64_file_func    1000a200 f   iowin32.obj
 0001:00009280       _win32_close_file_func     1000a280 f   iowin32.obj
 0001:000092c0       _win32_error_file_func     1000a2c0 f   iowin32.obj
 0001:000092e0       _fill_win32_filefunc       1000a2e0 f   iowin32.obj
 0001:00009320       _fill_win32_filefunc64     1000a320 f   iowin32.obj
 0001:00009360       _fill_win32_filefunc64A    1000a360 f   iowin32.obj
 0001:000093a0       _fill_win32_filefunc64W    1000a3a0 f   iowin32.obj
 0001:000093f0       __tr_init                  1000a3f0 f   trees.obj
 0001:0000a3c0       __tr_stored_block          1000b3c0 f   trees.obj
 0001:0000a4c0       __tr_flush_bits            1000b4c0 f   trees.obj
 0001:0000a4d0       __tr_align                 1000b4d0 f   trees.obj
 0001:0000a5b0       __tr_flush_block           1000b5b0 f   trees.obj
 0001:0000ad70       _uncompress2@16            1000bd70 f   uncompr.obj
 0001:0000aea0       _uncompress@16             1000bea0 f   uncompr.obj
 0001:0000b220       _unzStringFileNameCompare@12 1000c220 f   unzip.obj
 0001:0000bae0       _unzOpen2@8                1000cae0 f   unzip.obj
 0001:0000bb30       _unzOpen2_64@8             1000cb30 f   unzip.obj
 0001:0000bb90       _unzOpen@4                 1000cb90 f   unzip.obj
 0001:0000bbb0       _unzOpen64@4               1000cbb0 f   unzip.obj
 0001:0000bbd0       _unzClose@4                1000cbd0 f   unzip.obj
 0001:0000bc10       _unzGetGlobalInfo64@8      1000cc10 f   unzip.obj
 0001:0000bc40       _unzGetGlobalInfo@8        1000cc40 f   unzip.obj
 0001:0000c2a0       _unzGetCurrentFileInfo64@32 1000d2a0 f   unzip.obj
 0001:0000c2d0       _unzGetCurrentFileInfo@32  1000d2d0 f   unzip.obj
 0001:0000c390       _unzGoToFirstFile@4        1000d390 f   unzip.obj
 0001:0000c400       _unzGoToNextFile@4         1000d400 f   unzip.obj
 0001:0000c4b0       _unzLocateFile@12          1000d4b0 f   unzip.obj
 0001:0000c660       _unzGetFilePos64@8         1000d660 f   unzip.obj
 0001:0000c6b0       _unzGetFilePos@8           1000d6b0 f   unzip.obj
 0001:0000c6e0       _unzGoToFilePos64@8        1000d6e0 f   unzip.obj
 0001:0000c750       _unzGoToFilePos@8          1000d750 f   unzip.obj
 0001:0000c9f0       _unzOpenCurrentFile3@20    1000d9f0 f   unzip.obj
 0001:0000cc70       _unzOpenCurrentFile@4      1000dc70 f   unzip.obj
 0001:0000cc90       _unzOpenCurrentFilePassword@8 1000dc90 f   unzip.obj
 0001:0000ccb0       _unzOpenCurrentFile2@16    1000dcb0 f   unzip.obj
 0001:0000ccd0       _unzGetCurrentFileZStreamPos64@4 1000dcd0 f   unzip.obj
 0001:0000cd10       _unzReadCurrentFile@12     1000dd10 f   unzip.obj
 0001:0000cff0       _unztell@4                 1000dff0 f   unzip.obj
 0001:0000d020       _unztell64@4               1000e020 f   unzip.obj
 0001:0000d050       _unzeof@4                  1000e050 f   unzip.obj
 0001:0000d090       _unzGetLocalExtrafield@12  1000e090 f   unzip.obj
 0001:0000d160       _unzCloseCurrentFile@4     1000e160 f   unzip.obj
 0001:0000d1f0       _unzGetGlobalComment@12    1000e1f0 f   unzip.obj
 0001:0000de20       _LoadCentralDirectoryRecord 1000ee20 f   zip.obj
 0001:0000e2e0       _zipOpen3@16               1000f2e0 f   zip.obj
 0001:0000e450       _zipOpen2@16               1000f450 f   zip.obj
 0001:0000e4a0       _zipOpen2_64@16            1000f4a0 f   zip.obj
 0001:0000e500       _zipOpen@8                 1000f500 f   zip.obj
 0001:0000e520       _zipOpen64@8               1000f520 f   zip.obj
 0001:0000e540       _Write_LocalFileHeader     1000f540 f   zip.obj
 0001:0000e780       _zipOpenNewFileInZip4_64@76 1000f780 f   zip.obj
 0001:0000ecb0       _zipOpenNewFileInZip3@64   1000fcb0 f   zip.obj
 0001:0000ed00       _zipOpenNewFileInZip3_64@68 1000fd00 f   zip.obj
 0001:0000ed50       _zipOpenNewFileInZip2@44   1000fd50 f   zip.obj
 0001:0000ed90       _zipOpenNewFileInZip2_64@48 1000fd90 f   zip.obj
 0001:0000edd0       _zipOpenNewFileInZip64@44  1000fdd0 f   zip.obj
 0001:0000ee10       _zipOpenNewFileInZip@40    1000fe10 f   zip.obj
 0001:0000ef10       _zipWriteInFileInZip@12    1000ff10 f   zip.obj
 0001:0000f030       _zipCloseFileInZipRaw@12   10010030 f   zip.obj
 0001:0000f050       _zipCloseFileInZipRaw64@16 10010050 f   zip.obj
 0001:0000f550       _zipCloseFileInZip@4       10010550 f   zip.obj
 0001:0000f570       _Write_Zip64EndOfCentralDirectoryLocator 10010570 f   zip.obj
 0001:0000f5f0       _Write_Zip64EndOfCentralDirectoryRecord 100105f0 f   zip.obj
 0001:0000f710       _Write_EndOfCentralDirectoryRecord 10010710 f   zip.obj
 0001:0000f840       _Write_GlobalComment       10010840 f   zip.obj
 0001:0000f8b0       _zipClose@8                100108b0 f   zip.obj
 0001:0000fa40       _zlibVersion@0             10010a40 f   zutil.obj
 0001:0000fa50       _zlibCompileFlags@0        10010a50 f   zutil.obj
 0001:0000fa60       _zError@4                  10010a60 f   zutil.obj
 0001:0000fa80       _zcalloc                   10010a80 f   zutil.obj
 0001:0000faa0       _zcfree                    10010aa0 f   zutil.obj
 0001:0000fab0       _longest_match             10010ab0 f   match686.obj
 0001:0000fc94       _match_init                10010c94 f   match686.obj
 0001:0000fc95       _ReadFile@20               10010c95 f   kernel32:KERNEL32.dll
 0001:0000fc9b       _WriteFile@20              10010c9b f   kernel32:KERNEL32.dll
 0001:0000fca1       _SetFilePointer@16         10010ca1 f   kernel32:KERNEL32.dll
 0001:0000fca7       _CreateFileW@28            10010ca7 f   kernel32:KERNEL32.dll
 0001:0000fcad       _GetLastError@0            10010cad f   kernel32:KERNEL32.dll
 0001:0000fcb3       _CreateFileA@28            10010cb3 f   kernel32:KERNEL32.dll
 0001:0000fcb9       _CloseHandle@4             10010cb9 f   kernel32:KERNEL32.dll
 0001:0000ffdf       __CRT_INIT@12              10010fdf f   LIBCMT:dll_dllmain.obj
 0001:0000ffe8       __DllMainCRTStartup@12     10010fe8 f   LIBCMT:dll_dllmain.obj
 0001:00010058       ___security_init_cookie    10011058 f   LIBCMT:gs_support.obj
 0001:000100a3       _DllMain@12                100110a3 f   LIBCMT:dll_dllmain_stub.obj
 0001:000100a9       ?__scrt_initialize_type_info@@YAXXZ 100110a9 f   LIBCMT:tncleanup.obj
 0001:000100b5       ?__scrt_uninitialize_type_info@@YAXXZ 100110b5 f   LIBCMT:tncleanup.obj
 0001:000100c1       ___local_stdio_scanf_options 100110c1 f i LIBCMT:default_local_stdio_options.obj
 0001:000100c7       ___scrt_initialize_default_local_stdio_options 100110c7 f   LIBCMT:default_local_stdio_options.obj
 0001:000100e4       ??$__crt_fast_decode_pointer@PAP6AXXZ@@YAPAP6AXXZQAP6AXXZ@Z 100110e4 f i LIBCMT:utility.obj
 0001:000100f8       ??$__crt_fast_encode_pointer@PAP6AXXZ@@YAPAP6AXXZQAP6AXXZ@Z 100110f8 f i LIBCMT:utility.obj
 0001:00010115       ?__crt_rotate_pointer_value@@YAIIH@Z 10011115 f i LIBCMT:utility.obj
 0001:00010122       ?configure_argv@__scrt_narrow_argv_policy@@SAHXZ 10011122 f i LIBCMT:utility.obj
 0001:00010173       ?initialize_environment@__scrt_narrow_environment_policy@@SAHXZ 10011173 f i LIBCMT:utility.obj
 0001:000101ac       _NtCurrentTeb              100111ac f i LIBCMT:utility.obj
 0001:000101b3       ___scrt_acquire_startup_lock 100111b3 f   LIBCMT:utility.obj
 0001:000101e5       ___scrt_dllmain_after_initialize_c 100111e5 f   LIBCMT:utility.obj
 0001:00010210       ___scrt_dllmain_before_initialize_c 10011210 f   LIBCMT:utility.obj
 0001:0001021e       ___scrt_dllmain_crt_thread_attach 1001121e f   LIBCMT:utility.obj
 0001:0001023d       ___scrt_dllmain_crt_thread_detach 1001123d f   LIBCMT:utility.obj
 0001:0001024a       ___scrt_dllmain_exception_filter 1001124a f   LIBCMT:utility.obj
 0001:0001027e       ___scrt_dllmain_uninitialize_c 1001127e f   LIBCMT:utility.obj
 0001:000102a1       ___scrt_dllmain_uninitialize_critical 100112a1 f   LIBCMT:utility.obj
 0001:000102ae       ___scrt_initialize_crt     100112ae f   LIBCMT:utility.obj
 0001:000102e7       ___scrt_initialize_onexit_tables 100112e7 f   LIBCMT:utility.obj
 0001:0001038c       ___scrt_is_nonwritable_in_current_image 1001138c f   LIBCMT:utility.obj
 0001:00010420       ___scrt_release_startup_lock 10011420 f   LIBCMT:utility.obj
 0001:0001043d       ___scrt_uninitialize_crt   1001143d f   LIBCMT:utility.obj
 0001:00010465       __onexit                   10011465 f   LIBCMT:utility.obj
 0001:000104a0       _at_quick_exit             100114a0 f   LIBCMT:utility.obj
 0001:000104d1       _atexit                    100114d1 f   LIBCMT:utility.obj
 0001:000104e6       ___scrt_get_dyn_tls_init_callback 100114e6 f   LIBCMT:dyn_tls_init.obj
 0001:000104ec       ___scrt_fastfail           100114ec f   LIBCMT:utility_desktop.obj
 0001:00010606       ___scrt_get_show_window_mode 10011606 f   LIBCMT:utility_desktop.obj
 0001:00010637       ___scrt_initialize_mta     10011637 f   LIBCMT:utility_desktop.obj
 0001:0001063c       ___scrt_initialize_winrt   1001163c f   LIBCMT:utility_desktop.obj
 0001:0001063f       ___scrt_is_managed_app     1001163f f   LIBCMT:utility_desktop.obj
 0001:00010682       ___scrt_set_unhandled_exception_filter 10011682 f   LIBCMT:utility_desktop.obj
 0001:0001068e       ___scrt_exe_initialize_mta 1001168e f   LIBCMT:utility_desktop.obj
 0001:0001068e       ___scrt_stub_for_initialize_mta 1001168e f   LIBCMT:utility_desktop.obj
 0001:00010691       ___scrt_unhandled_exception_filter@4 10011691 f   LIBCMT:utility_desktop.obj
 0001:000106d2       __crt_debugger_hook        100116d2 f   LIBCMT:utility_desktop.obj
 0001:000106da       __RTC_Initialize           100116da f   LIBCMT:_initsect_.obj
 0001:00010706       __RTC_Terminate            10011706 f   LIBCMT:_initsect_.obj
 0001:00010740       __SEH_prolog4              10011740 f   LIBCMT:_sehprolg4_.obj
 0001:00010786       __SEH_epilog4              10011786 f   LIBCMT:_sehprolg4_.obj
 0001:0001079b       @_guard_check_icall_nop@4  1001179b f i LIBCMT:guard_support.obj
 0001:0001079c       _ReadNoFence               1001179c f i LIBCMT:guard_support.obj
 0001:000107a6       _ReadPointerNoFence        100117a6 f i LIBCMT:guard_support.obj
 0001:000107b0       __guard_icall_checks_enforced 100117b0 f i LIBCMT:guard_support.obj
 0001:000107c2       ___isa_available_init      100117c2 f   LIBCMT:_cpu_disp_.obj
 0001:00010959       __get_startup_argv_mode    10011959 f   LIBCMT:argv_mode.obj
 0001:0001095d       ___scrt_is_ucrt_dll_in_use 1001195d f   LIBCMT:ucrt_detection.obj
 0001:00010969       @__security_check_cookie@4 10011969 f   LIBCMT:_secchk_.obj
 0001:0001097a       ___raise_securityfailure   1001197a f   LIBCMT:gs_report.obj
 0001:000109a2       ___report_gsfailure        100119a2 f   LIBCMT:gs_report.obj
 0001:00010a9b       ___report_rangecheckfailure 10011a9b f   LIBCMT:gs_report.obj
 0001:00010aa7       ___report_securityfailure  10011aa7 f   LIBCMT:gs_report.obj
 0001:00010b75       ___report_securityfailureEx 10011b75 f   LIBCMT:gs_report.obj
 0001:00010cd0       __except_handler4          10011cd0 f   libvcruntime:_chandler4_.obj
 0001:00010e35       ??$?RD@__crt_internal_free_policy@@QBEXQBD@Z 10011e35 f i libvcruntime:std_type_info.obj
 0001:00010e45       ??$?RX@__crt_internal_free_policy@@QBEXQBX@Z 10011e45 f i libvcruntime:std_type_info.obj
 0001:00010e55       ??$__crt_interlocked_compare_exchange_pointer@$$CBDPAD$$T@@YAPBDPDSBDQAD$$T@Z 10011e55 f i libvcruntime:std_type_info.obj
 0001:00010e67       ??$__crt_interlocked_read_pointer@$$CBD@@YAPBDPDSBD@Z 10011e67 f i libvcruntime:std_type_info.obj
 0001:00010e71       ??0?$__crt_unique_heap_ptr@DU__crt_internal_free_policy@@@@QAE@QAD@Z 10011e71 f i libvcruntime:std_type_info.obj
 0001:00010e7f       ??0?$__crt_unique_heap_ptr@XU__crt_internal_free_policy@@@@QAE@QAX@Z 10011e7f f i libvcruntime:std_type_info.obj
 0001:00010e8d       ??1?$__crt_unique_heap_ptr@DU__crt_internal_free_policy@@@@QAE@XZ 10011e8d f i libvcruntime:std_type_info.obj
 0001:00010e9d       ??1?$__crt_unique_heap_ptr@XU__crt_internal_free_policy@@@@QAE@XZ 10011e9d f i libvcruntime:std_type_info.obj
 0001:00010eb9       ??B?$__crt_unique_heap_ptr@DU__crt_internal_free_policy@@@@QBE_NXZ 10011eb9 f i libvcruntime:std_type_info.obj
 0001:00010ec0       ??B?$__crt_unique_heap_ptr@XU__crt_internal_free_policy@@@@QBE_NXZ 10011ec0 f i libvcruntime:std_type_info.obj
 0001:00010ee7       ?__crt_interlocked_read_32@@YAHPDH@Z 10011ee7 f i libvcruntime:std_type_info.obj
 0001:00010ef1       ?detach@?$__crt_unique_heap_ptr@XU__crt_internal_free_policy@@@@QAEPAXXZ 10011ef1 f i libvcruntime:std_type_info.obj
 0001:00010ef7       ?get@?$__crt_unique_heap_ptr@DU__crt_internal_free_policy@@@@QBEPADXZ 10011ef7 f i libvcruntime:std_type_info.obj
 0001:00010efa       ?get@?$__crt_unique_heap_ptr@XU__crt_internal_free_policy@@@@QBEPAXXZ 10011efa f i libvcruntime:std_type_info.obj
 0001:00010efd       ?is_valid@?$__crt_unique_heap_ptr@DU__crt_internal_free_policy@@@@QBE_NXZ 10011efd f i libvcruntime:std_type_info.obj
 0001:00010f04       ?is_valid@?$__crt_unique_heap_ptr@XU__crt_internal_free_policy@@@@QBE_NXZ 10011f04 f i libvcruntime:std_type_info.obj
 0001:00010f0b       ?release@?$__crt_unique_heap_ptr@DU__crt_internal_free_policy@@@@QAEXXZ 10011f0b f i libvcruntime:std_type_info.obj
 0001:00010f1b       ?release@?$__crt_unique_heap_ptr@XU__crt_internal_free_policy@@@@QAEXXZ 10011f1b f i libvcruntime:std_type_info.obj
 0001:00010f2b       ___std_type_info_compare   10011f2b f   libvcruntime:std_type_info.obj
 0001:00010f67       ___std_type_info_destroy_list 10011f67 f   libvcruntime:std_type_info.obj
 0001:00010f8a       ___std_type_info_hash      10011f8a f   libvcruntime:std_type_info.obj
 0001:00010fb0       ___std_type_info_name      10011fb0 f   libvcruntime:std_type_info.obj
 0001:00011073       ___vcrt_initialize         10012073 f   libvcruntime:initialization.obj
 0001:0001109c       ___vcrt_thread_attach      1001209c f   libvcruntime:initialization.obj
 0001:000110a7       ___vcrt_thread_detach      100120a7 f   libvcruntime:initialization.obj
 0001:000110b2       ___vcrt_uninitialize       100120b2 f   libvcruntime:initialization.obj
 0001:000110d1       ___vcrt_uninitialize_critical 100120d1 f   libvcruntime:initialization.obj
 0001:000110e0       _memset                    100120e0 f   libvcruntime:memset.obj
 0001:00011240       __local_unwind4            10012240 f   libvcruntime:_exsup4_.obj
 0001:00011318       __seh_longjmp_unwind4@4    10012318 f   libvcruntime:_exsup4_.obj
 0001:00011340       @_EH4_CallFilterFunc@8     10012340 f   libvcruntime:_exsup4_.obj
 0001:00011358       @_EH4_TransferToHandler@8  10012358 f   libvcruntime:_exsup4_.obj
 0001:00011374       @_EH4_GlobalUnwind2@8      10012374 f   libvcruntime:_exsup4_.obj
 0001:00011390       @_EH4_LocalUnwind@16       10012390 f   libvcruntime:_exsup4_.obj
 0001:000113b2       ___except_validate_context_record 100123b2 f   libvcruntime:jbcxrval.obj
 0001:000113e2       ___except_validate_jump_buffer 100123e2 f   libvcruntime:jbcxrval.obj
 0001:0001140f       ___except_validate_jump_buffer_common 1001240f f i libvcruntime:jbcxrval.obj
 0001:00011448       ??0Block@_HeapManager@@QAE@XZ 10012448 f i libvcruntime:undname.obj
 0001:0001144e       ??0DName@@QAE@AAPBDD@Z     1001244e f   libvcruntime:undname.obj
 0001:00011500       ??0DName@@QAE@ABV0@@Z      10012500 f i libvcruntime:undname.obj
 0001:00011516       ??0DName@@QAE@D@Z          10012516 f   libvcruntime:undname.obj
 0001:0001153b       ??0DName@@QAE@PAV0@@Z      1001253b f   libvcruntime:undname.obj
 0001:00011583       ??0DName@@QAE@PBD@Z        10012583 f   libvcruntime:undname.obj
 0001:000115b6       ??0DName@@QAE@W4DNameStatus@@@Z 100125b6 f   libvcruntime:undname.obj
 0001:000115f6       ??0DName@@QAE@XZ           100125f6 f i libvcruntime:undname.obj
 0001:00011600       ??0DName@@QAE@_J@Z         10012600 f   libvcruntime:undname.obj
 0001:0001168c       ??0DName@@QAE@_K@Z         1001268c f   libvcruntime:undname.obj
 0001:000116f2       ??0DNameNode@@IAE@XZ       100126f2 f i libvcruntime:undname.obj
 0001:000116fb       ??0Replicator@@QAE@XZ      100126fb f i libvcruntime:undname.obj
 0001:0001170a       ??0UnDecorator@@QAE@PBDP6APADJ@ZK@Z 1001270a f i libvcruntime:undname.obj
 0001:00011756       ??0charNode@@QAE@D@Z       10012756 f i libvcruntime:undname.obj
 0001:0001176b       ??0pDNameNode@@QAE@PAVDName@@@Z 1001276b f   libvcruntime:undname.obj
 0001:00011793       ??0pairNode@@QAE@PBVDNameNode@@0@Z 10012793 f i libvcruntime:undname.obj
 0001:000117b2       ??0pcharNode@@QAE@PBDH@Z   100127b2 f   libvcruntime:undname.obj
 0001:00011812       ??2@YAPAXIAAV_HeapManager@@H@Z 10012812 f i libvcruntime:undname.obj
 0001:00011827       ??4DName@@QAEAAV0@ABV0@@Z  10012827 f   libvcruntime:undname.obj
 0001:0001183d       ??4DName@@QAEAAV0@D@Z      1001283d f i libvcruntime:undname.obj
 0001:00011862       ??4DName@@QAEAAV0@PAV0@@Z  10012862 f   libvcruntime:undname.obj
 0001:000118a4       ??4DName@@QAEAAV0@PBD@Z    100128a4 f   libvcruntime:undname.obj
 0001:000118cf       ??4DName@@QAEAAV0@W4DNameStatus@@@Z 100128cf f   libvcruntime:undname.obj
 0001:00011901       ??AReplicator@@QBE?AVDName@@H@Z 10012901 f   libvcruntime:undname.obj
 0001:00011947       ??H@YA?AVDName@@DABV0@@Z   10012947 f i libvcruntime:undname.obj
 0001:00011969       ??H@YA?AVDName@@PBDABV0@@Z 10012969 f i libvcruntime:undname.obj
 0001:0001198b       ??H@YA?AVDName@@W4DNameStatus@@ABV0@@Z 1001298b f i libvcruntime:undname.obj
 0001:000119ad       ??HDName@@QBE?AV0@ABV0@@Z  100129ad f   libvcruntime:undname.obj
 0001:000119cf       ??HDName@@QBE?AV0@D@Z      100129cf f   libvcruntime:undname.obj
 0001:000119f1       ??HDName@@QBE?AV0@PAV0@@Z  100129f1 f   libvcruntime:undname.obj
 0001:00011a13       ??HDName@@QBE?AV0@PBD@Z    10012a13 f   libvcruntime:undname.obj
 0001:00011a35       ??HDName@@QBE?AV0@W4DNameStatus@@@Z 10012a35 f   libvcruntime:undname.obj
 0001:00011a57       ??YDName@@QAEAAV0@ABV0@@Z  10012a57 f   libvcruntime:undname.obj
 0001:00011a98       ??YDName@@QAEAAV0@D@Z      10012a98 f   libvcruntime:undname.obj
 0001:00011ae8       ??YDName@@QAEAAV0@PAV0@@Z  10012ae8 f   libvcruntime:undname.obj
 0001:00011b4d       ??YDName@@QAEAAV0@PBD@Z    10012b4d f   libvcruntime:undname.obj
 0001:00011bae       ??YDName@@QAEAAV0@W4DNameStatus@@@Z 10012bae f   libvcruntime:undname.obj
 0001:00011bee       ??YReplicator@@QAEAAV0@ABVDName@@@Z 10012bee f   libvcruntime:undname.obj
 0001:00011c38       ??_5DName@@QAEAAV0@ABV0@@Z 10012c38 f   libvcruntime:undname.obj
 0001:00011c54       ?Constructor@_HeapManager@@QAEXP6APAXI@ZP6AXPAX@Z@Z 10012c54 f i libvcruntime:undname.obj
 0001:00011c71       ?Destructor@_HeapManager@@QAEXXZ 10012c71 f i libvcruntime:undname.obj
 0001:00011ca9       ?UScore@UnDecorator@@SAPBDW4Tokens@@@Z 10012ca9 f   libvcruntime:undname.obj
 0001:00011cc8       ?append@DName@@AAEXPBVDNameNode@@@Z 10012cc8 f   libvcruntime:undname.obj
 0001:00011d0e       ?composeDeclaration@UnDecorator@@CA?AVDName@@ABV2@@Z 10012d0e f i libvcruntime:undname.obj
 0001:000129eb       ?doAccessSpecifiers@UnDecorator@@SAHXZ 100139eb f i libvcruntime:undname.obj
 0001:000129f9       ?doAllocationLanguage@UnDecorator@@SAHXZ 100139f9 f i libvcruntime:undname.obj
 0001:00012a07       ?doAllocationModel@UnDecorator@@SAHXZ 10013a07 f i libvcruntime:undname.obj
 0001:00012a15       ?doEcsu@UnDecorator@@SAHXZ 10013a15 f i libvcruntime:undname.obj
 0001:00012a23       ?doEllipsis@UnDecorator@@SAHXZ 10013a23 f i libvcruntime:undname.obj
 0001:00012a31       ?doFunctionReturns@UnDecorator@@SAHXZ 10013a31 f i libvcruntime:undname.obj
 0001:00012a3f       ?doMSKeywords@UnDecorator@@SAHXZ 10013a3f f i libvcruntime:undname.obj
 0001:00012a4c       ?doMemberTypes@UnDecorator@@SAHXZ 10013a4c f i libvcruntime:undname.obj
 0001:00012a5a       ?doNameOnly@UnDecorator@@SAHXZ 10013a5a f i libvcruntime:undname.obj
 0001:00012a65       ?doNoIdentCharCheck@UnDecorator@@SAHXZ 10013a65 f i libvcruntime:undname.obj
 0001:00012a70       ?doPchar@DName@@AAEXPBDH@Z 10013a70 f   libvcruntime:undname.obj
 0001:00012af6       ?doPtr64@UnDecorator@@SAHXZ 10013af6 f i libvcruntime:undname.obj
 0001:00012b04       ?doRestrictionSpec@UnDecorator@@SAHXZ 10013b04 f i libvcruntime:undname.obj
 0001:00012b12       ?doThisTypes@UnDecorator@@SAHXZ 10013b12 f i libvcruntime:undname.obj
 0001:00012b24       ?doThrowTypes@UnDecorator@@SAHXZ 10013b24 f i libvcruntime:undname.obj
 0001:00012b32       ?doTypeOnly@UnDecorator@@SAHXZ 10013b32 f i libvcruntime:undname.obj
 0001:00012b3d       ?doUnderScore@UnDecorator@@SAHXZ 10013b3d f i libvcruntime:undname.obj
 0001:00012b48       ?getArgumentList@UnDecorator@@CA?AVDName@@XZ 10013b48 f   libvcruntime:undname.obj
 0001:00012c3e       ?getArgumentTypes@UnDecorator@@CA?AVDName@@XZ 10013c3e f   libvcruntime:undname.obj
 0001:00012d08       ?getArrayType@UnDecorator@@CA?AVDName@@ABV2@@Z 10013d08 f i libvcruntime:undname.obj
 0001:00012eb9       ?getBasedType@UnDecorator@@CA?AVDName@@XZ 10013eb9 f   libvcruntime:undname.obj
 0001:00012f51       ?getBasicDataType@UnDecorator@@CA?AVDName@@ABV2@@Z 10013f51 f   libvcruntime:undname.obj
 0001:00013330       ?getCHPEName@UnDecorator@@QAEPADPADH@Z 10014330 f i libvcruntime:undname.obj
 0001:0001340f       ?getCallIndex@UnDecorator@@CA?AVDName@@XZ 1001440f f i libvcruntime:undname.obj
 0001:00013423       ?getCallingConvention@UnDecorator@@CA?AVDName@@XZ 10014423 f   libvcruntime:undname.obj
 0001:000134f6       ?getDataIndirectType@UnDecorator@@CA?AVDName@@ABV2@PBD0H@Z 100144f6 f   libvcruntime:undname.obj
 0001:00013ae0       ?getDataIndirectType@UnDecorator@@CA?AVDName@@XZ 10014ae0 f i libvcruntime:undname.obj
 0001:00013b12       ?getDataType@UnDecorator@@CA?AVDName@@PAV2@@Z 10014b12 f   libvcruntime:undname.obj
 0001:00013bd7       ?getDecoratedName@UnDecorator@@CA?AVDName@@XZ 10014bd7 f   libvcruntime:undname.obj
 0001:00013e19       ?getDimension@UnDecorator@@CA?AVDName@@_N@Z 10014e19 f   libvcruntime:undname.obj
 0001:00013f38       ?getDispatchTarget@UnDecorator@@CA?AVDName@@XZ 10014f38 f   libvcruntime:undname.obj
 0001:00013f8c       ?getDisplacement@UnDecorator@@CA?AVDName@@XZ 10014f8c f i libvcruntime:undname.obj
 0001:00013fa0       ?getECSUDataType@UnDecorator@@CA?AVDName@@XZ 10014fa0 f   libvcruntime:undname.obj
 0001:000140b8       ?getECSUName@UnDecorator@@CA?AVDName@@XZ 100150b8 f i libvcruntime:undname.obj
 0001:000140c9       ?getEnumType@UnDecorator@@CA?AVDName@@XZ 100150c9 f i libvcruntime:undname.obj
 0001:000141b9       ?getExtendedDataIndirectType@UnDecorator@@CA?AVDName@@AAPBDAA_NH@Z 100151b9 f   libvcruntime:undname.obj
 0001:00014370       ?getExternalDataType@UnDecorator@@CA?AVDName@@ABV2@@Z 10015370 f i libvcruntime:undname.obj
 0001:000143d7       ?getFunctionIndirectType@UnDecorator@@CA?AVDName@@ABV2@@Z 100153d7 f   libvcruntime:undname.obj
 0001:000147af       ?getGuardNumber@UnDecorator@@CA?AVDName@@XZ 100157af f i libvcruntime:undname.obj
 0001:000147c3       ?getLastChar@DName@@QBEDXZ 100157c3 f i libvcruntime:undname.obj
 0001:000147e3       ?getLastChar@DNameStatusNode@@UBEDXZ 100157e3 f i libvcruntime:undname.obj
 0001:000147ef       ?getLastChar@charNode@@UBEDXZ 100157ef f i libvcruntime:undname.obj
 0001:000147f3       ?getLastChar@pDNameNode@@UBEDXZ 100157f3 f i libvcruntime:undname.obj
 0001:00014801       ?getLastChar@pairNode@@UBEDXZ 10015801 f i libvcruntime:undname.obj
 0001:00014836       ?getLastChar@pcharNode@@UBEDXZ 10015836 f i libvcruntime:undname.obj
 0001:00014848       ?getLexicalFrame@UnDecorator@@CA?AVDName@@XZ 10015848 f i libvcruntime:undname.obj
 0001:00014887       ?getMemory@_HeapManager@@QAEPAXIH@Z 10015887 f   libvcruntime:undname.obj
 0001:0001490e       ?getNoexcept@UnDecorator@@CA?AVDName@@XZ 1001590e f   libvcruntime:undname.obj
 0001:00014953       ?getNumberOfDimensions@UnDecorator@@CAHXZ 10015953 f   libvcruntime:undname.obj
 0001:000149b4       ?getOperatorName@UnDecorator@@CA?AVDName@@_NPA_N@Z 100159b4 f i libvcruntime:undname.obj
 0001:0001500c       ?getPointerType@UnDecorator@@CA?AVDName@@ABV2@0@Z 1001600c f i libvcruntime:undname.obj
 0001:0001502a       ?getPointerTypeArray@UnDecorator@@CA?AVDName@@ABV2@0@Z 1001602a f i libvcruntime:undname.obj
 0001:00015048       ?getPrimaryDataType@UnDecorator@@CA?AVDName@@ABV2@@Z 10016048 f   libvcruntime:undname.obj
 0001:0001522c       ?getPtrRefDataType@UnDecorator@@CA?AVDName@@ABV2@H@Z 1001622c f   libvcruntime:undname.obj
 0001:00015355       ?getPtrRefType@UnDecorator@@CA?AVDName@@ABV2@0PBD@Z 10016355 f   libvcruntime:undname.obj
 0001:0001544f       ?getReferenceType@UnDecorator@@CA?AVDName@@ABV2@0PBD@Z 1001644f f i libvcruntime:undname.obj
 0001:0001546b       ?getRestrictionSpec@UnDecorator@@CA?AVDName@@XZ 1001646b f   libvcruntime:undname.obj
 0001:00015564       ?getReturnType@UnDecorator@@CA?AVDName@@PAV2@@Z 10016564 f   libvcruntime:undname.obj
 0001:00015593       ?getScope@UnDecorator@@CA?AVDName@@XZ 10016593 f   libvcruntime:undname.obj
 0001:00015927       ?getScopedName@UnDecorator@@CA?AVDName@@XZ 10016927 f   libvcruntime:undname.obj
 0001:000159fb       ?getSignedDimension@UnDecorator@@CA?AVDName@@XZ 100169fb f   libvcruntime:undname.obj
 0001:00015a4c       ?getStorageConvention@UnDecorator@@CA?AVDName@@XZ 10016a4c f i libvcruntime:undname.obj
 0001:00015a5d       ?getString@DName@@QBEPADPAD0@Z 10016a5d f i libvcruntime:undname.obj
 0001:00015a8a       ?getString@DName@@QBEPADPADH@Z 10016a8a f i libvcruntime:undname.obj
 0001:00015ae0       ?getString@DNameStatusNode@@UBEPADPAD0@Z 10016ae0 f i libvcruntime:undname.obj
 0001:00015b07       ?getString@charNode@@UBEPADPAD0@Z 10016b07 f i libvcruntime:undname.obj
 0001:00015b1c       ?getString@pDNameNode@@UBEPADPAD0@Z 10016b1c f i libvcruntime:undname.obj
 0001:00015b33       ?getString@pairNode@@UBEPADPAD0@Z 10016b33 f i libvcruntime:undname.obj
 0001:00015b79       ?getString@pcharNode@@UBEPADPAD0@Z 10016b79 f i libvcruntime:undname.obj
 0001:00015b94       ?getStringEncoding@UnDecorator@@CA?AVDName@@PBDH@Z 10016b94 f   libvcruntime:undname.obj
 0001:00015c44       ?getStringHelper@@YAPADPADPBD1H@Z 10016c44 f i libvcruntime:undname.obj
 0001:00015c7b       ?getSymbolName@UnDecorator@@CA?AVDName@@XZ 10016c7b f i libvcruntime:undname.obj
 0001:00015cc3       ?getTemplateArgumentList@UnDecorator@@CA?AVDName@@XZ 10016cc3 f   libvcruntime:undname.obj
 0001:00015f60       ?getTemplateConstant@UnDecorator@@CA?AVDName@@XZ 10016f60 f   libvcruntime:undname.obj
 0001:00016292       ?getTemplateName@UnDecorator@@CA?AVDName@@_N@Z 10017292 f   libvcruntime:undname.obj
 0001:000163f4       ?getThisType@UnDecorator@@CA?AVDName@@XZ 100173f4 f i libvcruntime:undname.obj
 0001:00016427       ?getThrowTypes@UnDecorator@@CA?AVDName@@XZ 10017427 f   libvcruntime:undname.obj
 0001:0001644a       ?getTypeEncoding@UnDecorator@@CAHXZ 1001744a f i libvcruntime:undname.obj
 0001:00016772       ?getUndecoratedName@UnDecorator@@QAEPADPADH@Z 10017772 f i libvcruntime:undname.obj
 0001:00016836       ?getVCallThunkType@UnDecorator@@CA?AVDName@@XZ 10017836 f i libvcruntime:undname.obj
 0001:0001687d       ?getVbTableType@UnDecorator@@CA?AVDName@@ABV2@@Z 1001787d f i libvcruntime:undname.obj
 0001:00016892       ?getVdispMapType@UnDecorator@@CA?AVDName@@ABV2@@Z 10017892 f i libvcruntime:undname.obj
 0001:000168e6       ?getVfTableType@UnDecorator@@CA?AVDName@@ABV2@@Z 100178e6 f i libvcruntime:undname.obj
 0001:00016a49       ?getZName@UnDecorator@@CA?AVDName@@_N0@Z 10017a49 f   libvcruntime:undname.obj
 0001:00016c48       ?haveTemplateParameters@UnDecorator@@SAHXZ 10017c48 f i libvcruntime:undname.obj
 0001:00016c53       ?isArray@DName@@QBEHXZ     10017c53 f i libvcruntime:undname.obj
 0001:00016c5d       ?isComArray@DName@@QBEHXZ  10017c5d f i libvcruntime:undname.obj
 0001:00016c67       ?isEmpty@DName@@QBEHXZ     10017c67 f i libvcruntime:undname.obj
 0001:00016c6f       ?isFull@Replicator@@QBEHXZ 10017c6f f i libvcruntime:undname.obj
 0001:00016c78       ?isNoTE@DName@@QBEHXZ      10017c78 f i libvcruntime:undname.obj
 0001:00016c82       ?isPinPtr@DName@@QBEHXZ    10017c82 f i libvcruntime:undname.obj
 0001:00016c8c       ?isPtrRef@DName@@QBEHXZ    10017c8c f i libvcruntime:undname.obj
 0001:00016c96       ?isUDC@DName@@QBEHXZ       10017c96 f i libvcruntime:undname.obj
 0001:00016ca7       ?isUDTThunk@DName@@QBEHXZ  10017ca7 f i libvcruntime:undname.obj
 0001:00016cb8       ?isVCallThunk@DName@@QBEHXZ 10017cb8 f i libvcruntime:undname.obj
 0001:00016cc2       ?isValid@DName@@QBEHXZ     10017cc2 f i libvcruntime:undname.obj
 0001:00016ccc       ?length@DName@@QBEHXZ      10017ccc f i libvcruntime:undname.obj
 0001:00016ceb       ?length@DNameStatusNode@@UBEHXZ 10017ceb f i libvcruntime:undname.obj
 0001:00016cef       ?length@charNode@@UBEHXZ   10017cef f i libvcruntime:undname.obj
 0001:00016cf3       ?length@pDNameNode@@UBEHXZ 10017cf3 f i libvcruntime:undname.obj
 0001:00016d01       ?length@pairNode@@UBEHXZ   10017d01 f i libvcruntime:undname.obj
 0001:00016d47       ?length@pcharNode@@UBEHXZ  10017d47 f i libvcruntime:undname.obj
 0001:00016d4b       ?make@DNameStatusNode@@SAPBV1@W4DNameStatus@@@Z 10017d4b f i libvcruntime:undname.obj
 0001:00016d67       ?parseDecoratedName@UnDecorator@@CA?AVDName@@XZ 10017d67 f   libvcruntime:undname.obj
 0001:00016e55       ?setIsArray@DName@@QAEXXZ  10017e55 f i libvcruntime:undname.obj
 0001:00016e5d       ?setIsComArray@DName@@QAEXXZ 10017e5d f i libvcruntime:undname.obj
 0001:00016e65       ?setIsNoTE@DName@@QAEXXZ   10017e65 f i libvcruntime:undname.obj
 0001:00016e6d       ?setIsPinPtr@DName@@QAEXXZ 10017e6d f i libvcruntime:undname.obj
 0001:00016e75       ?setIsUDC@DName@@QAEXXZ    10017e75 f i libvcruntime:undname.obj
 0001:00016e82       ?setIsVCallThunk@DName@@QAEXXZ 10017e82 f i libvcruntime:undname.obj
 0001:00016e8a       ?setPtrRef@DName@@QAEAAV1@XZ 10017e8a f i libvcruntime:undname.obj
 0001:00016e94       ?status@DName@@QBE?AW4DNameStatus@@XZ 10017e94 f i libvcruntime:undname.obj
 0001:00016f00       ___unDName                 10017f00 f   libvcruntime:undname.obj
 0001:00016f23       ___unDNameEx               10017f23 f   libvcruntime:undname.obj
 0001:00016fc2       __vsprintf_s_l             10017fc2 f i libvcruntime:undname.obj
 0001:00016fef       _sprintf_s                 10017fef f i libvcruntime:undname.obj
 0001:0001700b       _unDNameGenerateCHPE       1001800b f   libvcruntime:undname.obj
 0001:00017067       ??$?RU__vcrt_ptd@@@__crt_internal_free_policy@@QBEXQBU__vcrt_ptd@@@Z 10018067 f i libvcruntime:per_thread_data.obj
 0001:00017077       ??0?$__crt_unique_heap_ptr@U__vcrt_ptd@@U__crt_internal_free_policy@@@@QAE@QAU__vcrt_ptd@@@Z 10018077 f i libvcruntime:per_thread_data.obj
 0001:00017094       ??1?$__crt_unique_heap_ptr@U__vcrt_ptd@@U__crt_internal_free_policy@@@@QAE@XZ 10018094 f i libvcruntime:per_thread_data.obj
 0001:000170ad       ??B?$__crt_unique_heap_ptr@U__vcrt_ptd@@U__crt_internal_free_policy@@@@QBE_NXZ 100180ad f i libvcruntime:per_thread_data.obj
 0001:000170b4       ?detach@?$__crt_unique_heap_ptr@U__vcrt_ptd@@U__crt_internal_free_policy@@@@QAEPAU__vcrt_ptd@@XZ 100180b4 f i libvcruntime:per_thread_data.obj
 0001:000170ba       ?get@?$__crt_unique_heap_ptr@U__vcrt_ptd@@U__crt_internal_free_policy@@@@QBEPAU__vcrt_ptd@@XZ 100180ba f i libvcruntime:per_thread_data.obj
 0001:000170bd       ?is_valid@?$__crt_unique_heap_ptr@U__vcrt_ptd@@U__crt_internal_free_policy@@@@QBE_NXZ 100180bd f i libvcruntime:per_thread_data.obj
 0001:000170c4       ?release@?$__crt_unique_heap_ptr@U__vcrt_ptd@@U__crt_internal_free_policy@@@@QAEXXZ 100180c4 f i libvcruntime:per_thread_data.obj
 0001:000170ee       ___vcrt_freefls@4          100180ee f   libvcruntime:per_thread_data.obj
 0001:0001710a       ___vcrt_freeptd            1001810a f   libvcruntime:per_thread_data.obj
 0001:00017140       ___vcrt_getptd             10018140 f   libvcruntime:per_thread_data.obj
 0001:0001714e       ___vcrt_getptd_noexit      1001814e f   libvcruntime:per_thread_data.obj
 0001:000171e0       ___vcrt_getptd_noinit      100181e0 f   libvcruntime:per_thread_data.obj
 0001:00017217       ___vcrt_initialize_ptd     10018217 f   libvcruntime:per_thread_data.obj
 0001:0001724a       ___vcrt_uninitialize_ptd   1001824a f   libvcruntime:per_thread_data.obj
 0001:00017265       ___vcrt_initialize_locks   10018265 f   libvcruntime:locks.obj
 0001:000172a1       ___vcrt_lock               100182a1 f   libvcruntime:locks.obj
 0001:000172b6       ___vcrt_uninitialize_locks 100182b6 f   libvcruntime:locks.obj
 0001:000172e5       ___vcrt_unlock             100182e5 f   libvcruntime:locks.obj
 0001:000172fa       ??$?BX@__crt_fast_encoded_nullptr_t@@QBEPAXXZ 100182fa f i libvcruntime:winapi_downlevel.obj
 0001:00017300       ??$__crt_fast_decode_pointer@PAX@@YAPAXQAX@Z 10018300 f i libvcruntime:winapi_downlevel.obj
 0001:00017314       ??$__crt_fast_encode_pointer@PAX@@YAPAXQAX@Z 10018314 f i libvcruntime:winapi_downlevel.obj
 0001:00017331       ??$__crt_interlocked_exchange_pointer@UHINSTANCE__@@PAU1@@@YAPAUHINSTANCE__@@PDSAU0@QAU0@@Z 10018331 f i libvcruntime:winapi_downlevel.obj
 0001:0001733e       ??$__crt_interlocked_exchange_pointer@UHINSTANCE__@@PAX@@YAPAUHINSTANCE__@@PDSAU0@QAX@Z 1001833e f i libvcruntime:winapi_downlevel.obj
 0001:0001734b       ??$__crt_interlocked_exchange_pointer@XPAX@@YAPAXPDSAXQAX@Z 1001834b f i libvcruntime:winapi_downlevel.obj
 0001:00017358       ??$__crt_interlocked_read_pointer@UHINSTANCE__@@@@YAPAUHINSTANCE__@@PDSAU0@@Z 10018358 f i libvcruntime:winapi_downlevel.obj
 0001:00017362       ??$__crt_interlocked_read_pointer@X@@YAPAXPDSAX@Z 10018362 f i libvcruntime:winapi_downlevel.obj
 0001:0001736c       ?__crt_fast_encode_pointer@@YA?AU__crt_fast_encoded_nullptr_t@@$$T@Z 1001836c f i libvcruntime:winapi_downlevel.obj
 0001:00017600       ___vcrt_FlsAlloc           10018600 f   libvcruntime:winapi_downlevel.obj
 0001:0001763b       ___vcrt_FlsFree            1001863b f   libvcruntime:winapi_downlevel.obj
 0001:00017676       ___vcrt_FlsGetValue        10018676 f   libvcruntime:winapi_downlevel.obj
 0001:000176b1       ___vcrt_FlsSetValue        100186b1 f   libvcruntime:winapi_downlevel.obj
 0001:000176ef       ___vcrt_InitializeCriticalSectionEx 100186ef f   libvcruntime:winapi_downlevel.obj
 0001:00017736       ___vcrt_initialize_winapi_thunks 10018736 f   libvcruntime:winapi_downlevel.obj
 0001:0001775f       ___vcrt_uninitialize_winapi_thunks 1001875f f   libvcruntime:winapi_downlevel.obj
 0001:00017791       ??$?B$$A6AXXZ@__crt_fast_encoded_nullptr_t@@QBEP6AXXZXZ 10018791 f i libvcruntime:purevirt_data.obj
 0001:00017797       ??$__crt_fast_encode_pointer@P6AXXZ@@YAP6AXXZQ6AXXZ@Z 10018797 f i libvcruntime:purevirt_data.obj
 0001:000177b4       ___vcrt_initialize_pure_virtual_call_handler 100187b4 f   libvcruntime:purevirt_data.obj
 0001:000177c0       __global_unwind2           100187c0 f   libvcruntime:_exsup_.obj
 0001:00017826       __local_unwind2            10018826 f   libvcruntime:_exsup_.obj
 0001:000178aa       __abnormal_termination     100188aa f   libvcruntime:_exsup_.obj
 0001:000178d0       __NLG_Notify1              100188d0 f   libvcruntime:_exsup_.obj
 0001:000178dc       __NLG_Notify               100188dc f   libvcruntime:_exsup_.obj
 0001:000178f3       __NLG_Dispatch             100188f3     libvcruntime:_exsup_.obj
 0001:000178f3       __NLG_Dispatch2            100188f3     libvcruntime:_exsup_.obj
 0001:000178fb       __NLG_Call                 100188fb f   libvcruntime:_exsup_.obj
 0001:000178fd       __NLG_Return2              100188fd     libvcruntime:_exsup_.obj
 0001:000178fe       ??$__crt_fast_decode_pointer@P6AXXZ@@YAP6AXXZQ6AXXZ@Z 100188fe f i libvcruntime:purevirt.obj
 0001:00017912       ??$__crt_interlocked_exchange_pointer@$$A6AXXZP6AXXZ@@YAP6AXXZPDS6AXXZQ6AXXZ@Z 10018912 f i libvcruntime:purevirt.obj
 0001:0001791f       ??$__crt_interlocked_read_pointer@$$A6AXXZ@@YAP6AXXZPDS6AXXZ@Z 1001891f f i libvcruntime:purevirt.obj
 0001:00017929       __get_purecall_handler     10018929 f   libvcruntime:purevirt.obj
 0001:0001793e       __purecall                 1001893e f   libvcruntime:purevirt.obj
 0001:0001795a       __set_purecall_handler     1001895a f   libvcruntime:purevirt.obj
 0001:0001797f       ??$?0AAViterator@TryBlockMap@__FrameHandler3@@AAV012@$0A@@?$pair@Viterator@TryBlockMap@__FrameHandler3@@V123@@std@@QAE@AAViterator@TryBlockMap@__FrameHandler3@@0@Z 1001897f f i libvcruntime:trnsctrl.obj
 0001:000179a3       ??$forward@AAViterator@TryBlockMap@__FrameHandler3@@@std@@YAAAViterator@TryBlockMap@__FrameHandler3@@AAV123@@Z 100189a3 f i libvcruntime:trnsctrl.obj
 0001:000179ab       ??0iterator@TryBlockMap@__FrameHandler3@@QAE@AAV12@I@Z 100189ab f i libvcruntime:trnsctrl.obj
 0001:000179bf       ?GetRangeOfTrysToCheck@__FrameHandler3@@SA?AU?$pair@Viterator@TryBlockMap@__FrameHandler3@@V123@@std@@AAVTryBlockMap@1@HH@Z 100189bf f   libvcruntime:trnsctrl.obj
 0001:00017a41       ?_CallCatchBlock2@@YAPAXPAUEHRegistrationNode@@PBU_s_FuncInfo@@PAXHK@Z 10018a41 f   libvcruntime:trnsctrl.obj
 0001:00017a9f       ?_CallSETranslator@@YAHPAUEHExceptionRecord@@PAUEHRegistrationNode@@PAX2PBU_s_FuncInfo@@H1@Z 10018a9f f   libvcruntime:trnsctrl.obj
 0001:00017b7a       ?_JumpToContinuation@@YGXPAXPAUEHRegistrationNode@@@Z 10018b7a f   libvcruntime:trnsctrl.obj
 0001:00017baa       ?_UnwindNestedFrames@@YGXPAUEHRegistrationNode@@PAUEHExceptionRecord@@@Z 10018baa f   libvcruntime:trnsctrl.obj
 0001:00017bfd       ?getFuncInfo@TryBlockMap@__FrameHandler3@@QAEPBU_s_FuncInfo@@XZ 10018bfd f i libvcruntime:trnsctrl.obj
 0001:00017c00       __CatchGuardHandler        10018c00 f   libvcruntime:trnsctrl.obj
 0001:00017c31       __CreateFrameInfo          10018c31 f   libvcruntime:trnsctrl.obj
 0001:00017c55       __FindAndUnlinkFrame       10018c55 f   libvcruntime:trnsctrl.obj
 0001:00017c9a       __TranslatorGuardHandler   10018c9a f   libvcruntime:trnsctrl.obj
 0001:00017d37       ___CxxFrameHandler         10018d37 f   libvcruntime:trnsctrl.obj
 0001:00017d6d       ___CxxFrameHandler2        10018d6d f   libvcruntime:trnsctrl.obj
 0001:00017da3       ___CxxFrameHandler3        10018da3 f   libvcruntime:trnsctrl.obj
 0001:00017dd9       ___CxxLongjmpUnwind@4      10018dd9 f   libvcruntime:trnsctrl.obj
 0001:00017e00       _memcpy                    10018e00 f   libvcruntime:memcpy.obj
 0001:00018a6b       ??$TypeMatchHelper@$$CBU_s_HandlerType@@@@YAHPBU_s_HandlerType@@PBU_s_CatchableType@@PBU_s_ThrowInfo@@@Z 10019a6b f i libvcruntime:frame.obj
 0001:00018af9       ??$__InternalCxxFrameHandler@V__FrameHandler3@@@@YA?AW4_EXCEPTION_DISPOSITION@@PAUEHExceptionRecord@@PAUEHRegistrationNode@@PAU_CONTEXT@@PAXPBU_s_FuncInfo@@H1E@Z 10019af9 f i libvcruntime:frame.obj
 0001:00018bfb       ??0HandlerMap@__FrameHandler3@@QAE@PBU_s_TryBlockMapEntry@@PAX@Z 10019bfb f i libvcruntime:frame.obj
 0001:00018c12       ??0TryBlockMap@__FrameHandler3@@QAE@PBU_s_FuncInfo@@PAX@Z 10019c12 f i libvcruntime:frame.obj
 0001:00018c26       ??0bad_exception@std@@QAE@ABV01@@Z 10019c26 f i libvcruntime:frame.obj
 0001:00018c41       ??0bad_exception@std@@QAE@XZ 10019c41 f i libvcruntime:frame.obj
 0001:00018c59       ??0exception@std@@QAE@ABV01@@Z 10019c59 f i libvcruntime:frame.obj
 0001:00018c85       ??0exception@std@@QAE@QBDH@Z 10019c85 f i libvcruntime:frame.obj
 0001:00018ca2       ??0iterator@HandlerMap@__FrameHandler3@@QAE@AAV12@I@Z 10019ca2 f i libvcruntime:frame.obj
 0001:00018cb6       ??1bad_exception@std@@UAE@XZ 10019cb6 f i libvcruntime:frame.obj
 0001:00018cc7       ??1exception@std@@UAE@XZ   10019cc7 f i libvcruntime:frame.obj
 0001:00018cd8       ??8iterator@HandlerMap@__FrameHandler3@@QBE_NABV012@@Z 10019cd8 f i libvcruntime:frame.obj
 0001:00018ceb       ??8type_info@@QBE_NABV0@@Z 10019ceb f i libvcruntime:frame.obj
 0001:00018d0a       ??9iterator@HandlerMap@__FrameHandler3@@QBE_NABV012@@Z 10019d0a f i libvcruntime:frame.obj
 0001:00018d1d       ??Diterator@HandlerMap@__FrameHandler3@@QAEPBU_s_HandlerType@@XZ 10019d1d f i libvcruntime:frame.obj
 0001:00018d29       ??Diterator@TryBlockMap@__FrameHandler3@@QAEPBU_s_TryBlockMapEntry@@XZ 10019d29 f i libvcruntime:frame.obj
 0001:00018d35       ??Eiterator@HandlerMap@__FrameHandler3@@QAEAAV012@XZ 10019d35 f i libvcruntime:frame.obj
 0001:00018d3b       ??Eiterator@TryBlockMap@__FrameHandler3@@QAEAAV012@XZ 10019d3b f i libvcruntime:frame.obj
 0001:00018d41       ??Miterator@TryBlockMap@__FrameHandler3@@QBE_NABV012@@Z 10019d41 f i libvcruntime:frame.obj
 0001:00018d54       ??_Ebad_exception@std@@UAEPAXI@Z 10019d54 f i libvcruntime:frame.obj
 0001:00018d54       ??_Gbad_exception@std@@UAEPAXI@Z 10019d54 f i libvcruntime:frame.obj
 0001:00018d81       ??_Eexception@std@@UAEPAXI@Z 10019d81 f i libvcruntime:frame.obj
 0001:00018d81       ??_Gexception@std@@UAEPAXI@Z 10019d81 f i libvcruntime:frame.obj
 0001:00018dae       ?BuildCatchObject@__FrameHandler3@@SAXPAUEHExceptionRecord@@PAXPBU_s_HandlerType@@PBU_s_CatchableType@@@Z 10019dae f   libvcruntime:frame.obj
 0001:00018db3       ?BuildCatchObjectHelper@__FrameHandler3@@SAHPAUEHExceptionRecord@@PAXPBU_s_HandlerType@@PBU_s_CatchableType@@@Z 10019db3 f   libvcruntime:frame.obj
 0001:00019004       ?FrameUnwindToEmptyState@__FrameHandler3@@SAXPAUEHRegistrationNode@@PAXPBU_s_FuncInfo@@@Z 1001a004 f   libvcruntime:frame.obj
 0001:0001901c       ?FrameUnwindToState@__FrameHandler3@@SAXPAUEHRegistrationNode@@PAXPBU_s_FuncInfo@@H@Z 1001a01c f   libvcruntime:frame.obj
 0001:00019104       ?GetMaxState@__FrameHandler3@@SAHPAXPBU_s_FuncInfo@@@Z 1001a104 f i libvcruntime:frame.obj
 0001:000191e2       ?TypeMatch@__FrameHandler3@@SAHPBU_s_HandlerType@@PBU_s_CatchableType@@PBU_s_ThrowInfo@@@Z 1001a1e2 f   libvcruntime:frame.obj
 0001:000191eb       ?_CallMemberFunction1@@YGXQAX00@Z 1001a1eb f i libvcruntime:frame.obj
 0001:000191fb       ?_CallMemberFunction2@@YGXQAX00H@Z 1001a1fb f i libvcruntime:frame.obj
 0001:0001920e       ?_ValidateExecute@@YA_NP6GHXZ@Z 1001a20e f i libvcruntime:frame.obj
 0001:0001921a       ?_ValidateRead@@YA_NPBXI@Z 1001a21a f i libvcruntime:frame.obj
 0001:00019226       ?_ValidateWrite@@YA_NPAXI@Z 1001a226 f i libvcruntime:frame.obj
 0001:00019232       ?begin@HandlerMap@__FrameHandler3@@QAE?AViterator@12@XZ 1001a232 f i libvcruntime:frame.obj
 0001:00019242       ?end@HandlerMap@__FrameHandler3@@QAE?AViterator@12@XZ 1001a242 f i libvcruntime:frame.obj
 0001:00019253       ?getESTypes@__FrameHandler3@@SAPBU_s_ESTypeList@@PBU_s_FuncInfo@@@Z 1001a253 f i libvcruntime:frame.obj
 0001:0001925e       ?getLastEntry@HandlerMap@__FrameHandler3@@QAEPBU_s_HandlerType@@XZ 1001a25e f i libvcruntime:frame.obj
 0001:0001926c       ?getMagicNum@__FrameHandler3@@SAIPBU_s_FuncInfo@@@Z 1001a26c f i libvcruntime:frame.obj
 0001:0001927b       ?getNumTryBlocks@TryBlockMap@__FrameHandler3@@QAEIXZ 1001a27b f i libvcruntime:frame.obj
 0001:00019281       ?isEHs@__FrameHandler3@@SA_NPBU_s_FuncInfo@@@Z 1001a281 f i libvcruntime:frame.obj
 0001:0001928e       ?isNoExcept@__FrameHandler3@@SA_NPBU_s_FuncInfo@@@Z 1001a28e f i libvcruntime:frame.obj
 0001:0001929e       ?what@exception@std@@UBEPBDXZ 1001a29e f i libvcruntime:frame.obj
 0001:000192ab       ___BuildCatchObject        1001a2ab f   libvcruntime:frame.obj
 0001:000192b0       ___BuildCatchObjectHelper  1001a2b0 f   libvcruntime:frame.obj
 0001:000192b9       ___TypeMatch               1001a2b9 f   libvcruntime:frame.obj
 0001:000192c2       ___vcrt_EncodePointer      1001a2c2 f i libvcruntime:frame.obj
 0001:000192d0       __CallSettingFrame@12      1001a2d0 f   libvcruntime:lowhelpr.obj
 0001:000192f7       __NLG_Return               1001a2f7     libvcruntime:lowhelpr.obj
 0001:00019330       __get_unexpected           1001a330 f   libvcruntime:unexpected.obj
 0001:00019342       _set_unexpected            1001a342 f   libvcruntime:unexpected.obj
 0001:00019360       _unexpected                1001a360 f   libvcruntime:unexpected.obj
 0001:0001937d       ?GetCurrentState@__FrameHandler3@@SAHPAUEHRegistrationNode@@PAXPBU_s_FuncInfo@@@Z 1001a37d f   libvcruntime:ehstate.obj
 0001:0001939a       ?SetState@__FrameHandler3@@SAXPAUEHRegistrationNode@@PBU_s_FuncInfo@@H@Z 1001a39a f   libvcruntime:ehstate.obj
 0001:000193a8       ___DestructExceptionObject 1001a3a8 f   libvcruntime:ehhelpers.obj
 0001:00019448       ?_CallMemberFunction0@@YGXQAX0@Z 1001a448 f i libvcruntime:ehhelpers.obj
 0001:00019455       ?raw_name@type_info@@QBEPBDXZ 1001a455 f i libvcruntime:ehhelpers.obj
 0001:00019459       __IsExceptionObjectToBeDestroyed 1001a459 f   libvcruntime:ehhelpers.obj
 0001:0001947f       __SetWinRTOutOfMemoryExceptionCallback 1001a47f f   libvcruntime:ehhelpers.obj
 0001:0001948c       ___AdjustPointer           1001a48c f   libvcruntime:ehhelpers.obj
 0001:000194b1       ___FrameUnwindFilter       1001a4b1 f   libvcruntime:ehhelpers.obj
 0001:000194f6       ___GetPlatformExceptionInfo 1001a4f6 f   libvcruntime:ehhelpers.obj
 0001:00019542       ___current_exception       1001a542 f   libvcruntime:ehhelpers.obj
 0001:0001954b       ___current_exception_context 1001a54b f   libvcruntime:ehhelpers.obj
 0001:00019554       ___processing_throw        1001a554 f   libvcruntime:ehhelpers.obj
 0001:0001955d       ___std_terminate           1001a55d f   libvcruntime:ehhelpers.obj
 0001:00019562       __is_exception_typeof      1001a562 f   libvcruntime:ehhelpers.obj
 0001:00019606       ??$?RD@__crt_public_free_policy@@QBEXQBD@Z 1001a606 f i libvcruntime:std_exception.obj
 0001:00019616       ??0?$__crt_unique_heap_ptr@DU__crt_public_free_policy@@@@QAE@QAD@Z 1001a616 f i libvcruntime:std_exception.obj
 0001:00019624       ??1?$__crt_unique_heap_ptr@DU__crt_public_free_policy@@@@QAE@XZ 1001a624 f i libvcruntime:std_exception.obj
 0001:00019634       ??B?$__crt_unique_heap_ptr@DU__crt_public_free_policy@@@@QBE_NXZ 1001a634 f i libvcruntime:std_exception.obj
 0001:0001963b       ?detach@?$__crt_unique_heap_ptr@DU__crt_public_free_policy@@@@QAEPADXZ 1001a63b f i libvcruntime:std_exception.obj
 0001:00019641       ?get@?$__crt_unique_heap_ptr@DU__crt_public_free_policy@@@@QBEPADXZ 1001a641 f i libvcruntime:std_exception.obj
 0001:00019644       ?is_valid@?$__crt_unique_heap_ptr@DU__crt_public_free_policy@@@@QBE_NXZ 1001a644 f i libvcruntime:std_exception.obj
 0001:0001964b       ?release@?$__crt_unique_heap_ptr@DU__crt_public_free_policy@@@@QAEXXZ 1001a64b f i libvcruntime:std_exception.obj
 0001:0001965b       ___std_exception_copy      1001a65b f   libvcruntime:std_exception.obj
 0001:000196be       ___std_exception_destroy   1001a6be f   libvcruntime:std_exception.obj
 0001:000196dd       __CxxThrowException@8      1001a6dd f   libvcruntime:throw.obj
 0001:00019750       _memmove                   1001a750 f   libvcruntime:memmove.obj
 0001:0001a046       __lseek                    1001b046 f   libucrt:lseek.obj
 0001:0001a051       __lseek_nolock             1001b051 f   libucrt:lseek.obj
 0001:0001a05c       __lseeki64                 1001b05c f   libucrt:lseek.obj
 0001:0001a077       __lseeki64_nolock          1001b077 f   libucrt:lseek.obj
 0001:0001a116       ??$__acrt_mbs_to_wcs_cp@U__crt_win32_buffer_internal_dynamic_resizing@@@@YAHQBDAAV?$__crt_win32_buffer@_WU__crt_win32_buffer_internal_dynamic_resizing@@@@I@Z 1001b116 f i libucrt:open.obj
 0001:0001a135       ??$__vcrt_va_start_verify_argument_type@$$CBH@@YAXXZ 1001b135 f i libucrt:open.obj
 0001:0001a3f8       ??$tsopen_nolock@PAHABQAHABQBDABHABHABHABH@?$__crt_char_traits@D@@SAH$$QAPAHABQAHABQBDABH333@Z 1001b3f8 f i libucrt:open.obj
 0001:0001a42a       ??$tsopen_nolock@PAHABQAHABQB_WABHABHABHABH@?$__crt_char_traits@_W@@SAH$$QAPAHABQAHABQB_WABH333@Z 1001b42a f i libucrt:open.obj
 0001:0001a45c       ??$tsopen_nolock@PAHPAHABQBDABHHABHH@?$__crt_char_traits@D@@SAH$$QAPAH0ABQBDABH$$QAH23@Z 1001b45c f i libucrt:open.obj
 0001:0001a48e       ??$tsopen_nolock@PAHPAHABQB_WABHHABHH@?$__crt_char_traits@_W@@SAH$$QAPAH0ABQB_WABH$$QAH23@Z 1001b48e f i libucrt:open.obj
 0001:0001a4c0       ??0?$__crt_win32_buffer@_WU__crt_win32_buffer_internal_dynamic_resizing@@@@QAE@XZ 1001b4c0 f i libucrt:open.obj
 0001:0001a4d6       ??0_LocaleUpdate@@QAE@QAU__crt_locale_pointers@@@Z 1001b4d6 f i libucrt:open.obj
 0001:0001a559       ??1?$__crt_win32_buffer@_WU__crt_win32_buffer_internal_dynamic_resizing@@@@QAE@XZ 1001b559 f i libucrt:open.obj
 0001:0001a55e       ??1_LocaleUpdate@@QAE@XZ   1001b55e f i libucrt:open.obj
 0001:0001a58f       ?GetLocaleT@_LocaleUpdate@@QAEPAU__crt_locale_pointers@@XZ 1001b58f f i libucrt:open.obj
 0001:0001a593       ?__acrt_get_utf8_acp_compatibility_codepage@@YAIXZ 1001b593 f i libucrt:open.obj
 0001:0001a5d4       ?_deallocate@?$__crt_win32_buffer@_WU__crt_win32_buffer_internal_dynamic_resizing@@@@AAEXXZ 1001b5d4 f i libucrt:open.obj
 0001:0001a5ee       ?allocate@?$__crt_win32_buffer@_WU__crt_win32_buffer_internal_dynamic_resizing@@@@QAEHI@Z 1001b5ee f i libucrt:open.obj
 0001:0001a62d       ?allocate@__crt_win32_buffer_internal_dynamic_resizing@@SAHQAPAXIABV__crt_win32_buffer_empty_debug_info@@@Z 1001b62d f i libucrt:open.obj
 0001:0001a64c       ?capacity@?$__crt_win32_buffer@_WU__crt_win32_buffer_internal_dynamic_resizing@@@@QBEIXZ 1001b64c f i libucrt:open.obj
 0001:0001a8be       ?data@?$__crt_win32_buffer@_WU__crt_win32_buffer_internal_dynamic_resizing@@@@QAEPA_WXZ 1001b8be f i libucrt:open.obj
 0001:0001a8c2       ?deallocate@__crt_win32_buffer_internal_dynamic_resizing@@SAXQAXABV__crt_win32_buffer_empty_debug_info@@@Z 1001b8c2 f i libucrt:open.obj
 0001:0001a8d2       ?debug_info@?$__crt_win32_buffer@_WU__crt_win32_buffer_internal_dynamic_resizing@@@@QBEABV__crt_win32_buffer_empty_debug_info@@XZ 1001b8d2 f i libucrt:open.obj
 0001:0001abc1       ?size@?$__crt_win32_buffer@_WU__crt_win32_buffer_internal_dynamic_resizing@@@@QAEXI@Z 1001bbc1 f i libucrt:open.obj
 0001:0001ac80       ___acrt_locale_changed     1001bc80 f i libucrt:open.obj
 0001:0001ac8b       __invoke_watson_if_error   1001bc8b f i libucrt:open.obj
 0001:0001acad       __open                     1001bcad f   libucrt:open.obj
 0001:0001acc5       __sopen                    1001bcc5 f   libucrt:open.obj
 0001:0001acfa       __sopen_dispatch           1001bcfa f   libucrt:open.obj
 0001:0001ad05       __sopen_nolock             1001bd05 f   libucrt:open.obj
 0001:0001ad75       __sopen_s                  1001bd75 f   libucrt:open.obj
 0001:0001ad95       __wopen                    1001bd95 f   libucrt:open.obj
 0001:0001adad       __wsopen                   1001bdad f   libucrt:open.obj
 0001:0001ade2       __wsopen_dispatch          1001bde2 f   libucrt:open.obj
 0001:0001aded       __wsopen_nolock            1001bded f   libucrt:open.obj
 0001:0001b119       __wsopen_s                 1001c119 f   libucrt:open.obj
 0001:0001b419       __wcstombs_l               1001c419 f   libucrt:wcstombs.obj
 0001:0001b424       __wcstombs_s_l             1001c424 f   libucrt:wcstombs.obj
 0001:0001b4f1       _wcstombs                  1001c4f1 f   libucrt:wcstombs.obj
 0001:0001b50b       _wcstombs_s                1001c50b f   libucrt:wcstombs.obj
 0001:0001b52b       ??$?0ABV?$stream_output_adapter@D@__crt_stdio_output@@AB_KABQBDABQAU__crt_locale_pointers@@ABQAD@?$format_validation_base@DV?$stream_output_adapter@D@__crt_stdio_output@@@__crt_stdio_output@@IAE@ABV?$stream_output_adapter@D@1@AB_KABQBDABQAU__crt_locale_pointers@@ABQAD@Z 1001c52b f i libucrt:output.obj
 0001:0001b54e       ??$?0ABV?$stream_output_adapter@D@__crt_stdio_output@@AB_KABQBDABQAU__crt_locale_pointers@@ABQAD@?$positional_parameter_base@DV?$stream_output_adapter@D@__crt_stdio_output@@@__crt_stdio_output@@IAE@ABV?$stream_output_adapter@D@1@AB_KABQBDABQAU__crt_locale_pointers@@ABQAD@Z 1001c54e f i libucrt:output.obj
 0001:0001b596       ??$?0ABV?$stream_output_adapter@D@__crt_stdio_output@@AB_KABQBDABQAU__crt_locale_pointers@@ABQAD@?$standard_base@DV?$stream_output_adapter@D@__crt_stdio_output@@@__crt_stdio_output@@IAE@ABV?$stream_output_adapter@D@1@AB_KABQBDABQAU__crt_locale_pointers@@ABQAD@Z 1001c596 f i libucrt:output.obj
 0001:0001b5cb       ??$?0ABV?$stream_output_adapter@_W@__crt_stdio_output@@AB_KABQB_WABQAU__crt_locale_pointers@@ABQAD@?$format_validation_base@_WV?$stream_output_adapter@_W@__crt_stdio_output@@@__crt_stdio_output@@IAE@ABV?$stream_output_adapter@_W@1@AB_KABQB_WABQAU__crt_locale_pointers@@ABQAD@Z 1001c5cb f i libucrt:output.obj
 0001:0001b5ee       ??$?0ABV?$stream_output_adapter@_W@__crt_stdio_output@@AB_KABQB_WABQAU__crt_locale_pointers@@ABQAD@?$positional_parameter_base@_WV?$stream_output_adapter@_W@__crt_stdio_output@@@__crt_stdio_output@@IAE@ABV?$stream_output_adapter@_W@1@AB_KABQB_WABQAU__crt_locale_pointers@@ABQAD@Z 1001c5ee f i libucrt:output.obj
 0001:0001b636       ??$?0ABV?$stream_output_adapter@_W@__crt_stdio_output@@AB_KABQB_WABQAU__crt_locale_pointers@@ABQAD@?$standard_base@_WV?$stream_output_adapter@_W@__crt_stdio_output@@@__crt_stdio_output@@IAE@ABV?$stream_output_adapter@_W@1@AB_KABQB_WABQAU__crt_locale_pointers@@ABQAD@Z 1001c636 f i libucrt:output.obj
 0001:0001b66b       ??$?0ABV?$string_output_adapter@D@__crt_stdio_output@@AB_KABQBDABQAU__crt_locale_pointers@@ABQAD@?$format_validation_base@DV?$string_output_adapter@D@__crt_stdio_output@@@__crt_stdio_output@@IAE@ABV?$string_output_adapter@D@1@AB_KABQBDABQAU__crt_locale_pointers@@ABQAD@Z 1001c66b f i libucrt:output.obj
 0001:0001b68e       ??$?0ABV?$string_output_adapter@D@__crt_stdio_output@@AB_KABQBDABQAU__crt_locale_pointers@@ABQAD@?$positional_parameter_base@DV?$string_output_adapter@D@__crt_stdio_output@@@__crt_stdio_output@@IAE@ABV?$string_output_adapter@D@1@AB_KABQBDABQAU__crt_locale_pointers@@ABQAD@Z 1001c68e f i libucrt:output.obj
 0001:0001b6d6       ??$?0ABV?$string_output_adapter@D@__crt_stdio_output@@AB_KABQBDABQAU__crt_locale_pointers@@ABQAD@?$standard_base@DV?$string_output_adapter@D@__crt_stdio_output@@@__crt_stdio_output@@IAE@ABV?$string_output_adapter@D@1@AB_KABQBDABQAU__crt_locale_pointers@@ABQAD@Z 1001c6d6 f i libucrt:output.obj
 0001:0001b70b       ??$?0ABV?$string_output_adapter@_W@__crt_stdio_output@@AB_KABQB_WABQAU__crt_locale_pointers@@ABQAD@?$format_validation_base@_WV?$string_output_adapter@_W@__crt_stdio_output@@@__crt_stdio_output@@IAE@ABV?$string_output_adapter@_W@1@AB_KABQB_WABQAU__crt_locale_pointers@@ABQAD@Z 1001c70b f i libucrt:output.obj
 0001:0001b72e       ??$?0ABV?$string_output_adapter@_W@__crt_stdio_output@@AB_KABQB_WABQAU__crt_locale_pointers@@ABQAD@?$positional_parameter_base@_WV?$string_output_adapter@_W@__crt_stdio_output@@@__crt_stdio_output@@IAE@ABV?$string_output_adapter@_W@1@AB_KABQB_WABQAU__crt_locale_pointers@@ABQAD@Z 1001c72e f i libucrt:output.obj
 0001:0001b776       ??$?0ABV?$string_output_adapter@_W@__crt_stdio_output@@AB_KABQB_WABQAU__crt_locale_pointers@@ABQAD@?$standard_base@_WV?$string_output_adapter@_W@__crt_stdio_output@@@__crt_stdio_output@@IAE@ABV?$string_output_adapter@_W@1@AB_KABQB_WABQAU__crt_locale_pointers@@ABQAD@Z 1001c776 f i libucrt:output.obj
 0001:0001ba81       ??$__crt_interlocked_read@J@@YAJPDJ@Z 1001ca81 f i libucrt:output.obj
 0001:0001c940       ??$count@D@formatting_buffer@__crt_stdio_output@@QBEIXZ 1001d940 f i libucrt:output.obj
 0001:0001c958       ??$count@_W@formatting_buffer@__crt_stdio_output@@QBEIXZ 1001d958 f i libucrt:output.obj
 0001:0001c971       ??$data@D@formatting_buffer@__crt_stdio_output@@QAEPADXZ 1001d971 f i libucrt:output.obj
 0001:0001c97e       ??$data@_W@formatting_buffer@__crt_stdio_output@@QAEPA_WXZ 1001d97e f i libucrt:output.obj
 0001:0001c98b       ??$ensure_buffer_is_big_enough@D@formatting_buffer@__crt_stdio_output@@QAE_NI@Z 1001d98b f i libucrt:output.obj
 0001:0001ca0a       ??$ensure_buffer_is_big_enough@_W@formatting_buffer@__crt_stdio_output@@QAE_NI@Z 1001da0a f i libucrt:output.obj
 0001:0001ca8a       ??$extract_argument_from_va_list@C_J@?$positional_parameter_base@DV?$stream_output_adapter@D@__crt_stdio_output@@@__crt_stdio_output@@IAE_NAA_J@Z 1001da8a f i libucrt:output.obj
 0001:0001cb03       ??$extract_argument_from_va_list@C_J@?$positional_parameter_base@DV?$string_output_adapter@D@__crt_stdio_output@@@__crt_stdio_output@@IAE_NAA_J@Z 1001db03 f i libucrt:output.obj
 0001:0001cb7c       ??$extract_argument_from_va_list@C_J@?$positional_parameter_base@_WV?$stream_output_adapter@_W@__crt_stdio_output@@@__crt_stdio_output@@IAE_NAA_J@Z 1001db7c f i libucrt:output.obj
 0001:0001cbf5       ??$extract_argument_from_va_list@C_J@?$positional_parameter_base@_WV?$string_output_adapter@_W@__crt_stdio_output@@@__crt_stdio_output@@IAE_NAA_J@Z 1001dbf5 f i libucrt:output.obj
 0001:0001cc6e       ??$extract_argument_from_va_list@C_J@?$standard_base@DV?$stream_output_adapter@D@__crt_stdio_output@@@__crt_stdio_output@@IAE_NAA_J@Z 1001dc6e f i libucrt:output.obj
 0001:0001cc8d       ??$extract_argument_from_va_list@C_J@?$standard_base@DV?$string_output_adapter@D@__crt_stdio_output@@@__crt_stdio_output@@IAE_NAA_J@Z 1001dc8d f i libucrt:output.obj
 0001:0001ccac       ??$extract_argument_from_va_list@C_J@?$standard_base@_WV?$stream_output_adapter@_W@__crt_stdio_output@@@__crt_stdio_output@@IAE_NAA_J@Z 1001dcac f i libucrt:output.obj
 0001:0001cccb       ??$extract_argument_from_va_list@C_J@?$standard_base@_WV?$string_output_adapter@_W@__crt_stdio_output@@@__crt_stdio_output@@IAE_NAA_J@Z 1001dccb f i libucrt:output.obj
 0001:0001ccea       ??$extract_argument_from_va_list@E_J@?$positional_parameter_base@DV?$stream_output_adapter@D@__crt_stdio_output@@@__crt_stdio_output@@IAE_NAA_J@Z 1001dcea f i libucrt:output.obj
 0001:0001cd63       ??$extract_argument_from_va_list@E_J@?$positional_parameter_base@DV?$string_output_adapter@D@__crt_stdio_output@@@__crt_stdio_output@@IAE_NAA_J@Z 1001dd63 f i libucrt:output.obj
 0001:0001cddc       ??$extract_argument_from_va_list@E_J@?$positional_parameter_base@_WV?$stream_output_adapter@_W@__crt_stdio_output@@@__crt_stdio_output@@IAE_NAA_J@Z 1001dddc f i libucrt:output.obj
 0001:0001ce55       ??$extract_argument_from_va_list@E_J@?$positional_parameter_base@_WV?$string_output_adapter@_W@__crt_stdio_output@@@__crt_stdio_output@@IAE_NAA_J@Z 1001de55 f i libucrt:output.obj
 0001:0001cece       ??$extract_argument_from_va_list@E_J@?$standard_base@DV?$stream_output_adapter@D@__crt_stdio_output@@@__crt_stdio_output@@IAE_NAA_J@Z 1001dece f i libucrt:output.obj
 0001:0001ceed       ??$extract_argument_from_va_list@E_J@?$standard_base@DV?$string_output_adapter@D@__crt_stdio_output@@@__crt_stdio_output@@IAE_NAA_J@Z 1001deed f i libucrt:output.obj
 0001:0001cf0c       ??$extract_argument_from_va_list@E_J@?$standard_base@_WV?$stream_output_adapter@_W@__crt_stdio_output@@@__crt_stdio_output@@IAE_NAA_J@Z 1001df0c f i libucrt:output.obj
 0001:0001cf2b       ??$extract_argument_from_va_list@E_J@?$standard_base@_WV?$string_output_adapter@_W@__crt_stdio_output@@@__crt_stdio_output@@IAE_NAA_J@Z 1001df2b f i libucrt:output.obj
 0001:0001cf4a       ??$extract_argument_from_va_list@F_J@?$positional_parameter_base@DV?$stream_output_adapter@D@__crt_stdio_output@@@__crt_stdio_output@@IAE_NAA_J@Z 1001df4a f i libucrt:output.obj
 0001:0001cfc3       ??$extract_argument_from_va_list@F_J@?$positional_parameter_base@DV?$string_output_adapter@D@__crt_stdio_output@@@__crt_stdio_output@@IAE_NAA_J@Z 1001dfc3 f i libucrt:output.obj
 0001:0001d03c       ??$extract_argument_from_va_list@F_J@?$positional_parameter_base@_WV?$stream_output_adapter@_W@__crt_stdio_output@@@__crt_stdio_output@@IAE_NAA_J@Z 1001e03c f i libucrt:output.obj
 0001:0001d0b5       ??$extract_argument_from_va_list@F_J@?$positional_parameter_base@_WV?$string_output_adapter@_W@__crt_stdio_output@@@__crt_stdio_output@@IAE_NAA_J@Z 1001e0b5 f i libucrt:output.obj
 0001:0001d12e       ??$extract_argument_from_va_list@F_J@?$standard_base@DV?$stream_output_adapter@D@__crt_stdio_output@@@__crt_stdio_output@@IAE_NAA_J@Z 1001e12e f i libucrt:output.obj
 0001:0001d14d       ??$extract_argument_from_va_list@F_J@?$standard_base@DV?$string_output_adapter@D@__crt_stdio_output@@@__crt_stdio_output@@IAE_NAA_J@Z 1001e14d f i libucrt:output.obj
 0001:0001d16c       ??$extract_argument_from_va_list@F_J@?$standard_base@_WV?$stream_output_adapter@_W@__crt_stdio_output@@@__crt_stdio_output@@IAE_NAA_J@Z 1001e16c f i libucrt:output.obj
 0001:0001d18b       ??$extract_argument_from_va_list@F_J@?$standard_base@_WV?$string_output_adapter@_W@__crt_stdio_output@@@__crt_stdio_output@@IAE_NAA_J@Z 1001e18b f i libucrt:output.obj
 0001:0001d1aa       ??$extract_argument_from_va_list@GD@?$positional_parameter_base@DV?$stream_output_adapter@D@__crt_stdio_output@@@__crt_stdio_output@@IAE_NAAD@Z 1001e1aa f i libucrt:output.obj
 0001:0001d222       ??$extract_argument_from_va_list@GD@?$positional_parameter_base@DV?$string_output_adapter@D@__crt_stdio_output@@@__crt_stdio_output@@IAE_NAAD@Z 1001e222 f i libucrt:output.obj
 0001:0001d29a       ??$extract_argument_from_va_list@GD@?$standard_base@DV?$stream_output_adapter@D@__crt_stdio_output@@@__crt_stdio_output@@IAE_NAAD@Z 1001e29a f i libucrt:output.obj
 0001:0001d2b4       ??$extract_argument_from_va_list@GD@?$standard_base@DV?$string_output_adapter@D@__crt_stdio_output@@@__crt_stdio_output@@IAE_NAAD@Z 1001e2b4 f i libucrt:output.obj
 0001:0001d2ce       ??$extract_argument_from_va_list@G_J@?$positional_parameter_base@DV?$stream_output_adapter@D@__crt_stdio_output@@@__crt_stdio_output@@IAE_NAA_J@Z 1001e2ce f i libucrt:output.obj
 0001:0001d347       ??$extract_argument_from_va_list@G_J@?$positional_parameter_base@DV?$string_output_adapter@D@__crt_stdio_output@@@__crt_stdio_output@@IAE_NAA_J@Z 1001e347 f i libucrt:output.obj
 0001:0001d3c0       ??$extract_argument_from_va_list@G_J@?$positional_parameter_base@_WV?$stream_output_adapter@_W@__crt_stdio_output@@@__crt_stdio_output@@IAE_NAA_J@Z 1001e3c0 f i libucrt:output.obj
 0001:0001d439       ??$extract_argument_from_va_list@G_J@?$positional_parameter_base@_WV?$string_output_adapter@_W@__crt_stdio_output@@@__crt_stdio_output@@IAE_NAA_J@Z 1001e439 f i libucrt:output.obj
 0001:0001d4b2       ??$extract_argument_from_va_list@G_J@?$standard_base@DV?$stream_output_adapter@D@__crt_stdio_output@@@__crt_stdio_output@@IAE_NAA_J@Z 1001e4b2 f i libucrt:output.obj
 0001:0001d4d1       ??$extract_argument_from_va_list@G_J@?$standard_base@DV?$string_output_adapter@D@__crt_stdio_output@@@__crt_stdio_output@@IAE_NAA_J@Z 1001e4d1 f i libucrt:output.obj
 0001:0001d4f0       ??$extract_argument_from_va_list@G_J@?$standard_base@_WV?$stream_output_adapter@_W@__crt_stdio_output@@@__crt_stdio_output@@IAE_NAA_J@Z 1001e4f0 f i libucrt:output.obj
 0001:0001d50f       ??$extract_argument_from_va_list@G_J@?$standard_base@_WV?$string_output_adapter@_W@__crt_stdio_output@@@__crt_stdio_output@@IAE_NAA_J@Z 1001e50f f i libucrt:output.obj
 0001:0001d52e       ??$extract_argument_from_va_list@H_J@?$positional_parameter_base@DV?$stream_output_adapter@D@__crt_stdio_output@@@__crt_stdio_output@@IAE_NAA_J@Z 1001e52e f i libucrt:output.obj
 0001:0001d5a5       ??$extract_argument_from_va_list@H_J@?$positional_parameter_base@DV?$string_output_adapter@D@__crt_stdio_output@@@__crt_stdio_output@@IAE_NAA_J@Z 1001e5a5 f i libucrt:output.obj
 0001:0001d61c       ??$extract_argument_from_va_list@H_J@?$positional_parameter_base@_WV?$stream_output_adapter@_W@__crt_stdio_output@@@__crt_stdio_output@@IAE_NAA_J@Z 1001e61c f i libucrt:output.obj
 0001:0001d693       ??$extract_argument_from_va_list@H_J@?$positional_parameter_base@_WV?$string_output_adapter@_W@__crt_stdio_output@@@__crt_stdio_output@@IAE_NAA_J@Z 1001e693 f i libucrt:output.obj
 0001:0001d70a       ??$extract_argument_from_va_list@H_J@?$standard_base@DV?$stream_output_adapter@D@__crt_stdio_output@@@__crt_stdio_output@@IAE_NAA_J@Z 1001e70a f i libucrt:output.obj
 0001:0001d728       ??$extract_argument_from_va_list@H_J@?$standard_base@DV?$string_output_adapter@D@__crt_stdio_output@@@__crt_stdio_output@@IAE_NAA_J@Z 1001e728 f i libucrt:output.obj
 0001:0001d746       ??$extract_argument_from_va_list@H_J@?$standard_base@_WV?$stream_output_adapter@_W@__crt_stdio_output@@@__crt_stdio_output@@IAE_NAA_J@Z 1001e746 f i libucrt:output.obj
 0001:0001d764       ??$extract_argument_from_va_list@H_J@?$standard_base@_WV?$string_output_adapter@_W@__crt_stdio_output@@@__crt_stdio_output@@IAE_NAA_J@Z 1001e764 f i libucrt:output.obj
 0001:0001d782       ??$extract_argument_from_va_list@I_J@?$positional_parameter_base@DV?$stream_output_adapter@D@__crt_stdio_output@@@__crt_stdio_output@@IAE_NAA_J@Z 1001e782 f i libucrt:output.obj
 0001:0001d802       ??$extract_argument_from_va_list@I_J@?$positional_parameter_base@DV?$string_output_adapter@D@__crt_stdio_output@@@__crt_stdio_output@@IAE_NAA_J@Z 1001e802 f i libucrt:output.obj
 0001:0001d882       ??$extract_argument_from_va_list@I_J@?$positional_parameter_base@_WV?$stream_output_adapter@_W@__crt_stdio_output@@@__crt_stdio_output@@IAE_NAA_J@Z 1001e882 f i libucrt:output.obj
 0001:0001d902       ??$extract_argument_from_va_list@I_J@?$positional_parameter_base@_WV?$string_output_adapter@_W@__crt_stdio_output@@@__crt_stdio_output@@IAE_NAA_J@Z 1001e902 f i libucrt:output.obj
 0001:0001d982       ??$extract_argument_from_va_list@I_J@?$standard_base@DV?$stream_output_adapter@D@__crt_stdio_output@@@__crt_stdio_output@@IAE_NAA_J@Z 1001e982 f i libucrt:output.obj
 0001:0001d9a0       ??$extract_argument_from_va_list@I_J@?$standard_base@DV?$string_output_adapter@D@__crt_stdio_output@@@__crt_stdio_output@@IAE_NAA_J@Z 1001e9a0 f i libucrt:output.obj
 0001:0001d9be       ??$extract_argument_from_va_list@I_J@?$standard_base@_WV?$stream_output_adapter@_W@__crt_stdio_output@@@__crt_stdio_output@@IAE_NAA_J@Z 1001e9be f i libucrt:output.obj
 0001:0001d9dc       ??$extract_argument_from_va_list@I_J@?$standard_base@_WV?$string_output_adapter@_W@__crt_stdio_output@@@__crt_stdio_output@@IAE_NAA_J@Z 1001e9dc f i libucrt:output.obj
 0001:0001d9fa       ??$extract_argument_from_va_list@PADPAD@?$positional_parameter_base@DV?$stream_output_adapter@D@__crt_stdio_output@@@__crt_stdio_output@@IAE_NAAPAD@Z 1001e9fa f i libucrt:output.obj
 0001:0001da72       ??$extract_argument_from_va_list@PADPAD@?$positional_parameter_base@DV?$string_output_adapter@D@__crt_stdio_output@@@__crt_stdio_output@@IAE_NAAPAD@Z 1001ea72 f i libucrt:output.obj
 0001:0001daea       ??$extract_argument_from_va_list@PADPAD@?$positional_parameter_base@_WV?$stream_output_adapter@_W@__crt_stdio_output@@@__crt_stdio_output@@IAE_NAAPAD@Z 1001eaea f i libucrt:output.obj
 0001:0001db62       ??$extract_argument_from_va_list@PADPAD@?$positional_parameter_base@_WV?$string_output_adapter@_W@__crt_stdio_output@@@__crt_stdio_output@@IAE_NAAPAD@Z 1001eb62 f i libucrt:output.obj
 0001:0001dbda       ??$extract_argument_from_va_list@PADPAD@?$standard_base@DV?$stream_output_adapter@D@__crt_stdio_output@@@__crt_stdio_output@@IAE_NAAPAD@Z 1001ebda f i libucrt:output.obj
 0001:0001dbf4       ??$extract_argument_from_va_list@PADPAD@?$standard_base@DV?$string_output_adapter@D@__crt_stdio_output@@@__crt_stdio_output@@IAE_NAAPAD@Z 1001ebf4 f i libucrt:output.obj
 0001:0001dc0e       ??$extract_argument_from_va_list@PADPAD@?$standard_base@_WV?$stream_output_adapter@_W@__crt_stdio_output@@@__crt_stdio_output@@IAE_NAAPAD@Z 1001ec0e f i libucrt:output.obj
 0001:0001dc28       ??$extract_argument_from_va_list@PADPAD@?$standard_base@_WV?$string_output_adapter@_W@__crt_stdio_output@@@__crt_stdio_output@@IAE_NAAPAD@Z 1001ec28 f i libucrt:output.obj
 0001:0001df5a       ??$extract_argument_from_va_list@PAXPAX@?$positional_parameter_base@DV?$stream_output_adapter@D@__crt_stdio_output@@@__crt_stdio_output@@IAE_NAAPAX@Z 1001ef5a f i libucrt:output.obj
 0001:0001dfd2       ??$extract_argument_from_va_list@PAXPAX@?$positional_parameter_base@DV?$string_output_adapter@D@__crt_stdio_output@@@__crt_stdio_output@@IAE_NAAPAX@Z 1001efd2 f i libucrt:output.obj
 0001:0001e04a       ??$extract_argument_from_va_list@PAXPAX@?$positional_parameter_base@_WV?$stream_output_adapter@_W@__crt_stdio_output@@@__crt_stdio_output@@IAE_NAAPAX@Z 1001f04a f i libucrt:output.obj
 0001:0001e0c2       ??$extract_argument_from_va_list@PAXPAX@?$positional_parameter_base@_WV?$string_output_adapter@_W@__crt_stdio_output@@@__crt_stdio_output@@IAE_NAAPAX@Z 1001f0c2 f i libucrt:output.obj
 0001:0001e13a       ??$extract_argument_from_va_list@PAXPAX@?$standard_base@DV?$stream_output_adapter@D@__crt_stdio_output@@@__crt_stdio_output@@IAE_NAAPAX@Z 1001f13a f i libucrt:output.obj
 0001:0001e154       ??$extract_argument_from_va_list@PAXPAX@?$standard_base@DV?$string_output_adapter@D@__crt_stdio_output@@@__crt_stdio_output@@IAE_NAAPAX@Z 1001f154 f i libucrt:output.obj
 0001:0001e16e       ??$extract_argument_from_va_list@PAXPAX@?$standard_base@_WV?$stream_output_adapter@_W@__crt_stdio_output@@@__crt_stdio_output@@IAE_NAAPAX@Z 1001f16e f i libucrt:output.obj
 0001:0001e188       ??$extract_argument_from_va_list@PAXPAX@?$standard_base@_WV?$string_output_adapter@_W@__crt_stdio_output@@@__crt_stdio_output@@IAE_NAAPAX@Z 1001f188 f i libucrt:output.obj
 0001:0001e1a2       ??$extract_argument_from_va_list@U_CRT_DOUBLE@@U1@@?$positional_parameter_base@DV?$stream_output_adapter@D@__crt_stdio_output@@@__crt_stdio_output@@IAE_NAAU_CRT_DOUBLE@@@Z 1001f1a2 f i libucrt:output.obj
 0001:0001e228       ??$extract_argument_from_va_list@U_CRT_DOUBLE@@U1@@?$positional_parameter_base@DV?$string_output_adapter@D@__crt_stdio_output@@@__crt_stdio_output@@IAE_NAAU_CRT_DOUBLE@@@Z 1001f228 f i libucrt:output.obj
 0001:0001e2ae       ??$extract_argument_from_va_list@U_CRT_DOUBLE@@U1@@?$positional_parameter_base@_WV?$stream_output_adapter@_W@__crt_stdio_output@@@__crt_stdio_output@@IAE_NAAU_CRT_DOUBLE@@@Z 1001f2ae f i libucrt:output.obj
 0001:0001e334       ??$extract_argument_from_va_list@U_CRT_DOUBLE@@U1@@?$positional_parameter_base@_WV?$string_output_adapter@_W@__crt_stdio_output@@@__crt_stdio_output@@IAE_NAAU_CRT_DOUBLE@@@Z 1001f334 f i libucrt:output.obj
 0001:0001e3ba       ??$extract_argument_from_va_list@U_CRT_DOUBLE@@U1@@?$standard_base@DV?$stream_output_adapter@D@__crt_stdio_output@@@__crt_stdio_output@@IAE_NAAU_CRT_DOUBLE@@@Z 1001f3ba f i libucrt:output.obj
 0001:0001e3da       ??$extract_argument_from_va_list@U_CRT_DOUBLE@@U1@@?$standard_base@DV?$string_output_adapter@D@__crt_stdio_output@@@__crt_stdio_output@@IAE_NAAU_CRT_DOUBLE@@@Z 1001f3da f i libucrt:output.obj
 0001:0001e3fa       ??$extract_argument_from_va_list@U_CRT_DOUBLE@@U1@@?$standard_base@_WV?$stream_output_adapter@_W@__crt_stdio_output@@@__crt_stdio_output@@IAE_NAAU_CRT_DOUBLE@@@Z 1001f3fa f i libucrt:output.obj
 0001:0001e41a       ??$extract_argument_from_va_list@U_CRT_DOUBLE@@U1@@?$standard_base@_WV?$string_output_adapter@_W@__crt_stdio_output@@@__crt_stdio_output@@IAE_NAAU_CRT_DOUBLE@@@Z 1001f41a f i libucrt:output.obj
 0001:0001e43a       ??$extract_argument_from_va_list@_J_J@?$positional_parameter_base@DV?$stream_output_adapter@D@__crt_stdio_output@@@__crt_stdio_output@@IAE_NAA_J@Z 1001f43a f i libucrt:output.obj
 0001:0001e4c0       ??$extract_argument_from_va_list@_J_J@?$positional_parameter_base@DV?$string_output_adapter@D@__crt_stdio_output@@@__crt_stdio_output@@IAE_NAA_J@Z 1001f4c0 f i libucrt:output.obj
 0001:0001e546       ??$extract_argument_from_va_list@_J_J@?$positional_parameter_base@_WV?$stream_output_adapter@_W@__crt_stdio_output@@@__crt_stdio_output@@IAE_NAA_J@Z 1001f546 f i libucrt:output.obj
 0001:0001e5cc       ??$extract_argument_from_va_list@_J_J@?$positional_parameter_base@_WV?$string_output_adapter@_W@__crt_stdio_output@@@__crt_stdio_output@@IAE_NAA_J@Z 1001f5cc f i libucrt:output.obj
 0001:0001e652       ??$extract_argument_from_va_list@_J_J@?$standard_base@DV?$stream_output_adapter@D@__crt_stdio_output@@@__crt_stdio_output@@IAE_NAA_J@Z 1001f652 f i libucrt:output.obj
 0001:0001e672       ??$extract_argument_from_va_list@_J_J@?$standard_base@DV?$string_output_adapter@D@__crt_stdio_output@@@__crt_stdio_output@@IAE_NAA_J@Z 1001f672 f i libucrt:output.obj
 0001:0001e692       ??$extract_argument_from_va_list@_J_J@?$standard_base@_WV?$stream_output_adapter@_W@__crt_stdio_output@@@__crt_stdio_output@@IAE_NAA_J@Z 1001f692 f i libucrt:output.obj
 0001:0001e6b2       ??$extract_argument_from_va_list@_J_J@?$standard_base@_WV?$string_output_adapter@_W@__crt_stdio_output@@@__crt_stdio_output@@IAE_NAA_J@Z 1001f6b2 f i libucrt:output.obj
 0001:0001e6d2       ??$extract_argument_from_va_list@_K_J@?$positional_parameter_base@DV?$stream_output_adapter@D@__crt_stdio_output@@@__crt_stdio_output@@IAE_NAA_J@Z 1001f6d2 f i libucrt:output.obj
 0001:0001e758       ??$extract_argument_from_va_list@_K_J@?$positional_parameter_base@DV?$string_output_adapter@D@__crt_stdio_output@@@__crt_stdio_output@@IAE_NAA_J@Z 1001f758 f i libucrt:output.obj
 0001:0001e7de       ??$extract_argument_from_va_list@_K_J@?$positional_parameter_base@_WV?$stream_output_adapter@_W@__crt_stdio_output@@@__crt_stdio_output@@IAE_NAA_J@Z 1001f7de f i libucrt:output.obj
 0001:0001e864       ??$extract_argument_from_va_list@_K_J@?$positional_parameter_base@_WV?$string_output_adapter@_W@__crt_stdio_output@@@__crt_stdio_output@@IAE_NAA_J@Z 1001f864 f i libucrt:output.obj
 0001:0001e8ea       ??$extract_argument_from_va_list@_K_J@?$standard_base@DV?$stream_output_adapter@D@__crt_stdio_output@@@__crt_stdio_output@@IAE_NAA_J@Z 1001f8ea f i libucrt:output.obj
 0001:0001e90a       ??$extract_argument_from_va_list@_K_J@?$standard_base@DV?$string_output_adapter@D@__crt_stdio_output@@@__crt_stdio_output@@IAE_NAA_J@Z 1001f90a f i libucrt:output.obj
 0001:0001e92a       ??$extract_argument_from_va_list@_K_J@?$standard_base@_WV?$stream_output_adapter@_W@__crt_stdio_output@@@__crt_stdio_output@@IAE_NAA_J@Z 1001f92a f i libucrt:output.obj
 0001:0001e94a       ??$extract_argument_from_va_list@_K_J@?$standard_base@_WV?$string_output_adapter@_W@__crt_stdio_output@@@__crt_stdio_output@@IAE_NAA_J@Z 1001f94a f i libucrt:output.obj
 0001:0001e96a       ??$extract_argument_from_va_list@_W_W@?$positional_parameter_base@DV?$stream_output_adapter@D@__crt_stdio_output@@@__crt_stdio_output@@IAE_NAA_W@Z 1001f96a f i libucrt:output.obj
 0001:0001e9e6       ??$extract_argument_from_va_list@_W_W@?$positional_parameter_base@DV?$string_output_adapter@D@__crt_stdio_output@@@__crt_stdio_output@@IAE_NAA_W@Z 1001f9e6 f i libucrt:output.obj
 0001:0001ea62       ??$extract_argument_from_va_list@_W_W@?$positional_parameter_base@_WV?$stream_output_adapter@_W@__crt_stdio_output@@@__crt_stdio_output@@IAE_NAA_W@Z 1001fa62 f i libucrt:output.obj
 0001:0001eade       ??$extract_argument_from_va_list@_W_W@?$positional_parameter_base@_WV?$string_output_adapter@_W@__crt_stdio_output@@@__crt_stdio_output@@IAE_NAA_W@Z 1001fade f i libucrt:output.obj
 0001:0001eb5a       ??$extract_argument_from_va_list@_W_W@?$standard_base@DV?$stream_output_adapter@D@__crt_stdio_output@@@__crt_stdio_output@@IAE_NAA_W@Z 1001fb5a f i libucrt:output.obj
 0001:0001eb76       ??$extract_argument_from_va_list@_W_W@?$standard_base@DV?$string_output_adapter@D@__crt_stdio_output@@@__crt_stdio_output@@IAE_NAA_W@Z 1001fb76 f i libucrt:output.obj
 0001:0001eb92       ??$extract_argument_from_va_list@_W_W@?$standard_base@_WV?$stream_output_adapter@_W@__crt_stdio_output@@@__crt_stdio_output@@IAE_NAA_W@Z 1001fb92 f i libucrt:output.obj
 0001:0001ebae       ??$extract_argument_from_va_list@_W_W@?$standard_base@_WV?$string_output_adapter@_W@__crt_stdio_output@@@__crt_stdio_output@@IAE_NAA_W@Z 1001fbae f i libucrt:output.obj
 0001:0001ebca       ??$get_parameter_type@D@?$positional_parameter_base@DV?$stream_output_adapter@D@__crt_stdio_output@@@__crt_stdio_output@@CA?AW4parameter_type@01@PAD@Z 1001fbca f i libucrt:output.obj
 0001:0001ebce       ??$get_parameter_type@D@?$positional_parameter_base@DV?$string_output_adapter@D@__crt_stdio_output@@@__crt_stdio_output@@CA?AW4parameter_type@01@PAD@Z 1001fbce f i libucrt:output.obj
 0001:0001ebd2       ??$get_parameter_type@D@?$positional_parameter_base@_WV?$stream_output_adapter@_W@__crt_stdio_output@@@__crt_stdio_output@@CA?AW4parameter_type@01@PAD@Z 1001fbd2 f i libucrt:output.obj
 0001:0001ebd6       ??$get_parameter_type@D@?$positional_parameter_base@_WV?$string_output_adapter@_W@__crt_stdio_output@@@__crt_stdio_output@@CA?AW4parameter_type@01@PAD@Z 1001fbd6 f i libucrt:output.obj
 0001:0001ebea       ??$get_parameter_type@X@?$positional_parameter_base@DV?$stream_output_adapter@D@__crt_stdio_output@@@__crt_stdio_output@@CA?AW4parameter_type@01@PAX@Z 1001fbea f i libucrt:output.obj
 0001:0001ebee       ??$get_parameter_type@X@?$positional_parameter_base@DV?$string_output_adapter@D@__crt_stdio_output@@@__crt_stdio_output@@CA?AW4parameter_type@01@PAX@Z 1001fbee f i libucrt:output.obj
 0001:0001ebf2       ??$get_parameter_type@X@?$positional_parameter_base@_WV?$stream_output_adapter@_W@__crt_stdio_output@@@__crt_stdio_output@@CA?AW4parameter_type@01@PAX@Z 1001fbf2 f i libucrt:output.obj
 0001:0001ebf6       ??$get_parameter_type@X@?$positional_parameter_base@_WV?$string_output_adapter@_W@__crt_stdio_output@@@__crt_stdio_output@@CA?AW4parameter_type@01@PAX@Z 1001fbf6 f i libucrt:output.obj
 0001:0001ebfa       ??$is_character_specifier@D@?$positional_parameter_base@DV?$stream_output_adapter@D@__crt_stdio_output@@@__crt_stdio_output@@CA_ND@Z 1001fbfa f i libucrt:output.obj
 0001:0001ec12       ??$is_character_specifier@D@?$positional_parameter_base@DV?$string_output_adapter@D@__crt_stdio_output@@@__crt_stdio_output@@CA_ND@Z 1001fc12 f i libucrt:output.obj
 0001:0001ec2a       ??$is_character_specifier@_W@?$positional_parameter_base@_WV?$stream_output_adapter@_W@__crt_stdio_output@@@__crt_stdio_output@@CA_N_W@Z 1001fc2a f i libucrt:output.obj
 0001:0001ec45       ??$is_character_specifier@_W@?$positional_parameter_base@_WV?$string_output_adapter@_W@__crt_stdio_output@@@__crt_stdio_output@@CA_N_W@Z 1001fc45 f i libucrt:output.obj
 0001:0001ec60       ??$is_integral_specifier@D@?$positional_parameter_base@DV?$stream_output_adapter@D@__crt_stdio_output@@@__crt_stdio_output@@CA_ND@Z 1001fc60 f i libucrt:output.obj
 0001:0001ec8c       ??$is_integral_specifier@D@?$positional_parameter_base@DV?$string_output_adapter@D@__crt_stdio_output@@@__crt_stdio_output@@CA_ND@Z 1001fc8c f i libucrt:output.obj
 0001:0001ecb8       ??$is_integral_specifier@_W@?$positional_parameter_base@_WV?$stream_output_adapter@_W@__crt_stdio_output@@@__crt_stdio_output@@CA_N_W@Z 1001fcb8 f i libucrt:output.obj
 0001:0001ecf3       ??$is_integral_specifier@_W@?$positional_parameter_base@_WV?$string_output_adapter@_W@__crt_stdio_output@@@__crt_stdio_output@@CA_N_W@Z 1001fcf3 f i libucrt:output.obj
 0001:0001ed2e       ??$is_pointer_specifier@D@?$positional_parameter_base@DV?$stream_output_adapter@D@__crt_stdio_output@@@__crt_stdio_output@@CA_ND@Z 1001fd2e f i libucrt:output.obj
 0001:0001ed3c       ??$is_pointer_specifier@D@?$positional_parameter_base@DV?$string_output_adapter@D@__crt_stdio_output@@@__crt_stdio_output@@CA_ND@Z 1001fd3c f i libucrt:output.obj
 0001:0001ed4a       ??$is_pointer_specifier@_W@?$positional_parameter_base@_WV?$stream_output_adapter@_W@__crt_stdio_output@@@__crt_stdio_output@@CA_N_W@Z 1001fd4a f i libucrt:output.obj
 0001:0001ed59       ??$is_pointer_specifier@_W@?$positional_parameter_base@_WV?$string_output_adapter@_W@__crt_stdio_output@@@__crt_stdio_output@@CA_N_W@Z 1001fd59 f i libucrt:output.obj
 0001:0001ed68       ??$is_string_specifier@D@?$positional_parameter_base@DV?$stream_output_adapter@D@__crt_stdio_output@@@__crt_stdio_output@@CA_ND@Z 1001fd68 f i libucrt:output.obj
 0001:0001ed80       ??$is_string_specifier@D@?$positional_parameter_base@DV?$string_output_adapter@D@__crt_stdio_output@@@__crt_stdio_output@@CA_ND@Z 1001fd80 f i libucrt:output.obj
 0001:0001ed98       ??$is_string_specifier@_W@?$positional_parameter_base@_WV?$stream_output_adapter@_W@__crt_stdio_output@@@__crt_stdio_output@@CA_N_W@Z 1001fd98 f i libucrt:output.obj
 0001:0001edb3       ??$is_string_specifier@_W@?$positional_parameter_base@_WV?$string_output_adapter@_W@__crt_stdio_output@@@__crt_stdio_output@@CA_N_W@Z 1001fdb3 f i libucrt:output.obj
 0001:0001edce       ??$is_wide_character_specifier@D@__crt_stdio_output@@YA_N_KDW4length_modifier@0@@Z 1001fdce f i libucrt:output.obj
 0001:0001edff       ??$is_wide_character_specifier@_W@__crt_stdio_output@@YA_N_K_WW4length_modifier@0@@Z 1001fdff f i libucrt:output.obj
 0001:0001ee4d       ??$peek_va_arg@C@__crt_stdio_output@@YACPAD@Z 1001fe4d f i libucrt:output.obj
 0001:0001ee59       ??$peek_va_arg@E@__crt_stdio_output@@YAEPAD@Z 1001fe59 f i libucrt:output.obj
 0001:0001ee65       ??$peek_va_arg@F@__crt_stdio_output@@YAFPAD@Z 1001fe65 f i libucrt:output.obj
 0001:0001ee72       ??$peek_va_arg@G@__crt_stdio_output@@YAGPAD@Z 1001fe72 f i libucrt:output.obj
 0001:0001ee7f       ??$peek_va_arg@H@__crt_stdio_output@@YAHPAD@Z 1001fe7f f i libucrt:output.obj
 0001:0001ee8b       ??$peek_va_arg@I@__crt_stdio_output@@YAIPAD@Z 1001fe8b f i libucrt:output.obj
 0001:0001ee97       ??$peek_va_arg@PAD@__crt_stdio_output@@YAPADPAD@Z 1001fe97 f i libucrt:output.obj
 0001:0001eed3       ??$peek_va_arg@PAX@__crt_stdio_output@@YAPAXPAD@Z 1001fed3 f i libucrt:output.obj
 0001:0001eedf       ??$peek_va_arg@U_CRT_DOUBLE@@@__crt_stdio_output@@YA?AU_CRT_DOUBLE@@PAD@Z 1001fedf f i libucrt:output.obj
 0001:0001eeee       ??$peek_va_arg@_J@__crt_stdio_output@@YA_JPAD@Z 1001feee f i libucrt:output.obj
 0001:0001eefd       ??$peek_va_arg@_K@__crt_stdio_output@@YA_KPAD@Z 1001fefd f i libucrt:output.obj
 0001:0001ef0c       ??$peek_va_arg@_W@__crt_stdio_output@@YA_WPAD@Z 1001ff0c f i libucrt:output.obj
 0001:0001ef19       ??$puttc_nolock@ABDPAU_iobuf@@@?$__crt_char_traits@D@@SAHABD$$QAPAU_iobuf@@@Z 1001ff19 f i libucrt:output.obj
 0001:0001ef33       ??$puttc_nolock@AB_WPAU_iobuf@@@?$__crt_char_traits@_W@@SAGAB_W$$QAPAU_iobuf@@@Z 1001ff33 f i libucrt:output.obj
 0001:0001ef4d       ??$read_va_arg@C@__crt_stdio_output@@YACAAPAD@Z 1001ff4d f i libucrt:output.obj
 0001:0001ef5f       ??$read_va_arg@E@__crt_stdio_output@@YAEAAPAD@Z 1001ff5f f i libucrt:output.obj
 0001:0001ef71       ??$read_va_arg@F@__crt_stdio_output@@YAFAAPAD@Z 1001ff71 f i libucrt:output.obj
 0001:0001ef84       ??$read_va_arg@G@__crt_stdio_output@@YAGAAPAD@Z 1001ff84 f i libucrt:output.obj
 0001:0001ef97       ??$read_va_arg@H@__crt_stdio_output@@YAHAAPAD@Z 1001ff97 f i libucrt:output.obj
 0001:0001efa9       ??$read_va_arg@I@__crt_stdio_output@@YAIAAPAD@Z 1001ffa9 f i libucrt:output.obj
 0001:0001efbb       ??$read_va_arg@PAD@__crt_stdio_output@@YAPADAAPAD@Z 1001ffbb f i libucrt:output.obj
 0001:0001f0a5       ??$read_va_arg@PAX@__crt_stdio_output@@YAPAXAAPAD@Z 100200a5 f i libucrt:output.obj
 0001:0001f0b7       ??$read_va_arg@U_CRT_DOUBLE@@@__crt_stdio_output@@YA?AU_CRT_DOUBLE@@AAPAD@Z 100200b7 f i libucrt:output.obj
 0001:0001f0cd       ??$read_va_arg@_J@__crt_stdio_output@@YA_JAAPAD@Z 100200cd f i libucrt:output.obj
 0001:0001f0e2       ??$read_va_arg@_K@__crt_stdio_output@@YA_KAAPAD@Z 100200e2 f i libucrt:output.obj
 0001:0001f0f7       ??$read_va_arg@_W@__crt_stdio_output@@YA_WAAPAD@Z 100200f7 f i libucrt:output.obj
 0001:0001f10a       ??$scratch_count@D@formatting_buffer@__crt_stdio_output@@QBEIXZ 1002010a f i libucrt:output.obj
 0001:0001f10f       ??$scratch_data@D@formatting_buffer@__crt_stdio_output@@QAEPADXZ 1002010f f i libucrt:output.obj
 0001:0001f12d       ??$tcstol@AAPBDPAPADH@?$__crt_char_traits@D@@SAJAAPBD$$QAPAPAD$$QAH@Z 1002012d f i libucrt:output.obj
 0001:0001f14b       ??$tcstol@AAPB_WPAPA_WH@?$__crt_char_traits@_W@@SAJAAPB_W$$QAPAPA_W$$QAH@Z 1002014b f i libucrt:output.obj
 0001:0001f169       ??$tcstol@PBDPAPADH@?$__crt_char_traits@D@@SAJ$$QAPBD$$QAPAPAD$$QAH@Z 10020169 f i libucrt:output.obj
 0001:0001f187       ??$tcstol@PB_WPAPA_WH@?$__crt_char_traits@_W@@SAJ$$QAPB_W$$QAPAPA_W$$QAH@Z 10020187 f i libucrt:output.obj
 0001:0001f1a5       ??$type_case_integer_parse_into_buffer@I@?$output_processor@DV?$stream_output_adapter@D@__crt_stdio_output@@V?$format_validation_base@DV?$stream_output_adapter@D@__crt_stdio_output@@@2@@__crt_stdio_output@@AAEXII_N@Z 100201a5 f i libucrt:output.obj
 0001:0001f218       ??$type_case_integer_parse_into_buffer@I@?$output_processor@DV?$stream_output_adapter@D@__crt_stdio_output@@V?$positional_parameter_base@DV?$stream_output_adapter@D@__crt_stdio_output@@@2@@__crt_stdio_output@@AAEXII_N@Z 10020218 f i libucrt:output.obj
 0001:0001f28b       ??$type_case_integer_parse_into_buffer@I@?$output_processor@DV?$stream_output_adapter@D@__crt_stdio_output@@V?$standard_base@DV?$stream_output_adapter@D@__crt_stdio_output@@@2@@__crt_stdio_output@@AAEXII_N@Z 1002028b f i libucrt:output.obj
 0001:0001f2fe       ??$type_case_integer_parse_into_buffer@I@?$output_processor@DV?$string_output_adapter@D@__crt_stdio_output@@V?$format_validation_base@DV?$string_output_adapter@D@__crt_stdio_output@@@2@@__crt_stdio_output@@AAEXII_N@Z 100202fe f i libucrt:output.obj
 0001:0001f371       ??$type_case_integer_parse_into_buffer@I@?$output_processor@DV?$string_output_adapter@D@__crt_stdio_output@@V?$positional_parameter_base@DV?$string_output_adapter@D@__crt_stdio_output@@@2@@__crt_stdio_output@@AAEXII_N@Z 10020371 f i libucrt:output.obj
 0001:0001f3e4       ??$type_case_integer_parse_into_buffer@I@?$output_processor@DV?$string_output_adapter@D@__crt_stdio_output@@V?$standard_base@DV?$string_output_adapter@D@__crt_stdio_output@@@2@@__crt_stdio_output@@AAEXII_N@Z 100203e4 f i libucrt:output.obj
 0001:0001f457       ??$type_case_integer_parse_into_buffer@I@?$output_processor@_WV?$stream_output_adapter@_W@__crt_stdio_output@@V?$format_validation_base@_WV?$stream_output_adapter@_W@__crt_stdio_output@@@2@@__crt_stdio_output@@AAEXII_N@Z 10020457 f i libucrt:output.obj
 0001:0001f4d7       ??$type_case_integer_parse_into_buffer@I@?$output_processor@_WV?$stream_output_adapter@_W@__crt_stdio_output@@V?$positional_parameter_base@_WV?$stream_output_adapter@_W@__crt_stdio_output@@@2@@__crt_stdio_output@@AAEXII_N@Z 100204d7 f i libucrt:output.obj
 0001:0001f557       ??$type_case_integer_parse_into_buffer@I@?$output_processor@_WV?$stream_output_adapter@_W@__crt_stdio_output@@V?$standard_base@_WV?$stream_output_adapter@_W@__crt_stdio_output@@@2@@__crt_stdio_output@@AAEXII_N@Z 10020557 f i libucrt:output.obj
 0001:0001f5d7       ??$type_case_integer_parse_into_buffer@I@?$output_processor@_WV?$string_output_adapter@_W@__crt_stdio_output@@V?$format_validation_base@_WV?$string_output_adapter@_W@__crt_stdio_output@@@2@@__crt_stdio_output@@AAEXII_N@Z 100205d7 f i libucrt:output.obj
 0001:0001f657       ??$type_case_integer_parse_into_buffer@I@?$output_processor@_WV?$string_output_adapter@_W@__crt_stdio_output@@V?$positional_parameter_base@_WV?$string_output_adapter@_W@__crt_stdio_output@@@2@@__crt_stdio_output@@AAEXII_N@Z 10020657 f i libucrt:output.obj
 0001:0001f6d7       ??$type_case_integer_parse_into_buffer@I@?$output_processor@_WV?$string_output_adapter@_W@__crt_stdio_output@@V?$standard_base@_WV?$string_output_adapter@_W@__crt_stdio_output@@@2@@__crt_stdio_output@@AAEXII_N@Z 100206d7 f i libucrt:output.obj
 0001:0001f757       ??$type_case_integer_parse_into_buffer@_K@?$output_processor@DV?$stream_output_adapter@D@__crt_stdio_output@@V?$format_validation_base@DV?$stream_output_adapter@D@__crt_stdio_output@@@2@@__crt_stdio_output@@AAEX_KI_N@Z 10020757 f i libucrt:output.obj
 0001:0001f7e6       ??$type_case_integer_parse_into_buffer@_K@?$output_processor@DV?$stream_output_adapter@D@__crt_stdio_output@@V?$positional_parameter_base@DV?$stream_output_adapter@D@__crt_stdio_output@@@2@@__crt_stdio_output@@AAEX_KI_N@Z 100207e6 f i libucrt:output.obj
 0001:0001f875       ??$type_case_integer_parse_into_buffer@_K@?$output_processor@DV?$stream_output_adapter@D@__crt_stdio_output@@V?$standard_base@DV?$stream_output_adapter@D@__crt_stdio_output@@@2@@__crt_stdio_output@@AAEX_KI_N@Z 10020875 f i libucrt:output.obj
 0001:0001f904       ??$type_case_integer_parse_into_buffer@_K@?$output_processor@DV?$string_output_adapter@D@__crt_stdio_output@@V?$format_validation_base@DV?$string_output_adapter@D@__crt_stdio_output@@@2@@__crt_stdio_output@@AAEX_KI_N@Z 10020904 f i libucrt:output.obj
 0001:0001f993       ??$type_case_integer_parse_into_buffer@_K@?$output_processor@DV?$string_output_adapter@D@__crt_stdio_output@@V?$positional_parameter_base@DV?$string_output_adapter@D@__crt_stdio_output@@@2@@__crt_stdio_output@@AAEX_KI_N@Z 10020993 f i libucrt:output.obj
 0001:0001fa22       ??$type_case_integer_parse_into_buffer@_K@?$output_processor@DV?$string_output_adapter@D@__crt_stdio_output@@V?$standard_base@DV?$string_output_adapter@D@__crt_stdio_output@@@2@@__crt_stdio_output@@AAEX_KI_N@Z 10020a22 f i libucrt:output.obj
 0001:0001fab1       ??$type_case_integer_parse_into_buffer@_K@?$output_processor@_WV?$stream_output_adapter@_W@__crt_stdio_output@@V?$format_validation_base@_WV?$stream_output_adapter@_W@__crt_stdio_output@@@2@@__crt_stdio_output@@AAEX_KI_N@Z 10020ab1 f i libucrt:output.obj
 0001:0001fb4d       ??$type_case_integer_parse_into_buffer@_K@?$output_processor@_WV?$stream_output_adapter@_W@__crt_stdio_output@@V?$positional_parameter_base@_WV?$stream_output_adapter@_W@__crt_stdio_output@@@2@@__crt_stdio_output@@AAEX_KI_N@Z 10020b4d f i libucrt:output.obj
 0001:0001fbe9       ??$type_case_integer_parse_into_buffer@_K@?$output_processor@_WV?$stream_output_adapter@_W@__crt_stdio_output@@V?$standard_base@_WV?$stream_output_adapter@_W@__crt_stdio_output@@@2@@__crt_stdio_output@@AAEX_KI_N@Z 10020be9 f i libucrt:output.obj
 0001:0001fc85       ??$type_case_integer_parse_into_buffer@_K@?$output_processor@_WV?$string_output_adapter@_W@__crt_stdio_output@@V?$format_validation_base@_WV?$string_output_adapter@_W@__crt_stdio_output@@@2@@__crt_stdio_output@@AAEX_KI_N@Z 10020c85 f i libucrt:output.obj
 0001:0001fd21       ??$type_case_integer_parse_into_buffer@_K@?$output_processor@_WV?$string_output_adapter@_W@__crt_stdio_output@@V?$positional_parameter_base@_WV?$string_output_adapter@_W@__crt_stdio_output@@@2@@__crt_stdio_output@@AAEX_KI_N@Z 10020d21 f i libucrt:output.obj
 0001:0001fdbd       ??$type_case_integer_parse_into_buffer@_K@?$output_processor@_WV?$string_output_adapter@_W@__crt_stdio_output@@V?$standard_base@_WV?$string_output_adapter@_W@__crt_stdio_output@@@2@@__crt_stdio_output@@AAEX_KI_N@Z 10020dbd f i libucrt:output.obj
 0001:0001fe59       ??$write_multiple_characters@V?$stream_output_adapter@D@__crt_stdio_output@@D@__crt_stdio_output@@YAXABV?$stream_output_adapter@D@0@DHQAH@Z 10020e59 f i libucrt:output.obj
 0001:0001fe94       ??$write_multiple_characters@V?$stream_output_adapter@_W@__crt_stdio_output@@D@__crt_stdio_output@@YAXABV?$stream_output_adapter@_W@0@DHQAH@Z 10020e94 f i libucrt:output.obj
 0001:0001fed4       ??$write_multiple_characters@V?$string_output_adapter@D@__crt_stdio_output@@D@__crt_stdio_output@@YAXABV?$string_output_adapter@D@0@DHQAH@Z 10020ed4 f i libucrt:output.obj
 0001:0001ff00       ??$write_multiple_characters@V?$string_output_adapter@_W@__crt_stdio_output@@D@__crt_stdio_output@@YAXABV?$string_output_adapter@_W@0@DHQAH@Z 10020f00 f i libucrt:output.obj
 0001:000200f9       ??0?$common_data@D@__crt_stdio_output@@IAE@XZ 100210f9 f i libucrt:output.obj
 0001:00020140       ??0?$common_data@_W@__crt_stdio_output@@IAE@XZ 10021140 f i libucrt:output.obj
 0001:0002018c       ??0?$output_adapter_data@DV?$stream_output_adapter@D@__crt_stdio_output@@@__crt_stdio_output@@IAE@ABV?$stream_output_adapter@D@1@_KQBDQAU__crt_locale_pointers@@QAD@Z 1002118c f i libucrt:output.obj
 0001:000201c8       ??0?$output_adapter_data@DV?$string_output_adapter@D@__crt_stdio_output@@@__crt_stdio_output@@IAE@ABV?$string_output_adapter@D@1@_KQBDQAU__crt_locale_pointers@@QAD@Z 100211c8 f i libucrt:output.obj
 0001:00020204       ??0?$output_adapter_data@_WV?$stream_output_adapter@_W@__crt_stdio_output@@@__crt_stdio_output@@IAE@ABV?$stream_output_adapter@_W@1@_KQB_WQAU__crt_locale_pointers@@QAD@Z 10021204 f i libucrt:output.obj
 0001:00020240       ??0?$output_adapter_data@_WV?$string_output_adapter@_W@__crt_stdio_output@@@__crt_stdio_output@@IAE@ABV?$string_output_adapter@_W@1@_KQB_WQAU__crt_locale_pointers@@QAD@Z 10021240 f i libucrt:output.obj
 0001:0002027c       ??0?$output_processor@DV?$stream_output_adapter@D@__crt_stdio_output@@V?$format_validation_base@DV?$stream_output_adapter@D@__crt_stdio_output@@@2@@__crt_stdio_output@@QAE@ABV?$stream_output_adapter@D@1@_KQBDQAU__crt_locale_pointers@@QAD@Z 1002127c f i libucrt:output.obj
 0001:000202a9       ??0?$output_processor@DV?$stream_output_adapter@D@__crt_stdio_output@@V?$positional_parameter_base@DV?$stream_output_adapter@D@__crt_stdio_output@@@2@@__crt_stdio_output@@QAE@ABV?$stream_output_adapter@D@1@_KQBDQAU__crt_locale_pointers@@QAD@Z 100212a9 f i libucrt:output.obj
 0001:000202d0       ??0?$output_processor@DV?$stream_output_adapter@D@__crt_stdio_output@@V?$standard_base@DV?$stream_output_adapter@D@__crt_stdio_output@@@2@@__crt_stdio_output@@QAE@ABV?$stream_output_adapter@D@1@_KQBDQAU__crt_locale_pointers@@QAD@Z 100212d0 f i libucrt:output.obj
 0001:000202fd       ??0?$output_processor@DV?$string_output_adapter@D@__crt_stdio_output@@V?$format_validation_base@DV?$string_output_adapter@D@__crt_stdio_output@@@2@@__crt_stdio_output@@QAE@ABV?$string_output_adapter@D@1@_KQBDQAU__crt_locale_pointers@@QAD@Z 100212fd f i libucrt:output.obj
 0001:0002032a       ??0?$output_processor@DV?$string_output_adapter@D@__crt_stdio_output@@V?$positional_parameter_base@DV?$string_output_adapter@D@__crt_stdio_output@@@2@@__crt_stdio_output@@QAE@ABV?$string_output_adapter@D@1@_KQBDQAU__crt_locale_pointers@@QAD@Z 1002132a f i libucrt:output.obj
 0001:00020351       ??0?$output_processor@DV?$string_output_adapter@D@__crt_stdio_output@@V?$standard_base@DV?$string_output_adapter@D@__crt_stdio_output@@@2@@__crt_stdio_output@@QAE@ABV?$string_output_adapter@D@1@_KQBDQAU__crt_locale_pointers@@QAD@Z 10021351 f i libucrt:output.obj
 0001:0002037e       ??0?$output_processor@_WV?$stream_output_adapter@_W@__crt_stdio_output@@V?$format_validation_base@_WV?$stream_output_adapter@_W@__crt_stdio_output@@@2@@__crt_stdio_output@@QAE@ABV?$stream_output_adapter@_W@1@_KQB_WQAU__crt_locale_pointers@@QAD@Z 1002137e f i libucrt:output.obj
 0001:000203ab       ??0?$output_processor@_WV?$stream_output_adapter@_W@__crt_stdio_output@@V?$positional_parameter_base@_WV?$stream_output_adapter@_W@__crt_stdio_output@@@2@@__crt_stdio_output@@QAE@ABV?$stream_output_adapter@_W@1@_KQB_WQAU__crt_locale_pointers@@QAD@Z 100213ab f i libucrt:output.obj
 0001:000203d2       ??0?$output_processor@_WV?$stream_output_adapter@_W@__crt_stdio_output@@V?$standard_base@_WV?$stream_output_adapter@_W@__crt_stdio_output@@@2@@__crt_stdio_output@@QAE@ABV?$stream_output_adapter@_W@1@_KQB_WQAU__crt_locale_pointers@@QAD@Z 100213d2 f i libucrt:output.obj
 0001:000203ff       ??0?$output_processor@_WV?$string_output_adapter@_W@__crt_stdio_output@@V?$format_validation_base@_WV?$string_output_adapter@_W@__crt_stdio_output@@@2@@__crt_stdio_output@@QAE@ABV?$string_output_adapter@_W@1@_KQB_WQAU__crt_locale_pointers@@QAD@Z 100213ff f i libucrt:output.obj
 0001:0002042c       ??0?$output_processor@_WV?$string_output_adapter@_W@__crt_stdio_output@@V?$positional_parameter_base@_WV?$string_output_adapter@_W@__crt_stdio_output@@@2@@__crt_stdio_output@@QAE@ABV?$string_output_adapter@_W@1@_KQB_WQAU__crt_locale_pointers@@QAD@Z 1002142c f i libucrt:output.obj
 0001:00020453       ??0?$output_processor@_WV?$string_output_adapter@_W@__crt_stdio_output@@V?$standard_base@_WV?$string_output_adapter@_W@__crt_stdio_output@@@2@@__crt_stdio_output@@QAE@ABV?$string_output_adapter@_W@1@_KQB_WQAU__crt_locale_pointers@@QAD@Z 10021453 f i libucrt:output.obj
 0001:00020480       ??0?$stream_output_adapter@D@__crt_stdio_output@@QAE@QAU_iobuf@@@Z 10021480 f i libucrt:output.obj
 0001:00020490       ??0?$stream_output_adapter@_W@__crt_stdio_output@@QAE@QAU_iobuf@@@Z 10021490 f i libucrt:output.obj
 0001:000204a0       ??0?$string_output_adapter@D@__crt_stdio_output@@QAE@QAU?$string_output_adapter_context@D@1@@Z 100214a0 f i libucrt:output.obj
 0001:000204b0       ??0?$string_output_adapter@_W@__crt_stdio_output@@QAE@QAU?$string_output_adapter_context@_W@1@@Z 100214b0 f i libucrt:output.obj
 0001:000204c0       ??0__acrt_stdio_temporary_buffering_guard@@QAE@QAU_iobuf@@@Z 100214c0 f i libucrt:output.obj
 0001:000204de       ??0__crt_deferred_errno_cache@@QAE@XZ 100214de f i libucrt:output.obj
 0001:000204e4       ??0__crt_errno_guard@@QAE@QAH@Z 100214e4 f i libucrt:output.obj
 0001:000204fc       ??0__crt_stdio_stream@@QAE@QAU_iobuf@@@Z 100214fc f i libucrt:output.obj
 0001:0002050c       ??0formatting_buffer@__crt_stdio_output@@QAE@XZ 1002150c f i libucrt:output.obj
 0001:0002051d       ??1?$common_data@D@__crt_stdio_output@@QAE@XZ 1002151d f i libucrt:output.obj
 0001:00020525       ??1?$common_data@_W@__crt_stdio_output@@QAE@XZ 10021525 f i libucrt:output.obj
 0001:0002052d       ??1?$format_validation_base@DV?$stream_output_adapter@D@__crt_stdio_output@@@__crt_stdio_output@@QAE@XZ 1002152d f i libucrt:output.obj
 0001:00020535       ??1?$format_validation_base@DV?$string_output_adapter@D@__crt_stdio_output@@@__crt_stdio_output@@QAE@XZ 10021535 f i libucrt:output.obj
 0001:0002053d       ??1?$format_validation_base@_WV?$stream_output_adapter@_W@__crt_stdio_output@@@__crt_stdio_output@@QAE@XZ 1002153d f i libucrt:output.obj
 0001:00020545       ??1?$format_validation_base@_WV?$string_output_adapter@_W@__crt_stdio_output@@@__crt_stdio_output@@QAE@XZ 10021545 f i libucrt:output.obj
 0001:0002054d       ??1?$output_adapter_data@DV?$stream_output_adapter@D@__crt_stdio_output@@@__crt_stdio_output@@QAE@XZ 1002154d f i libucrt:output.obj
 0001:00020555       ??1?$output_adapter_data@DV?$string_output_adapter@D@__crt_stdio_output@@@__crt_stdio_output@@QAE@XZ 10021555 f i libucrt:output.obj
 0001:0002055d       ??1?$output_adapter_data@_WV?$stream_output_adapter@_W@__crt_stdio_output@@@__crt_stdio_output@@QAE@XZ 1002155d f i libucrt:output.obj
 0001:00020565       ??1?$output_adapter_data@_WV?$string_output_adapter@_W@__crt_stdio_output@@@__crt_stdio_output@@QAE@XZ 10021565 f i libucrt:output.obj
 0001:0002056d       ??1?$output_processor@DV?$stream_output_adapter@D@__crt_stdio_output@@V?$format_validation_base@DV?$stream_output_adapter@D@__crt_stdio_output@@@2@@__crt_stdio_output@@QAE@XZ 1002156d f i libucrt:output.obj
 0001:00020575       ??1?$output_processor@DV?$stream_output_adapter@D@__crt_stdio_output@@V?$positional_parameter_base@DV?$stream_output_adapter@D@__crt_stdio_output@@@2@@__crt_stdio_output@@QAE@XZ 10021575 f i libucrt:output.obj
 0001:0002057d       ??1?$output_processor@DV?$stream_output_adapter@D@__crt_stdio_output@@V?$standard_base@DV?$stream_output_adapter@D@__crt_stdio_output@@@2@@__crt_stdio_output@@QAE@XZ 1002157d f i libucrt:output.obj
 0001:00020585       ??1?$output_processor@DV?$string_output_adapter@D@__crt_stdio_output@@V?$format_validation_base@DV?$string_output_adapter@D@__crt_stdio_output@@@2@@__crt_stdio_output@@QAE@XZ 10021585 f i libucrt:output.obj
 0001:0002058d       ??1?$output_processor@DV?$string_output_adapter@D@__crt_stdio_output@@V?$positional_parameter_base@DV?$string_output_adapter@D@__crt_stdio_output@@@2@@__crt_stdio_output@@QAE@XZ 1002158d f i libucrt:output.obj
 0001:00020595       ??1?$output_processor@DV?$string_output_adapter@D@__crt_stdio_output@@V?$standard_base@DV?$string_output_adapter@D@__crt_stdio_output@@@2@@__crt_stdio_output@@QAE@XZ 10021595 f i libucrt:output.obj
 0001:0002059d       ??1?$output_processor@_WV?$stream_output_adapter@_W@__crt_stdio_output@@V?$format_validation_base@_WV?$stream_output_adapter@_W@__crt_stdio_output@@@2@@__crt_stdio_output@@QAE@XZ 1002159d f i libucrt:output.obj
 0001:000205a5       ??1?$output_processor@_WV?$stream_output_adapter@_W@__crt_stdio_output@@V?$positional_parameter_base@_WV?$stream_output_adapter@_W@__crt_stdio_output@@@2@@__crt_stdio_output@@QAE@XZ 100215a5 f i libucrt:output.obj
 0001:000205ad       ??1?$output_processor@_WV?$stream_output_adapter@_W@__crt_stdio_output@@V?$standard_base@_WV?$stream_output_adapter@_W@__crt_stdio_output@@@2@@__crt_stdio_output@@QAE@XZ 100215ad f i libucrt:output.obj
 0001:000205b5       ??1?$output_processor@_WV?$string_output_adapter@_W@__crt_stdio_output@@V?$format_validation_base@_WV?$string_output_adapter@_W@__crt_stdio_output@@@2@@__crt_stdio_output@@QAE@XZ 100215b5 f i libucrt:output.obj
 0001:000205bd       ??1?$output_processor@_WV?$string_output_adapter@_W@__crt_stdio_output@@V?$positional_parameter_base@_WV?$string_output_adapter@_W@__crt_stdio_output@@@2@@__crt_stdio_output@@QAE@XZ 100215bd f i libucrt:output.obj
 0001:000205c5       ??1?$output_processor@_WV?$string_output_adapter@_W@__crt_stdio_output@@V?$standard_base@_WV?$string_output_adapter@_W@__crt_stdio_output@@@2@@__crt_stdio_output@@QAE@XZ 100215c5 f i libucrt:output.obj
 0001:000205cd       ??1?$positional_parameter_base@DV?$stream_output_adapter@D@__crt_stdio_output@@@__crt_stdio_output@@QAE@XZ 100215cd f i libucrt:output.obj
 0001:000205d5       ??1?$positional_parameter_base@DV?$string_output_adapter@D@__crt_stdio_output@@@__crt_stdio_output@@QAE@XZ 100215d5 f i libucrt:output.obj
 0001:000205dd       ??1?$positional_parameter_base@_WV?$stream_output_adapter@_W@__crt_stdio_output@@@__crt_stdio_output@@QAE@XZ 100215dd f i libucrt:output.obj
 0001:000205e5       ??1?$positional_parameter_base@_WV?$string_output_adapter@_W@__crt_stdio_output@@@__crt_stdio_output@@QAE@XZ 100215e5 f i libucrt:output.obj
 0001:000205ed       ??1?$standard_base@DV?$stream_output_adapter@D@__crt_stdio_output@@@__crt_stdio_output@@QAE@XZ 100215ed f i libucrt:output.obj
 0001:000205f5       ??1?$standard_base@DV?$string_output_adapter@D@__crt_stdio_output@@@__crt_stdio_output@@QAE@XZ 100215f5 f i libucrt:output.obj
 0001:000205fd       ??1?$standard_base@_WV?$stream_output_adapter@_W@__crt_stdio_output@@@__crt_stdio_output@@QAE@XZ 100215fd f i libucrt:output.obj
 0001:00020605       ??1?$standard_base@_WV?$string_output_adapter@_W@__crt_stdio_output@@@__crt_stdio_output@@QAE@XZ 10021605 f i libucrt:output.obj
 0001:0002060d       ??1__acrt_stdio_temporary_buffering_guard@@QAE@XZ 1002160d f i libucrt:output.obj
 0001:0002061c       ??1__crt_errno_guard@@QAE@XZ 1002161c f i libucrt:output.obj
 0001:0002062d       ??1formatting_buffer@__crt_stdio_output@@QAE@XZ 1002162d f i libucrt:output.obj
 0001:00020647       ??4?$__crt_unique_heap_ptr@DU__crt_internal_free_policy@@@@QAEAAV0@$$QAV0@@Z 10021647 f i libucrt:output.obj
 0001:0002066b       ??C__crt_stdio_stream@@QBEPAU__crt_stdio_stream_data@@XZ 1002166b f i libucrt:output.obj
 0001:00020bca       ?adjust_hexit@?$output_processor@DV?$stream_output_adapter@D@__crt_stdio_output@@V?$format_validation_base@DV?$stream_output_adapter@D@__crt_stdio_output@@@2@@__crt_stdio_output@@CADH_N@Z 10021bca f i libucrt:output.obj
 0001:00020bde       ?adjust_hexit@?$output_processor@DV?$stream_output_adapter@D@__crt_stdio_output@@V?$positional_parameter_base@DV?$stream_output_adapter@D@__crt_stdio_output@@@2@@__crt_stdio_output@@CADH_N@Z 10021bde f i libucrt:output.obj
 0001:00020bf2       ?adjust_hexit@?$output_processor@DV?$stream_output_adapter@D@__crt_stdio_output@@V?$standard_base@DV?$stream_output_adapter@D@__crt_stdio_output@@@2@@__crt_stdio_output@@CADH_N@Z 10021bf2 f i libucrt:output.obj
 0001:00020c06       ?adjust_hexit@?$output_processor@DV?$string_output_adapter@D@__crt_stdio_output@@V?$format_validation_base@DV?$string_output_adapter@D@__crt_stdio_output@@@2@@__crt_stdio_output@@CADH_N@Z 10021c06 f i libucrt:output.obj
 0001:00020c1a       ?adjust_hexit@?$output_processor@DV?$string_output_adapter@D@__crt_stdio_output@@V?$positional_parameter_base@DV?$string_output_adapter@D@__crt_stdio_output@@@2@@__crt_stdio_output@@CADH_N@Z 10021c1a f i libucrt:output.obj
 0001:00020c2e       ?adjust_hexit@?$output_processor@DV?$string_output_adapter@D@__crt_stdio_output@@V?$standard_base@DV?$string_output_adapter@D@__crt_stdio_output@@@2@@__crt_stdio_output@@CADH_N@Z 10021c2e f i libucrt:output.obj
 0001:00020c42       ?adjust_hexit@?$output_processor@_WV?$stream_output_adapter@_W@__crt_stdio_output@@V?$format_validation_base@_WV?$stream_output_adapter@_W@__crt_stdio_output@@@2@@__crt_stdio_output@@CADH_N@Z 10021c42 f i libucrt:output.obj
 0001:00020c56       ?adjust_hexit@?$output_processor@_WV?$stream_output_adapter@_W@__crt_stdio_output@@V?$positional_parameter_base@_WV?$stream_output_adapter@_W@__crt_stdio_output@@@2@@__crt_stdio_output@@CADH_N@Z 10021c56 f i libucrt:output.obj
 0001:00020c6a       ?adjust_hexit@?$output_processor@_WV?$stream_output_adapter@_W@__crt_stdio_output@@V?$standard_base@_WV?$stream_output_adapter@_W@__crt_stdio_output@@@2@@__crt_stdio_output@@CADH_N@Z 10021c6a f i libucrt:output.obj
 0001:00020c7e       ?adjust_hexit@?$output_processor@_WV?$string_output_adapter@_W@__crt_stdio_output@@V?$format_validation_base@_WV?$string_output_adapter@_W@__crt_stdio_output@@@2@@__crt_stdio_output@@CADH_N@Z 10021c7e f i libucrt:output.obj
 0001:00020c92       ?adjust_hexit@?$output_processor@_WV?$string_output_adapter@_W@__crt_stdio_output@@V?$positional_parameter_base@_WV?$string_output_adapter@_W@__crt_stdio_output@@@2@@__crt_stdio_output@@CADH_N@Z 10021c92 f i libucrt:output.obj
 0001:00020ca6       ?adjust_hexit@?$output_processor@_WV?$string_output_adapter@_W@__crt_stdio_output@@V?$standard_base@_WV?$string_output_adapter@_W@__crt_stdio_output@@@2@@__crt_stdio_output@@CADH_N@Z 10021ca6 f i libucrt:output.obj
 0001:00020cba       ?advance_to_next_pass@?$positional_parameter_base@DV?$stream_output_adapter@D@__crt_stdio_output@@@__crt_stdio_output@@IAE_NXZ 10021cba f i libucrt:output.obj
 0001:00020d06       ?advance_to_next_pass@?$positional_parameter_base@DV?$string_output_adapter@D@__crt_stdio_output@@@__crt_stdio_output@@IAE_NXZ 10021d06 f i libucrt:output.obj
 0001:00020d52       ?advance_to_next_pass@?$positional_parameter_base@_WV?$stream_output_adapter@_W@__crt_stdio_output@@@__crt_stdio_output@@IAE_NXZ 10021d52 f i libucrt:output.obj
 0001:00020d9e       ?advance_to_next_pass@?$positional_parameter_base@_WV?$string_output_adapter@_W@__crt_stdio_output@@@__crt_stdio_output@@IAE_NXZ 10021d9e f i libucrt:output.obj
 0001:00020dea       ?advance_to_next_pass@?$standard_base@DV?$stream_output_adapter@D@__crt_stdio_output@@@__crt_stdio_output@@IAE_NXZ 10021dea f i libucrt:output.obj
 0001:00020dfb       ?advance_to_next_pass@?$standard_base@DV?$string_output_adapter@D@__crt_stdio_output@@@__crt_stdio_output@@IAE_NXZ 10021dfb f i libucrt:output.obj
 0001:00020e0c       ?advance_to_next_pass@?$standard_base@_WV?$stream_output_adapter@_W@__crt_stdio_output@@@__crt_stdio_output@@IAE_NXZ 10021e0c f i libucrt:output.obj
 0001:00020e1d       ?advance_to_next_pass@?$standard_base@_WV?$string_output_adapter@_W@__crt_stdio_output@@@__crt_stdio_output@@IAE_NXZ 10021e1d f i libucrt:output.obj
 0001:00020e2e       ?crop_zeroes@__crt_stdio_output@@YAXPADQAU__crt_locale_pointers@@@Z 10021e2e f i libucrt:output.obj
 0001:00020e8e       ?find_next_state@?$output_processor@DV?$stream_output_adapter@D@__crt_stdio_output@@V?$format_validation_base@DV?$stream_output_adapter@D@__crt_stdio_output@@@2@@__crt_stdio_output@@ABE?AW4state@2@DW432@@Z 10021e8e f i libucrt:output.obj
 0001:00020ed0       ?find_next_state@?$output_processor@DV?$stream_output_adapter@D@__crt_stdio_output@@V?$positional_parameter_base@DV?$stream_output_adapter@D@__crt_stdio_output@@@2@@__crt_stdio_output@@ABE?AW4state@2@DW432@@Z 10021ed0 f i libucrt:output.obj
 0001:00020f12       ?find_next_state@?$output_processor@DV?$stream_output_adapter@D@__crt_stdio_output@@V?$standard_base@DV?$stream_output_adapter@D@__crt_stdio_output@@@2@@__crt_stdio_output@@ABE?AW4state@2@DW432@@Z 10021f12 f i libucrt:output.obj
 0001:00020f51       ?find_next_state@?$output_processor@DV?$string_output_adapter@D@__crt_stdio_output@@V?$format_validation_base@DV?$string_output_adapter@D@__crt_stdio_output@@@2@@__crt_stdio_output@@ABE?AW4state@2@DW432@@Z 10021f51 f i libucrt:output.obj
 0001:00020f93       ?find_next_state@?$output_processor@DV?$string_output_adapter@D@__crt_stdio_output@@V?$positional_parameter_base@DV?$string_output_adapter@D@__crt_stdio_output@@@2@@__crt_stdio_output@@ABE?AW4state@2@DW432@@Z 10021f93 f i libucrt:output.obj
 0001:00020fd5       ?find_next_state@?$output_processor@DV?$string_output_adapter@D@__crt_stdio_output@@V?$standard_base@DV?$string_output_adapter@D@__crt_stdio_output@@@2@@__crt_stdio_output@@ABE?AW4state@2@DW432@@Z 10021fd5 f i libucrt:output.obj
 0001:00021014       ?find_next_state@?$output_processor@_WV?$stream_output_adapter@_W@__crt_stdio_output@@V?$format_validation_base@_WV?$stream_output_adapter@_W@__crt_stdio_output@@@2@@__crt_stdio_output@@ABE?AW4state@2@_WW432@@Z 10022014 f i libucrt:output.obj
 0001:00021058       ?find_next_state@?$output_processor@_WV?$stream_output_adapter@_W@__crt_stdio_output@@V?$positional_parameter_base@_WV?$stream_output_adapter@_W@__crt_stdio_output@@@2@@__crt_stdio_output@@ABE?AW4state@2@_WW432@@Z 10022058 f i libucrt:output.obj
 0001:0002109c       ?find_next_state@?$output_processor@_WV?$stream_output_adapter@_W@__crt_stdio_output@@V?$standard_base@_WV?$stream_output_adapter@_W@__crt_stdio_output@@@2@@__crt_stdio_output@@ABE?AW4state@2@_WW432@@Z 1002209c f i libucrt:output.obj
 0001:000210dd       ?find_next_state@?$output_processor@_WV?$string_output_adapter@_W@__crt_stdio_output@@V?$format_validation_base@_WV?$string_output_adapter@_W@__crt_stdio_output@@@2@@__crt_stdio_output@@ABE?AW4state@2@_WW432@@Z 100220dd f i libucrt:output.obj
 0001:00021121       ?find_next_state@?$output_processor@_WV?$string_output_adapter@_W@__crt_stdio_output@@V?$positional_parameter_base@_WV?$string_output_adapter@_W@__crt_stdio_output@@@2@@__crt_stdio_output@@ABE?AW4state@2@_WW432@@Z 10022121 f i libucrt:output.obj
 0001:00021165       ?find_next_state@?$output_processor@_WV?$string_output_adapter@_W@__crt_stdio_output@@V?$standard_base@_WV?$string_output_adapter@_W@__crt_stdio_output@@@2@@__crt_stdio_output@@ABE?AW4state@2@_WW432@@Z 10022165 f i libucrt:output.obj
 0001:000211a6       ?force_decimal_point@__crt_stdio_output@@YAXPADQAU__crt_locale_pointers@@@Z 100221a6 f i libucrt:output.obj
 0001:00021202       ?get@__crt_deferred_errno_cache@@QAEAAHXZ 10022202 f i libucrt:output.obj
 0001:00021216       ?get_flags@__crt_stdio_stream@@QBEJXZ 10022216 f i libucrt:output.obj
 0001:0002121c       ?get_parameter_type@?$positional_parameter_base@DV?$stream_output_adapter@D@__crt_stdio_output@@@__crt_stdio_output@@CA?AW4parameter_type@12@F@Z 1002221c f i libucrt:output.obj
 0001:00021220       ?get_parameter_type@?$positional_parameter_base@DV?$stream_output_adapter@D@__crt_stdio_output@@@__crt_stdio_output@@CA?AW4parameter_type@12@G@Z 10022220 f i libucrt:output.obj
 0001:00021224       ?get_parameter_type@?$positional_parameter_base@DV?$stream_output_adapter@D@__crt_stdio_output@@@__crt_stdio_output@@CA?AW4parameter_type@12@H@Z 10022224 f i libucrt:output.obj
 0001:00021228       ?get_parameter_type@?$positional_parameter_base@DV?$stream_output_adapter@D@__crt_stdio_output@@@__crt_stdio_output@@CA?AW4parameter_type@12@I@Z 10022228 f i libucrt:output.obj
 0001:0002122c       ?get_parameter_type@?$positional_parameter_base@DV?$stream_output_adapter@D@__crt_stdio_output@@@__crt_stdio_output@@CA?AW4parameter_type@12@U_CRT_DOUBLE@@@Z 1002222c f i libucrt:output.obj
 0001:00021230       ?get_parameter_type@?$positional_parameter_base@DV?$stream_output_adapter@D@__crt_stdio_output@@@__crt_stdio_output@@CA?AW4parameter_type@12@_J@Z 10022230 f i libucrt:output.obj
 0001:00021234       ?get_parameter_type@?$positional_parameter_base@DV?$stream_output_adapter@D@__crt_stdio_output@@@__crt_stdio_output@@CA?AW4parameter_type@12@_K@Z 10022234 f i libucrt:output.obj
 0001:00021238       ?get_parameter_type@?$positional_parameter_base@DV?$stream_output_adapter@D@__crt_stdio_output@@@__crt_stdio_output@@CA?AW4parameter_type@12@_W@Z 10022238 f i libucrt:output.obj
 0001:0002123c       ?get_parameter_type@?$positional_parameter_base@DV?$string_output_adapter@D@__crt_stdio_output@@@__crt_stdio_output@@CA?AW4parameter_type@12@F@Z 1002223c f i libucrt:output.obj
 0001:00021240       ?get_parameter_type@?$positional_parameter_base@DV?$string_output_adapter@D@__crt_stdio_output@@@__crt_stdio_output@@CA?AW4parameter_type@12@G@Z 10022240 f i libucrt:output.obj
 0001:00021244       ?get_parameter_type@?$positional_parameter_base@DV?$string_output_adapter@D@__crt_stdio_output@@@__crt_stdio_output@@CA?AW4parameter_type@12@H@Z 10022244 f i libucrt:output.obj
 0001:00021248       ?get_parameter_type@?$positional_parameter_base@DV?$string_output_adapter@D@__crt_stdio_output@@@__crt_stdio_output@@CA?AW4parameter_type@12@I@Z 10022248 f i libucrt:output.obj
 0001:0002124c       ?get_parameter_type@?$positional_parameter_base@DV?$string_output_adapter@D@__crt_stdio_output@@@__crt_stdio_output@@CA?AW4parameter_type@12@U_CRT_DOUBLE@@@Z 1002224c f i libucrt:output.obj
 0001:00021250       ?get_parameter_type@?$positional_parameter_base@DV?$string_output_adapter@D@__crt_stdio_output@@@__crt_stdio_output@@CA?AW4parameter_type@12@_J@Z 10022250 f i libucrt:output.obj
 0001:00021254       ?get_parameter_type@?$positional_parameter_base@DV?$string_output_adapter@D@__crt_stdio_output@@@__crt_stdio_output@@CA?AW4parameter_type@12@_K@Z 10022254 f i libucrt:output.obj
 0001:00021258       ?get_parameter_type@?$positional_parameter_base@DV?$string_output_adapter@D@__crt_stdio_output@@@__crt_stdio_output@@CA?AW4parameter_type@12@_W@Z 10022258 f i libucrt:output.obj
 0001:0002125c       ?get_parameter_type@?$positional_parameter_base@_WV?$stream_output_adapter@_W@__crt_stdio_output@@@__crt_stdio_output@@CA?AW4parameter_type@12@F@Z 1002225c f i libucrt:output.obj
 0001:00021260       ?get_parameter_type@?$positional_parameter_base@_WV?$stream_output_adapter@_W@__crt_stdio_output@@@__crt_stdio_output@@CA?AW4parameter_type@12@G@Z 10022260 f i libucrt:output.obj
 0001:00021264       ?get_parameter_type@?$positional_parameter_base@_WV?$stream_output_adapter@_W@__crt_stdio_output@@@__crt_stdio_output@@CA?AW4parameter_type@12@H@Z 10022264 f i libucrt:output.obj
 0001:00021268       ?get_parameter_type@?$positional_parameter_base@_WV?$stream_output_adapter@_W@__crt_stdio_output@@@__crt_stdio_output@@CA?AW4parameter_type@12@I@Z 10022268 f i libucrt:output.obj
 0001:0002126c       ?get_parameter_type@?$positional_parameter_base@_WV?$stream_output_adapter@_W@__crt_stdio_output@@@__crt_stdio_output@@CA?AW4parameter_type@12@U_CRT_DOUBLE@@@Z 1002226c f i libucrt:output.obj
 0001:00021270       ?get_parameter_type@?$positional_parameter_base@_WV?$stream_output_adapter@_W@__crt_stdio_output@@@__crt_stdio_output@@CA?AW4parameter_type@12@_J@Z 10022270 f i libucrt:output.obj
 0001:00021274       ?get_parameter_type@?$positional_parameter_base@_WV?$stream_output_adapter@_W@__crt_stdio_output@@@__crt_stdio_output@@CA?AW4parameter_type@12@_K@Z 10022274 f i libucrt:output.obj
 0001:00021278       ?get_parameter_type@?$positional_parameter_base@_WV?$stream_output_adapter@_W@__crt_stdio_output@@@__crt_stdio_output@@CA?AW4parameter_type@12@_W@Z 10022278 f i libucrt:output.obj
 0001:0002127c       ?get_parameter_type@?$positional_parameter_base@_WV?$string_output_adapter@_W@__crt_stdio_output@@@__crt_stdio_output@@CA?AW4parameter_type@12@F@Z 1002227c f i libucrt:output.obj
 0001:00021280       ?get_parameter_type@?$positional_parameter_base@_WV?$string_output_adapter@_W@__crt_stdio_output@@@__crt_stdio_output@@CA?AW4parameter_type@12@G@Z 10022280 f i libucrt:output.obj
 0001:00021284       ?get_parameter_type@?$positional_parameter_base@_WV?$string_output_adapter@_W@__crt_stdio_output@@@__crt_stdio_output@@CA?AW4parameter_type@12@H@Z 10022284 f i libucrt:output.obj
 0001:00021288       ?get_parameter_type@?$positional_parameter_base@_WV?$string_output_adapter@_W@__crt_stdio_output@@@__crt_stdio_output@@CA?AW4parameter_type@12@I@Z 10022288 f i libucrt:output.obj
 0001:0002128c       ?get_parameter_type@?$positional_parameter_base@_WV?$string_output_adapter@_W@__crt_stdio_output@@@__crt_stdio_output@@CA?AW4parameter_type@12@U_CRT_DOUBLE@@@Z 1002228c f i libucrt:output.obj
 0001:00021290       ?get_parameter_type@?$positional_parameter_base@_WV?$string_output_adapter@_W@__crt_stdio_output@@@__crt_stdio_output@@CA?AW4parameter_type@12@_J@Z 10022290 f i libucrt:output.obj
 0001:00021294       ?get_parameter_type@?$positional_parameter_base@_WV?$string_output_adapter@_W@__crt_stdio_output@@@__crt_stdio_output@@CA?AW4parameter_type@12@_K@Z 10022294 f i libucrt:output.obj
 0001:00021298       ?get_parameter_type@?$positional_parameter_base@_WV?$string_output_adapter@_W@__crt_stdio_output@@@__crt_stdio_output@@CA?AW4parameter_type@12@_W@Z 10022298 f i libucrt:output.obj
 0001:0002129c       ?has_flag@?$output_processor@DV?$stream_output_adapter@D@__crt_stdio_output@@V?$format_validation_base@DV?$stream_output_adapter@D@__crt_stdio_output@@@2@@__crt_stdio_output@@ABE_NI@Z 1002229c f i libucrt:output.obj
 0001:000212ae       ?has_flag@?$output_processor@DV?$stream_output_adapter@D@__crt_stdio_output@@V?$positional_parameter_base@DV?$stream_output_adapter@D@__crt_stdio_output@@@2@@__crt_stdio_output@@ABE_NI@Z 100222ae f i libucrt:output.obj
 0001:000212c0       ?has_flag@?$output_processor@DV?$stream_output_adapter@D@__crt_stdio_output@@V?$standard_base@DV?$stream_output_adapter@D@__crt_stdio_output@@@2@@__crt_stdio_output@@ABE_NI@Z 100222c0 f i libucrt:output.obj
 0001:000212d2       ?has_flag@?$output_processor@DV?$string_output_adapter@D@__crt_stdio_output@@V?$format_validation_base@DV?$string_output_adapter@D@__crt_stdio_output@@@2@@__crt_stdio_output@@ABE_NI@Z 100222d2 f i libucrt:output.obj
 0001:000212e4       ?has_flag@?$output_processor@DV?$string_output_adapter@D@__crt_stdio_output@@V?$positional_parameter_base@DV?$string_output_adapter@D@__crt_stdio_output@@@2@@__crt_stdio_output@@ABE_NI@Z 100222e4 f i libucrt:output.obj
 0001:000212f6       ?has_flag@?$output_processor@DV?$string_output_adapter@D@__crt_stdio_output@@V?$standard_base@DV?$string_output_adapter@D@__crt_stdio_output@@@2@@__crt_stdio_output@@ABE_NI@Z 100222f6 f i libucrt:output.obj
 0001:00021308       ?has_flag@?$output_processor@_WV?$stream_output_adapter@_W@__crt_stdio_output@@V?$format_validation_base@_WV?$stream_output_adapter@_W@__crt_stdio_output@@@2@@__crt_stdio_output@@ABE_NI@Z 10022308 f i libucrt:output.obj
 0001:0002131a       ?has_flag@?$output_processor@_WV?$stream_output_adapter@_W@__crt_stdio_output@@V?$positional_parameter_base@_WV?$stream_output_adapter@_W@__crt_stdio_output@@@2@@__crt_stdio_output@@ABE_NI@Z 1002231a f i libucrt:output.obj
 0001:0002132c       ?has_flag@?$output_processor@_WV?$stream_output_adapter@_W@__crt_stdio_output@@V?$standard_base@_WV?$stream_output_adapter@_W@__crt_stdio_output@@@2@@__crt_stdio_output@@ABE_NI@Z 1002232c f i libucrt:output.obj
 0001:0002133e       ?has_flag@?$output_processor@_WV?$string_output_adapter@_W@__crt_stdio_output@@V?$format_validation_base@_WV?$string_output_adapter@_W@__crt_stdio_output@@@2@@__crt_stdio_output@@ABE_NI@Z 1002233e f i libucrt:output.obj
 0001:00021350       ?has_flag@?$output_processor@_WV?$string_output_adapter@_W@__crt_stdio_output@@V?$positional_parameter_base@_WV?$string_output_adapter@_W@__crt_stdio_output@@@2@@__crt_stdio_output@@ABE_NI@Z 10022350 f i libucrt:output.obj
 0001:00021362       ?has_flag@?$output_processor@_WV?$string_output_adapter@_W@__crt_stdio_output@@V?$standard_base@_WV?$string_output_adapter@_W@__crt_stdio_output@@@2@@__crt_stdio_output@@ABE_NI@Z 10022362 f i libucrt:output.obj
 0001:00021374       ?is_positional_parameter_reappearance_consistent@?$positional_parameter_base@DV?$stream_output_adapter@D@__crt_stdio_output@@@__crt_stdio_output@@AAE_NABUparameter_data@12@W4parameter_type@12@DW4length_modifier@2@@Z 10022374 f i libucrt:output.obj
 0001:0002148e       ?is_positional_parameter_reappearance_consistent@?$positional_parameter_base@DV?$string_output_adapter@D@__crt_stdio_output@@@__crt_stdio_output@@AAE_NABUparameter_data@12@W4parameter_type@12@DW4length_modifier@2@@Z 1002248e f i libucrt:output.obj
 0001:000215a8       ?is_positional_parameter_reappearance_consistent@?$positional_parameter_base@_WV?$stream_output_adapter@_W@__crt_stdio_output@@@__crt_stdio_output@@AAE_NABUparameter_data@12@W4parameter_type@12@_WW4length_modifier@2@@Z 100225a8 f i libucrt:output.obj
 0001:000216c1       ?is_positional_parameter_reappearance_consistent@?$positional_parameter_base@_WV?$string_output_adapter@_W@__crt_stdio_output@@@__crt_stdio_output@@AAE_NABUparameter_data@12@W4parameter_type@12@_WW4length_modifier@2@@Z 100226c1 f i libucrt:output.obj
 0001:000217da       ?is_string_backed@__crt_stdio_stream@@QBE_NXZ 100227da f i libucrt:output.obj
 0001:000217e5       ?narrow_null_string@?$output_processor@DV?$stream_output_adapter@D@__crt_stdio_output@@V?$format_validation_base@DV?$stream_output_adapter@D@__crt_stdio_output@@@2@@__crt_stdio_output@@CAPADXZ 100227e5 f i libucrt:output.obj
 0001:000217eb       ?narrow_null_string@?$output_processor@DV?$stream_output_adapter@D@__crt_stdio_output@@V?$positional_parameter_base@DV?$stream_output_adapter@D@__crt_stdio_output@@@2@@__crt_stdio_output@@CAPADXZ 100227eb f i libucrt:output.obj
 0001:000217f1       ?narrow_null_string@?$output_processor@DV?$stream_output_adapter@D@__crt_stdio_output@@V?$standard_base@DV?$stream_output_adapter@D@__crt_stdio_output@@@2@@__crt_stdio_output@@CAPADXZ 100227f1 f i libucrt:output.obj
 0001:000217f7       ?narrow_null_string@?$output_processor@DV?$string_output_adapter@D@__crt_stdio_output@@V?$format_validation_base@DV?$string_output_adapter@D@__crt_stdio_output@@@2@@__crt_stdio_output@@CAPADXZ 100227f7 f i libucrt:output.obj
 0001:000217fd       ?narrow_null_string@?$output_processor@DV?$string_output_adapter@D@__crt_stdio_output@@V?$positional_parameter_base@DV?$string_output_adapter@D@__crt_stdio_output@@@2@@__crt_stdio_output@@CAPADXZ 100227fd f i libucrt:output.obj
 0001:00021803       ?narrow_null_string@?$output_processor@DV?$string_output_adapter@D@__crt_stdio_output@@V?$standard_base@DV?$string_output_adapter@D@__crt_stdio_output@@@2@@__crt_stdio_output@@CAPADXZ 10022803 f i libucrt:output.obj
 0001:00021809       ?narrow_null_string@?$output_processor@_WV?$stream_output_adapter@_W@__crt_stdio_output@@V?$format_validation_base@_WV?$stream_output_adapter@_W@__crt_stdio_output@@@2@@__crt_stdio_output@@CAPADXZ 10022809 f i libucrt:output.obj
 0001:0002180f       ?narrow_null_string@?$output_processor@_WV?$stream_output_adapter@_W@__crt_stdio_output@@V?$positional_parameter_base@_WV?$stream_output_adapter@_W@__crt_stdio_output@@@2@@__crt_stdio_output@@CAPADXZ 1002280f f i libucrt:output.obj
 0001:00021815       ?narrow_null_string@?$output_processor@_WV?$stream_output_adapter@_W@__crt_stdio_output@@V?$standard_base@_WV?$stream_output_adapter@_W@__crt_stdio_output@@@2@@__crt_stdio_output@@CAPADXZ 10022815 f i libucrt:output.obj
 0001:0002181b       ?narrow_null_string@?$output_processor@_WV?$string_output_adapter@_W@__crt_stdio_output@@V?$format_validation_base@_WV?$string_output_adapter@_W@__crt_stdio_output@@@2@@__crt_stdio_output@@CAPADXZ 1002281b f i libucrt:output.obj
 0001:00021821       ?narrow_null_string@?$output_processor@_WV?$string_output_adapter@_W@__crt_stdio_output@@V?$positional_parameter_base@_WV?$string_output_adapter@_W@__crt_stdio_output@@@2@@__crt_stdio_output@@CAPADXZ 10022821 f i libucrt:output.obj
 0001:00021827       ?narrow_null_string@?$output_processor@_WV?$string_output_adapter@_W@__crt_stdio_output@@V?$standard_base@_WV?$string_output_adapter@_W@__crt_stdio_output@@@2@@__crt_stdio_output@@CAPADXZ 10022827 f i libucrt:output.obj
 0001:0002182d       ?parse_int_from_format_string@?$output_processor@DV?$stream_output_adapter@D@__crt_stdio_output@@V?$format_validation_base@DV?$stream_output_adapter@D@__crt_stdio_output@@@2@@__crt_stdio_output@@AAE_NQAH@Z 1002282d f i libucrt:output.obj
 0001:000218a3       ?parse_int_from_format_string@?$output_processor@DV?$stream_output_adapter@D@__crt_stdio_output@@V?$positional_parameter_base@DV?$stream_output_adapter@D@__crt_stdio_output@@@2@@__crt_stdio_output@@AAE_NQAH@Z 100228a3 f i libucrt:output.obj
 0001:00021919       ?parse_int_from_format_string@?$output_processor@DV?$stream_output_adapter@D@__crt_stdio_output@@V?$standard_base@DV?$stream_output_adapter@D@__crt_stdio_output@@@2@@__crt_stdio_output@@AAE_NQAH@Z 10022919 f i libucrt:output.obj
 0001:0002198f       ?parse_int_from_format_string@?$output_processor@DV?$string_output_adapter@D@__crt_stdio_output@@V?$format_validation_base@DV?$string_output_adapter@D@__crt_stdio_output@@@2@@__crt_stdio_output@@AAE_NQAH@Z 1002298f f i libucrt:output.obj
 0001:00021a05       ?parse_int_from_format_string@?$output_processor@DV?$string_output_adapter@D@__crt_stdio_output@@V?$positional_parameter_base@DV?$string_output_adapter@D@__crt_stdio_output@@@2@@__crt_stdio_output@@AAE_NQAH@Z 10022a05 f i libucrt:output.obj
 0001:00021a7b       ?parse_int_from_format_string@?$output_processor@DV?$string_output_adapter@D@__crt_stdio_output@@V?$standard_base@DV?$string_output_adapter@D@__crt_stdio_output@@@2@@__crt_stdio_output@@AAE_NQAH@Z 10022a7b f i libucrt:output.obj
 0001:00021af1       ?parse_int_from_format_string@?$output_processor@_WV?$stream_output_adapter@_W@__crt_stdio_output@@V?$format_validation_base@_WV?$stream_output_adapter@_W@__crt_stdio_output@@@2@@__crt_stdio_output@@AAE_NQAH@Z 10022af1 f i libucrt:output.obj
 0001:00021b69       ?parse_int_from_format_string@?$output_processor@_WV?$stream_output_adapter@_W@__crt_stdio_output@@V?$positional_parameter_base@_WV?$stream_output_adapter@_W@__crt_stdio_output@@@2@@__crt_stdio_output@@AAE_NQAH@Z 10022b69 f i libucrt:output.obj
 0001:00021be1       ?parse_int_from_format_string@?$output_processor@_WV?$stream_output_adapter@_W@__crt_stdio_output@@V?$standard_base@_WV?$stream_output_adapter@_W@__crt_stdio_output@@@2@@__crt_stdio_output@@AAE_NQAH@Z 10022be1 f i libucrt:output.obj
 0001:00021c59       ?parse_int_from_format_string@?$output_processor@_WV?$string_output_adapter@_W@__crt_stdio_output@@V?$format_validation_base@_WV?$string_output_adapter@_W@__crt_stdio_output@@@2@@__crt_stdio_output@@AAE_NQAH@Z 10022c59 f i libucrt:output.obj
 0001:00021cd1       ?parse_int_from_format_string@?$output_processor@_WV?$string_output_adapter@_W@__crt_stdio_output@@V?$positional_parameter_base@_WV?$string_output_adapter@_W@__crt_stdio_output@@@2@@__crt_stdio_output@@AAE_NQAH@Z 10022cd1 f i libucrt:output.obj
 0001:00021d49       ?parse_int_from_format_string@?$output_processor@_WV?$string_output_adapter@_W@__crt_stdio_output@@V?$standard_base@_WV?$string_output_adapter@_W@__crt_stdio_output@@@2@@__crt_stdio_output@@AAE_NQAH@Z 10022d49 f i libucrt:output.obj
 0001:00021dc1       ?process@?$output_processor@DV?$stream_output_adapter@D@__crt_stdio_output@@V?$format_validation_base@DV?$stream_output_adapter@D@__crt_stdio_output@@@2@@__crt_stdio_output@@QAEHXZ 10022dc1 f i libucrt:output.obj
 0001:00021ee9       ?process@?$output_processor@DV?$stream_output_adapter@D@__crt_stdio_output@@V?$positional_parameter_base@DV?$stream_output_adapter@D@__crt_stdio_output@@@2@@__crt_stdio_output@@QAEHXZ 10022ee9 f i libucrt:output.obj
 0001:00022045       ?process@?$output_processor@DV?$stream_output_adapter@D@__crt_stdio_output@@V?$standard_base@DV?$stream_output_adapter@D@__crt_stdio_output@@@2@@__crt_stdio_output@@QAEHXZ 10023045 f i libucrt:output.obj
 0001:00022161       ?process@?$output_processor@DV?$string_output_adapter@D@__crt_stdio_output@@V?$format_validation_base@DV?$string_output_adapter@D@__crt_stdio_output@@@2@@__crt_stdio_output@@QAEHXZ 10023161 f i libucrt:output.obj
 0001:00022289       ?process@?$output_processor@DV?$string_output_adapter@D@__crt_stdio_output@@V?$positional_parameter_base@DV?$string_output_adapter@D@__crt_stdio_output@@@2@@__crt_stdio_output@@QAEHXZ 10023289 f i libucrt:output.obj
 0001:000223e5       ?process@?$output_processor@DV?$string_output_adapter@D@__crt_stdio_output@@V?$standard_base@DV?$string_output_adapter@D@__crt_stdio_output@@@2@@__crt_stdio_output@@QAEHXZ 100233e5 f i libucrt:output.obj
 0001:00022501       ?process@?$output_processor@_WV?$stream_output_adapter@_W@__crt_stdio_output@@V?$format_validation_base@_WV?$stream_output_adapter@_W@__crt_stdio_output@@@2@@__crt_stdio_output@@QAEHXZ 10023501 f i libucrt:output.obj
 0001:00022631       ?process@?$output_processor@_WV?$stream_output_adapter@_W@__crt_stdio_output@@V?$positional_parameter_base@_WV?$stream_output_adapter@_W@__crt_stdio_output@@@2@@__crt_stdio_output@@QAEHXZ 10023631 f i libucrt:output.obj
 0001:00022791       ?process@?$output_processor@_WV?$stream_output_adapter@_W@__crt_stdio_output@@V?$standard_base@_WV?$stream_output_adapter@_W@__crt_stdio_output@@@2@@__crt_stdio_output@@QAEHXZ 10023791 f i libucrt:output.obj
 0001:000228b1       ?process@?$output_processor@_WV?$string_output_adapter@_W@__crt_stdio_output@@V?$format_validation_base@_WV?$string_output_adapter@_W@__crt_stdio_output@@@2@@__crt_stdio_output@@QAEHXZ 100238b1 f i libucrt:output.obj
 0001:000229e1       ?process@?$output_processor@_WV?$string_output_adapter@_W@__crt_stdio_output@@V?$positional_parameter_base@_WV?$string_output_adapter@_W@__crt_stdio_output@@@2@@__crt_stdio_output@@QAEHXZ 100239e1 f i libucrt:output.obj
 0001:00022b41       ?process@?$output_processor@_WV?$string_output_adapter@_W@__crt_stdio_output@@V?$standard_base@_WV?$string_output_adapter@_W@__crt_stdio_output@@@2@@__crt_stdio_output@@QAEHXZ 10023b41 f i libucrt:output.obj
 0001:00022c61       ?public_stream@__crt_stdio_stream@@QBEPAU_iobuf@@XZ 10023c61 f i libucrt:output.obj
 0001:00022c64       ?set_flag@?$output_processor@DV?$stream_output_adapter@D@__crt_stdio_output@@V?$format_validation_base@DV?$stream_output_adapter@D@__crt_stdio_output@@@2@@__crt_stdio_output@@AAEXI@Z 10023c64 f i libucrt:output.obj
 0001:00022c73       ?set_flag@?$output_processor@DV?$stream_output_adapter@D@__crt_stdio_output@@V?$positional_parameter_base@DV?$stream_output_adapter@D@__crt_stdio_output@@@2@@__crt_stdio_output@@AAEXI@Z 10023c73 f i libucrt:output.obj
 0001:00022c82       ?set_flag@?$output_processor@DV?$stream_output_adapter@D@__crt_stdio_output@@V?$standard_base@DV?$stream_output_adapter@D@__crt_stdio_output@@@2@@__crt_stdio_output@@AAEXI@Z 10023c82 f i libucrt:output.obj
 0001:00022c91       ?set_flag@?$output_processor@DV?$string_output_adapter@D@__crt_stdio_output@@V?$format_validation_base@DV?$string_output_adapter@D@__crt_stdio_output@@@2@@__crt_stdio_output@@AAEXI@Z 10023c91 f i libucrt:output.obj
 0001:00022ca0       ?set_flag@?$output_processor@DV?$string_output_adapter@D@__crt_stdio_output@@V?$positional_parameter_base@DV?$string_output_adapter@D@__crt_stdio_output@@@2@@__crt_stdio_output@@AAEXI@Z 10023ca0 f i libucrt:output.obj
 0001:00022caf       ?set_flag@?$output_processor@DV?$string_output_adapter@D@__crt_stdio_output@@V?$standard_base@DV?$string_output_adapter@D@__crt_stdio_output@@@2@@__crt_stdio_output@@AAEXI@Z 10023caf f i libucrt:output.obj
 0001:00022cbe       ?set_flag@?$output_processor@_WV?$stream_output_adapter@_W@__crt_stdio_output@@V?$format_validation_base@_WV?$stream_output_adapter@_W@__crt_stdio_output@@@2@@__crt_stdio_output@@AAEXI@Z 10023cbe f i libucrt:output.obj
 0001:00022ccd       ?set_flag@?$output_processor@_WV?$stream_output_adapter@_W@__crt_stdio_output@@V?$positional_parameter_base@_WV?$stream_output_adapter@_W@__crt_stdio_output@@@2@@__crt_stdio_output@@AAEXI@Z 10023ccd f i libucrt:output.obj
 0001:00022cdc       ?set_flag@?$output_processor@_WV?$stream_output_adapter@_W@__crt_stdio_output@@V?$standard_base@_WV?$stream_output_adapter@_W@__crt_stdio_output@@@2@@__crt_stdio_output@@AAEXI@Z 10023cdc f i libucrt:output.obj
 0001:00022ceb       ?set_flag@?$output_processor@_WV?$string_output_adapter@_W@__crt_stdio_output@@V?$format_validation_base@_WV?$string_output_adapter@_W@__crt_stdio_output@@@2@@__crt_stdio_output@@AAEXI@Z 10023ceb f i libucrt:output.obj
 0001:00022cfa       ?set_flag@?$output_processor@_WV?$string_output_adapter@_W@__crt_stdio_output@@V?$positional_parameter_base@_WV?$string_output_adapter@_W@__crt_stdio_output@@@2@@__crt_stdio_output@@AAEXI@Z 10023cfa f i libucrt:output.obj
 0001:00022d09       ?set_flag@?$output_processor@_WV?$string_output_adapter@_W@__crt_stdio_output@@V?$standard_base@_WV?$string_output_adapter@_W@__crt_stdio_output@@@2@@__crt_stdio_output@@AAEXI@Z 10023d09 f i libucrt:output.obj
 0001:00022d18       ?should_format@?$positional_parameter_base@DV?$stream_output_adapter@D@__crt_stdio_output@@@__crt_stdio_output@@IAE_NXZ 10023d18 f i libucrt:output.obj
 0001:00022d2e       ?should_format@?$positional_parameter_base@DV?$string_output_adapter@D@__crt_stdio_output@@@__crt_stdio_output@@IAE_NXZ 10023d2e f i libucrt:output.obj
 0001:00022d44       ?should_format@?$positional_parameter_base@_WV?$stream_output_adapter@_W@__crt_stdio_output@@@__crt_stdio_output@@IAE_NXZ 10023d44 f i libucrt:output.obj
 0001:00022d5a       ?should_format@?$positional_parameter_base@_WV?$string_output_adapter@_W@__crt_stdio_output@@@__crt_stdio_output@@IAE_NXZ 10023d5a f i libucrt:output.obj
 0001:00022d70       ?should_format@?$standard_base@DV?$stream_output_adapter@D@__crt_stdio_output@@@__crt_stdio_output@@IAE_NXZ 10023d70 f i libucrt:output.obj
 0001:00022d73       ?should_format@?$standard_base@DV?$string_output_adapter@D@__crt_stdio_output@@@__crt_stdio_output@@IAE_NXZ 10023d73 f i libucrt:output.obj
 0001:00022d76       ?should_format@?$standard_base@_WV?$stream_output_adapter@_W@__crt_stdio_output@@@__crt_stdio_output@@IAE_NXZ 10023d76 f i libucrt:output.obj
 0001:00022d79       ?should_format@?$standard_base@_WV?$string_output_adapter@_W@__crt_stdio_output@@@__crt_stdio_output@@IAE_NXZ 10023d79 f i libucrt:output.obj
 0001:00022d7c       ?should_skip_normal_state_processing@?$positional_parameter_base@DV?$stream_output_adapter@D@__crt_stdio_output@@@__crt_stdio_output@@IAE_NXZ 10023d7c f i libucrt:output.obj
 0001:00022da4       ?should_skip_normal_state_processing@?$positional_parameter_base@DV?$string_output_adapter@D@__crt_stdio_output@@@__crt_stdio_output@@IAE_NXZ 10023da4 f i libucrt:output.obj
 0001:00022dcc       ?should_skip_normal_state_processing@?$positional_parameter_base@_WV?$stream_output_adapter@_W@__crt_stdio_output@@@__crt_stdio_output@@IAE_NXZ 10023dcc f i libucrt:output.obj
 0001:00022df4       ?should_skip_normal_state_processing@?$positional_parameter_base@_WV?$string_output_adapter@_W@__crt_stdio_output@@@__crt_stdio_output@@IAE_NXZ 10023df4 f i libucrt:output.obj
 0001:00022e1c       ?should_skip_normal_state_processing@?$standard_base@DV?$stream_output_adapter@D@__crt_stdio_output@@@__crt_stdio_output@@IAE_NXZ 10023e1c f i libucrt:output.obj
 0001:00022e1f       ?should_skip_normal_state_processing@?$standard_base@DV?$string_output_adapter@D@__crt_stdio_output@@@__crt_stdio_output@@IAE_NXZ 10023e1f f i libucrt:output.obj
 0001:00022e22       ?should_skip_normal_state_processing@?$standard_base@_WV?$stream_output_adapter@_W@__crt_stdio_output@@@__crt_stdio_output@@IAE_NXZ 10023e22 f i libucrt:output.obj
 0001:00022e25       ?should_skip_normal_state_processing@?$standard_base@_WV?$string_output_adapter@_W@__crt_stdio_output@@@__crt_stdio_output@@IAE_NXZ 10023e25 f i libucrt:output.obj
 0001:00022e28       ?should_skip_type_state_output@?$positional_parameter_base@DV?$stream_output_adapter@D@__crt_stdio_output@@@__crt_stdio_output@@IBE_NXZ 10023e28 f i libucrt:output.obj
 0001:00022e3f       ?should_skip_type_state_output@?$positional_parameter_base@DV?$string_output_adapter@D@__crt_stdio_output@@@__crt_stdio_output@@IBE_NXZ 10023e3f f i libucrt:output.obj
 0001:00022e56       ?should_skip_type_state_output@?$positional_parameter_base@_WV?$stream_output_adapter@_W@__crt_stdio_output@@@__crt_stdio_output@@IBE_NXZ 10023e56 f i libucrt:output.obj
 0001:00022e6d       ?should_skip_type_state_output@?$positional_parameter_base@_WV?$string_output_adapter@_W@__crt_stdio_output@@@__crt_stdio_output@@IBE_NXZ 10023e6d f i libucrt:output.obj
 0001:00022e84       ?should_skip_type_state_output@?$standard_base@DV?$stream_output_adapter@D@__crt_stdio_output@@@__crt_stdio_output@@IBE_NXZ 10023e84 f i libucrt:output.obj
 0001:00022e87       ?should_skip_type_state_output@?$standard_base@DV?$string_output_adapter@D@__crt_stdio_output@@@__crt_stdio_output@@IBE_NXZ 10023e87 f i libucrt:output.obj
 0001:00022e8a       ?should_skip_type_state_output@?$standard_base@_WV?$stream_output_adapter@_W@__crt_stdio_output@@@__crt_stdio_output@@IBE_NXZ 10023e8a f i libucrt:output.obj
 0001:00022e8d       ?should_skip_type_state_output@?$standard_base@_WV?$string_output_adapter@_W@__crt_stdio_output@@@__crt_stdio_output@@IBE_NXZ 10023e8d f i libucrt:output.obj
 0001:00022e90       ?state_case_dot@?$output_processor@DV?$stream_output_adapter@D@__crt_stdio_output@@V?$format_validation_base@DV?$stream_output_adapter@D@__crt_stdio_output@@@2@@__crt_stdio_output@@AAE_NXZ 10023e90 f i libucrt:output.obj
 0001:00022e97       ?state_case_dot@?$output_processor@DV?$stream_output_adapter@D@__crt_stdio_output@@V?$positional_parameter_base@DV?$stream_output_adapter@D@__crt_stdio_output@@@2@@__crt_stdio_output@@AAE_NXZ 10023e97 f i libucrt:output.obj
 0001:00022e9e       ?state_case_dot@?$output_processor@DV?$stream_output_adapter@D@__crt_stdio_output@@V?$standard_base@DV?$stream_output_adapter@D@__crt_stdio_output@@@2@@__crt_stdio_output@@AAE_NXZ 10023e9e f i libucrt:output.obj
 0001:00022ea5       ?state_case_dot@?$output_processor@DV?$string_output_adapter@D@__crt_stdio_output@@V?$format_validation_base@DV?$string_output_adapter@D@__crt_stdio_output@@@2@@__crt_stdio_output@@AAE_NXZ 10023ea5 f i libucrt:output.obj
 0001:00022eac       ?state_case_dot@?$output_processor@DV?$string_output_adapter@D@__crt_stdio_output@@V?$positional_parameter_base@DV?$string_output_adapter@D@__crt_stdio_output@@@2@@__crt_stdio_output@@AAE_NXZ 10023eac f i libucrt:output.obj
 0001:00022eb3       ?state_case_dot@?$output_processor@DV?$string_output_adapter@D@__crt_stdio_output@@V?$standard_base@DV?$string_output_adapter@D@__crt_stdio_output@@@2@@__crt_stdio_output@@AAE_NXZ 10023eb3 f i libucrt:output.obj
 0001:00022eba       ?state_case_dot@?$output_processor@_WV?$stream_output_adapter@_W@__crt_stdio_output@@V?$format_validation_base@_WV?$stream_output_adapter@_W@__crt_stdio_output@@@2@@__crt_stdio_output@@AAE_NXZ 10023eba f i libucrt:output.obj
 0001:00022ec1       ?state_case_dot@?$output_processor@_WV?$stream_output_adapter@_W@__crt_stdio_output@@V?$positional_parameter_base@_WV?$stream_output_adapter@_W@__crt_stdio_output@@@2@@__crt_stdio_output@@AAE_NXZ 10023ec1 f i libucrt:output.obj
 0001:00022ec8       ?state_case_dot@?$output_processor@_WV?$stream_output_adapter@_W@__crt_stdio_output@@V?$standard_base@_WV?$stream_output_adapter@_W@__crt_stdio_output@@@2@@__crt_stdio_output@@AAE_NXZ 10023ec8 f i libucrt:output.obj
 0001:00022ecf       ?state_case_dot@?$output_processor@_WV?$string_output_adapter@_W@__crt_stdio_output@@V?$format_validation_base@_WV?$string_output_adapter@_W@__crt_stdio_output@@@2@@__crt_stdio_output@@AAE_NXZ 10023ecf f i libucrt:output.obj
 0001:00022ed6       ?state_case_dot@?$output_processor@_WV?$string_output_adapter@_W@__crt_stdio_output@@V?$positional_parameter_base@_WV?$string_output_adapter@_W@__crt_stdio_output@@@2@@__crt_stdio_output@@AAE_NXZ 10023ed6 f i libucrt:output.obj
 0001:00022edd       ?state_case_dot@?$output_processor@_WV?$string_output_adapter@_W@__crt_stdio_output@@V?$standard_base@_WV?$string_output_adapter@_W@__crt_stdio_output@@@2@@__crt_stdio_output@@AAE_NXZ 10023edd f i libucrt:output.obj
 0001:00022ee4       ?state_case_flag@?$output_processor@DV?$stream_output_adapter@D@__crt_stdio_output@@V?$format_validation_base@DV?$stream_output_adapter@D@__crt_stdio_output@@@2@@__crt_stdio_output@@AAE_NXZ 10023ee4 f i libucrt:output.obj
 0001:00022f21       ?state_case_flag@?$output_processor@DV?$stream_output_adapter@D@__crt_stdio_output@@V?$positional_parameter_base@DV?$stream_output_adapter@D@__crt_stdio_output@@@2@@__crt_stdio_output@@AAE_NXZ 10023f21 f i libucrt:output.obj
 0001:00022f5e       ?state_case_flag@?$output_processor@DV?$stream_output_adapter@D@__crt_stdio_output@@V?$standard_base@DV?$stream_output_adapter@D@__crt_stdio_output@@@2@@__crt_stdio_output@@AAE_NXZ 10023f5e f i libucrt:output.obj
 0001:00022f9b       ?state_case_flag@?$output_processor@DV?$string_output_adapter@D@__crt_stdio_output@@V?$format_validation_base@DV?$string_output_adapter@D@__crt_stdio_output@@@2@@__crt_stdio_output@@AAE_NXZ 10023f9b f i libucrt:output.obj
 0001:00022fd8       ?state_case_flag@?$output_processor@DV?$string_output_adapter@D@__crt_stdio_output@@V?$positional_parameter_base@DV?$string_output_adapter@D@__crt_stdio_output@@@2@@__crt_stdio_output@@AAE_NXZ 10023fd8 f i libucrt:output.obj
 0001:00023015       ?state_case_flag@?$output_processor@DV?$string_output_adapter@D@__crt_stdio_output@@V?$standard_base@DV?$string_output_adapter@D@__crt_stdio_output@@@2@@__crt_stdio_output@@AAE_NXZ 10024015 f i libucrt:output.obj
 0001:00023052       ?state_case_flag@?$output_processor@_WV?$stream_output_adapter@_W@__crt_stdio_output@@V?$format_validation_base@_WV?$stream_output_adapter@_W@__crt_stdio_output@@@2@@__crt_stdio_output@@AAE_NXZ 10024052 f i libucrt:output.obj
 0001:0002308f       ?state_case_flag@?$output_processor@_WV?$stream_output_adapter@_W@__crt_stdio_output@@V?$positional_parameter_base@_WV?$stream_output_adapter@_W@__crt_stdio_output@@@2@@__crt_stdio_output@@AAE_NXZ 1002408f f i libucrt:output.obj
 0001:000230cc       ?state_case_flag@?$output_processor@_WV?$stream_output_adapter@_W@__crt_stdio_output@@V?$standard_base@_WV?$stream_output_adapter@_W@__crt_stdio_output@@@2@@__crt_stdio_output@@AAE_NXZ 100240cc f i libucrt:output.obj
 0001:00023109       ?state_case_flag@?$output_processor@_WV?$string_output_adapter@_W@__crt_stdio_output@@V?$format_validation_base@_WV?$string_output_adapter@_W@__crt_stdio_output@@@2@@__crt_stdio_output@@AAE_NXZ 10024109 f i libucrt:output.obj
 0001:00023146       ?state_case_flag@?$output_processor@_WV?$string_output_adapter@_W@__crt_stdio_output@@V?$positional_parameter_base@_WV?$string_output_adapter@_W@__crt_stdio_output@@@2@@__crt_stdio_output@@AAE_NXZ 10024146 f i libucrt:output.obj
 0001:00023183       ?state_case_flag@?$output_processor@_WV?$string_output_adapter@_W@__crt_stdio_output@@V?$standard_base@_WV?$string_output_adapter@_W@__crt_stdio_output@@@2@@__crt_stdio_output@@AAE_NXZ 10024183 f i libucrt:output.obj
 0001:000231c0       ?state_case_normal@?$output_processor@DV?$stream_output_adapter@D@__crt_stdio_output@@V?$format_validation_base@DV?$stream_output_adapter@D@__crt_stdio_output@@@2@@__crt_stdio_output@@AAE_NXZ 100241c0 f i libucrt:output.obj
 0001:000231df       ?state_case_normal@?$output_processor@DV?$stream_output_adapter@D@__crt_stdio_output@@V?$positional_parameter_base@DV?$stream_output_adapter@D@__crt_stdio_output@@@2@@__crt_stdio_output@@AAE_NXZ 100241df f i libucrt:output.obj
 0001:00023210       ?state_case_normal@?$output_processor@DV?$stream_output_adapter@D@__crt_stdio_output@@V?$standard_base@DV?$stream_output_adapter@D@__crt_stdio_output@@@2@@__crt_stdio_output@@AAE_NXZ 10024210 f i libucrt:output.obj
 0001:0002322f       ?state_case_normal@?$output_processor@DV?$string_output_adapter@D@__crt_stdio_output@@V?$format_validation_base@DV?$string_output_adapter@D@__crt_stdio_output@@@2@@__crt_stdio_output@@AAE_NXZ 1002422f f i libucrt:output.obj
 0001:0002324e       ?state_case_normal@?$output_processor@DV?$string_output_adapter@D@__crt_stdio_output@@V?$positional_parameter_base@DV?$string_output_adapter@D@__crt_stdio_output@@@2@@__crt_stdio_output@@AAE_NXZ 1002424e f i libucrt:output.obj
 0001:0002327f       ?state_case_normal@?$output_processor@DV?$string_output_adapter@D@__crt_stdio_output@@V?$standard_base@DV?$string_output_adapter@D@__crt_stdio_output@@@2@@__crt_stdio_output@@AAE_NXZ 1002427f f i libucrt:output.obj
 0001:0002329e       ?state_case_normal@?$output_processor@_WV?$stream_output_adapter@_W@__crt_stdio_output@@V?$format_validation_base@_WV?$stream_output_adapter@_W@__crt_stdio_output@@@2@@__crt_stdio_output@@AAE_NXZ 1002429e f i libucrt:output.obj
 0001:000232bd       ?state_case_normal@?$output_processor@_WV?$stream_output_adapter@_W@__crt_stdio_output@@V?$positional_parameter_base@_WV?$stream_output_adapter@_W@__crt_stdio_output@@@2@@__crt_stdio_output@@AAE_NXZ 100242bd f i libucrt:output.obj
 0001:000232ee       ?state_case_normal@?$output_processor@_WV?$stream_output_adapter@_W@__crt_stdio_output@@V?$standard_base@_WV?$stream_output_adapter@_W@__crt_stdio_output@@@2@@__crt_stdio_output@@AAE_NXZ 100242ee f i libucrt:output.obj
 0001:0002330d       ?state_case_normal@?$output_processor@_WV?$string_output_adapter@_W@__crt_stdio_output@@V?$format_validation_base@_WV?$string_output_adapter@_W@__crt_stdio_output@@@2@@__crt_stdio_output@@AAE_NXZ 1002430d f i libucrt:output.obj
 0001:0002332c       ?state_case_normal@?$output_processor@_WV?$string_output_adapter@_W@__crt_stdio_output@@V?$positional_parameter_base@_WV?$string_output_adapter@_W@__crt_stdio_output@@@2@@__crt_stdio_output@@AAE_NXZ 1002432c f i libucrt:output.obj
 0001:0002335d       ?state_case_normal@?$output_processor@_WV?$string_output_adapter@_W@__crt_stdio_output@@V?$standard_base@_WV?$string_output_adapter@_W@__crt_stdio_output@@@2@@__crt_stdio_output@@AAE_NXZ 1002435d f i libucrt:output.obj
 0001:0002337c       ?state_case_normal_common@?$output_processor@DV?$stream_output_adapter@D@__crt_stdio_output@@V?$format_validation_base@DV?$stream_output_adapter@D@__crt_stdio_output@@@2@@__crt_stdio_output@@AAE_NXZ 1002437c f i libucrt:output.obj
 0001:000233b8       ?state_case_normal_common@?$output_processor@DV?$stream_output_adapter@D@__crt_stdio_output@@V?$positional_parameter_base@DV?$stream_output_adapter@D@__crt_stdio_output@@@2@@__crt_stdio_output@@AAE_NXZ 100243b8 f i libucrt:output.obj
 0001:000233f4       ?state_case_normal_common@?$output_processor@DV?$stream_output_adapter@D@__crt_stdio_output@@V?$standard_base@DV?$stream_output_adapter@D@__crt_stdio_output@@@2@@__crt_stdio_output@@AAE_NXZ 100243f4 f i libucrt:output.obj
 0001:00023430       ?state_case_normal_common@?$output_processor@DV?$string_output_adapter@D@__crt_stdio_output@@V?$format_validation_base@DV?$string_output_adapter@D@__crt_stdio_output@@@2@@__crt_stdio_output@@AAE_NXZ 10024430 f i libucrt:output.obj
 0001:0002345a       ?state_case_normal_common@?$output_processor@DV?$string_output_adapter@D@__crt_stdio_output@@V?$positional_parameter_base@DV?$string_output_adapter@D@__crt_stdio_output@@@2@@__crt_stdio_output@@AAE_NXZ 1002445a f i libucrt:output.obj
 0001:00023484       ?state_case_normal_common@?$output_processor@DV?$string_output_adapter@D@__crt_stdio_output@@V?$standard_base@DV?$string_output_adapter@D@__crt_stdio_output@@@2@@__crt_stdio_output@@AAE_NXZ 10024484 f i libucrt:output.obj
 0001:000234ae       ?state_case_normal_common@?$output_processor@_WV?$stream_output_adapter@_W@__crt_stdio_output@@V?$format_validation_base@_WV?$stream_output_adapter@_W@__crt_stdio_output@@@2@@__crt_stdio_output@@AAE_NXZ 100244ae f i libucrt:output.obj
 0001:000234d8       ?state_case_normal_common@?$output_processor@_WV?$stream_output_adapter@_W@__crt_stdio_output@@V?$positional_parameter_base@_WV?$stream_output_adapter@_W@__crt_stdio_output@@@2@@__crt_stdio_output@@AAE_NXZ 100244d8 f i libucrt:output.obj
 0001:00023502       ?state_case_normal_common@?$output_processor@_WV?$stream_output_adapter@_W@__crt_stdio_output@@V?$standard_base@_WV?$stream_output_adapter@_W@__crt_stdio_output@@@2@@__crt_stdio_output@@AAE_NXZ 10024502 f i libucrt:output.obj
 0001:0002352c       ?state_case_normal_common@?$output_processor@_WV?$string_output_adapter@_W@__crt_stdio_output@@V?$format_validation_base@_WV?$string_output_adapter@_W@__crt_stdio_output@@@2@@__crt_stdio_output@@AAE_NXZ 1002452c f i libucrt:output.obj
 0001:00023547       ?state_case_normal_common@?$output_processor@_WV?$string_output_adapter@_W@__crt_stdio_output@@V?$positional_parameter_base@_WV?$string_output_adapter@_W@__crt_stdio_output@@@2@@__crt_stdio_output@@AAE_NXZ 10024547 f i libucrt:output.obj
 0001:00023562       ?state_case_normal_common@?$output_processor@_WV?$string_output_adapter@_W@__crt_stdio_output@@V?$standard_base@_WV?$string_output_adapter@_W@__crt_stdio_output@@@2@@__crt_stdio_output@@AAE_NXZ 10024562 f i libucrt:output.obj
 0001:0002357d       ?state_case_normal_tchar@?$output_processor@DV?$stream_output_adapter@D@__crt_stdio_output@@V?$format_validation_base@DV?$stream_output_adapter@D@__crt_stdio_output@@@2@@__crt_stdio_output@@AAE_ND@Z 1002457d f i libucrt:output.obj
 0001:000235df       ?state_case_normal_tchar@?$output_processor@DV?$stream_output_adapter@D@__crt_stdio_output@@V?$positional_parameter_base@DV?$stream_output_adapter@D@__crt_stdio_output@@@2@@__crt_stdio_output@@AAE_ND@Z 100245df f i libucrt:output.obj
 0001:00023641       ?state_case_normal_tchar@?$output_processor@DV?$stream_output_adapter@D@__crt_stdio_output@@V?$standard_base@DV?$stream_output_adapter@D@__crt_stdio_output@@@2@@__crt_stdio_output@@AAE_ND@Z 10024641 f i libucrt:output.obj
 0001:000236a3       ?state_case_normal_tchar@?$output_processor@DV?$string_output_adapter@D@__crt_stdio_output@@V?$format_validation_base@DV?$string_output_adapter@D@__crt_stdio_output@@@2@@__crt_stdio_output@@AAE_ND@Z 100246a3 f i libucrt:output.obj
 0001:000236fc       ?state_case_normal_tchar@?$output_processor@DV?$string_output_adapter@D@__crt_stdio_output@@V?$positional_parameter_base@DV?$string_output_adapter@D@__crt_stdio_output@@@2@@__crt_stdio_output@@AAE_ND@Z 100246fc f i libucrt:output.obj
 0001:00023755       ?state_case_normal_tchar@?$output_processor@DV?$string_output_adapter@D@__crt_stdio_output@@V?$standard_base@DV?$string_output_adapter@D@__crt_stdio_output@@@2@@__crt_stdio_output@@AAE_ND@Z 10024755 f i libucrt:output.obj
 0001:000237ae       ?state_case_normal_tchar@?$output_processor@_WV?$stream_output_adapter@_W@__crt_stdio_output@@V?$format_validation_base@_WV?$stream_output_adapter@_W@__crt_stdio_output@@@2@@__crt_stdio_output@@AAE_N_W@Z 100247ae f i libucrt:output.obj
 0001:000237b7       ?state_case_normal_tchar@?$output_processor@_WV?$stream_output_adapter@_W@__crt_stdio_output@@V?$positional_parameter_base@_WV?$stream_output_adapter@_W@__crt_stdio_output@@@2@@__crt_stdio_output@@AAE_N_W@Z 100247b7 f i libucrt:output.obj
 0001:000237c0       ?state_case_normal_tchar@?$output_processor@_WV?$stream_output_adapter@_W@__crt_stdio_output@@V?$standard_base@_WV?$stream_output_adapter@_W@__crt_stdio_output@@@2@@__crt_stdio_output@@AAE_N_W@Z 100247c0 f i libucrt:output.obj
 0001:000237c9       ?state_case_normal_tchar@?$output_processor@_WV?$string_output_adapter@_W@__crt_stdio_output@@V?$format_validation_base@_WV?$string_output_adapter@_W@__crt_stdio_output@@@2@@__crt_stdio_output@@AAE_N_W@Z 100247c9 f i libucrt:output.obj
 0001:000237d2       ?state_case_normal_tchar@?$output_processor@_WV?$string_output_adapter@_W@__crt_stdio_output@@V?$positional_parameter_base@_WV?$string_output_adapter@_W@__crt_stdio_output@@@2@@__crt_stdio_output@@AAE_N_W@Z 100247d2 f i libucrt:output.obj
 0001:000237db       ?state_case_normal_tchar@?$output_processor@_WV?$string_output_adapter@_W@__crt_stdio_output@@V?$standard_base@_WV?$string_output_adapter@_W@__crt_stdio_output@@@2@@__crt_stdio_output@@AAE_N_W@Z 100247db f i libucrt:output.obj
 0001:000237e4       ?state_case_percent@?$output_processor@DV?$stream_output_adapter@D@__crt_stdio_output@@V?$format_validation_base@DV?$stream_output_adapter@D@__crt_stdio_output@@@2@@__crt_stdio_output@@AAE_NXZ 100247e4 f i libucrt:output.obj
 0001:000237fc       ?state_case_percent@?$output_processor@DV?$stream_output_adapter@D@__crt_stdio_output@@V?$positional_parameter_base@DV?$stream_output_adapter@D@__crt_stdio_output@@@2@@__crt_stdio_output@@AAE_NXZ 100247fc f i libucrt:output.obj
 0001:00023814       ?state_case_percent@?$output_processor@DV?$stream_output_adapter@D@__crt_stdio_output@@V?$standard_base@DV?$stream_output_adapter@D@__crt_stdio_output@@@2@@__crt_stdio_output@@AAE_NXZ 10024814 f i libucrt:output.obj
 0001:0002382c       ?state_case_percent@?$output_processor@DV?$string_output_adapter@D@__crt_stdio_output@@V?$format_validation_base@DV?$string_output_adapter@D@__crt_stdio_output@@@2@@__crt_stdio_output@@AAE_NXZ 1002482c f i libucrt:output.obj
 0001:00023844       ?state_case_percent@?$output_processor@DV?$string_output_adapter@D@__crt_stdio_output@@V?$positional_parameter_base@DV?$string_output_adapter@D@__crt_stdio_output@@@2@@__crt_stdio_output@@AAE_NXZ 10024844 f i libucrt:output.obj
 0001:0002385c       ?state_case_percent@?$output_processor@DV?$string_output_adapter@D@__crt_stdio_output@@V?$standard_base@DV?$string_output_adapter@D@__crt_stdio_output@@@2@@__crt_stdio_output@@AAE_NXZ 1002485c f i libucrt:output.obj
 0001:00023874       ?state_case_percent@?$output_processor@_WV?$stream_output_adapter@_W@__crt_stdio_output@@V?$format_validation_base@_WV?$stream_output_adapter@_W@__crt_stdio_output@@@2@@__crt_stdio_output@@AAE_NXZ 10024874 f i libucrt:output.obj
 0001:0002388c       ?state_case_percent@?$output_processor@_WV?$stream_output_adapter@_W@__crt_stdio_output@@V?$positional_parameter_base@_WV?$stream_output_adapter@_W@__crt_stdio_output@@@2@@__crt_stdio_output@@AAE_NXZ 1002488c f i libucrt:output.obj
 0001:000238a4       ?state_case_percent@?$output_processor@_WV?$stream_output_adapter@_W@__crt_stdio_output@@V?$standard_base@_WV?$stream_output_adapter@_W@__crt_stdio_output@@@2@@__crt_stdio_output@@AAE_NXZ 100248a4 f i libucrt:output.obj
 0001:000238bc       ?state_case_percent@?$output_processor@_WV?$string_output_adapter@_W@__crt_stdio_output@@V?$format_validation_base@_WV?$string_output_adapter@_W@__crt_stdio_output@@@2@@__crt_stdio_output@@AAE_NXZ 100248bc f i libucrt:output.obj
 0001:000238d4       ?state_case_percent@?$output_processor@_WV?$string_output_adapter@_W@__crt_stdio_output@@V?$positional_parameter_base@_WV?$string_output_adapter@_W@__crt_stdio_output@@@2@@__crt_stdio_output@@AAE_NXZ 100248d4 f i libucrt:output.obj
 0001:000238ec       ?state_case_percent@?$output_processor@_WV?$string_output_adapter@_W@__crt_stdio_output@@V?$standard_base@_WV?$string_output_adapter@_W@__crt_stdio_output@@@2@@__crt_stdio_output@@AAE_NXZ 100248ec f i libucrt:output.obj
 0001:00023904       ?state_case_precision@?$output_processor@DV?$stream_output_adapter@D@__crt_stdio_output@@V?$format_validation_base@DV?$stream_output_adapter@D@__crt_stdio_output@@@2@@__crt_stdio_output@@AAE_NXZ 10024904 f i libucrt:output.obj
 0001:0002392a       ?state_case_precision@?$output_processor@DV?$stream_output_adapter@D@__crt_stdio_output@@V?$positional_parameter_base@DV?$stream_output_adapter@D@__crt_stdio_output@@@2@@__crt_stdio_output@@AAE_NXZ 1002492a f i libucrt:output.obj
 0001:00023964       ?state_case_precision@?$output_processor@DV?$stream_output_adapter@D@__crt_stdio_output@@V?$standard_base@DV?$stream_output_adapter@D@__crt_stdio_output@@@2@@__crt_stdio_output@@AAE_NXZ 10024964 f i libucrt:output.obj
 0001:0002398a       ?state_case_precision@?$output_processor@DV?$string_output_adapter@D@__crt_stdio_output@@V?$format_validation_base@DV?$string_output_adapter@D@__crt_stdio_output@@@2@@__crt_stdio_output@@AAE_NXZ 1002498a f i libucrt:output.obj
 0001:000239b0       ?state_case_precision@?$output_processor@DV?$string_output_adapter@D@__crt_stdio_output@@V?$positional_parameter_base@DV?$string_output_adapter@D@__crt_stdio_output@@@2@@__crt_stdio_output@@AAE_NXZ 100249b0 f i libucrt:output.obj
 0001:000239ea       ?state_case_precision@?$output_processor@DV?$string_output_adapter@D@__crt_stdio_output@@V?$standard_base@DV?$string_output_adapter@D@__crt_stdio_output@@@2@@__crt_stdio_output@@AAE_NXZ 100249ea f i libucrt:output.obj
 0001:00023a10       ?state_case_precision@?$output_processor@_WV?$stream_output_adapter@_W@__crt_stdio_output@@V?$format_validation_base@_WV?$stream_output_adapter@_W@__crt_stdio_output@@@2@@__crt_stdio_output@@AAE_NXZ 10024a10 f i libucrt:output.obj
 0001:00023a37       ?state_case_precision@?$output_processor@_WV?$stream_output_adapter@_W@__crt_stdio_output@@V?$positional_parameter_base@_WV?$stream_output_adapter@_W@__crt_stdio_output@@@2@@__crt_stdio_output@@AAE_NXZ 10024a37 f i libucrt:output.obj
 0001:00023a72       ?state_case_precision@?$output_processor@_WV?$stream_output_adapter@_W@__crt_stdio_output@@V?$standard_base@_WV?$stream_output_adapter@_W@__crt_stdio_output@@@2@@__crt_stdio_output@@AAE_NXZ 10024a72 f i libucrt:output.obj
 0001:00023a99       ?state_case_precision@?$output_processor@_WV?$string_output_adapter@_W@__crt_stdio_output@@V?$format_validation_base@_WV?$string_output_adapter@_W@__crt_stdio_output@@@2@@__crt_stdio_output@@AAE_NXZ 10024a99 f i libucrt:output.obj
 0001:00023ac0       ?state_case_precision@?$output_processor@_WV?$string_output_adapter@_W@__crt_stdio_output@@V?$positional_parameter_base@_WV?$string_output_adapter@_W@__crt_stdio_output@@@2@@__crt_stdio_output@@AAE_NXZ 10024ac0 f i libucrt:output.obj
 0001:00023afb       ?state_case_precision@?$output_processor@_WV?$string_output_adapter@_W@__crt_stdio_output@@V?$standard_base@_WV?$string_output_adapter@_W@__crt_stdio_output@@@2@@__crt_stdio_output@@AAE_NXZ 10024afb f i libucrt:output.obj
 0001:00023b22       ?state_case_size@?$output_processor@DV?$stream_output_adapter@D@__crt_stdio_output@@V?$format_validation_base@DV?$stream_output_adapter@D@__crt_stdio_output@@@2@@__crt_stdio_output@@AAE_NXZ 10024b22 f i libucrt:output.obj
 0001:00023c7c       ?state_case_size@?$output_processor@DV?$stream_output_adapter@D@__crt_stdio_output@@V?$positional_parameter_base@DV?$stream_output_adapter@D@__crt_stdio_output@@@2@@__crt_stdio_output@@AAE_NXZ 10024c7c f i libucrt:output.obj
 0001:00023dd6       ?state_case_size@?$output_processor@DV?$stream_output_adapter@D@__crt_stdio_output@@V?$standard_base@DV?$stream_output_adapter@D@__crt_stdio_output@@@2@@__crt_stdio_output@@AAE_NXZ 10024dd6 f i libucrt:output.obj
 0001:00023f30       ?state_case_size@?$output_processor@DV?$string_output_adapter@D@__crt_stdio_output@@V?$format_validation_base@DV?$string_output_adapter@D@__crt_stdio_output@@@2@@__crt_stdio_output@@AAE_NXZ 10024f30 f i libucrt:output.obj
 0001:0002408a       ?state_case_size@?$output_processor@DV?$string_output_adapter@D@__crt_stdio_output@@V?$positional_parameter_base@DV?$string_output_adapter@D@__crt_stdio_output@@@2@@__crt_stdio_output@@AAE_NXZ 1002508a f i libucrt:output.obj
 0001:000241e4       ?state_case_size@?$output_processor@DV?$string_output_adapter@D@__crt_stdio_output@@V?$standard_base@DV?$string_output_adapter@D@__crt_stdio_output@@@2@@__crt_stdio_output@@AAE_NXZ 100251e4 f i libucrt:output.obj
 0001:0002433e       ?state_case_size@?$output_processor@_WV?$stream_output_adapter@_W@__crt_stdio_output@@V?$format_validation_base@_WV?$stream_output_adapter@_W@__crt_stdio_output@@@2@@__crt_stdio_output@@AAE_NXZ 1002533e f i libucrt:output.obj
 0001:000244ab       ?state_case_size@?$output_processor@_WV?$stream_output_adapter@_W@__crt_stdio_output@@V?$positional_parameter_base@_WV?$stream_output_adapter@_W@__crt_stdio_output@@@2@@__crt_stdio_output@@AAE_NXZ 100254ab f i libucrt:output.obj
 0001:00024618       ?state_case_size@?$output_processor@_WV?$stream_output_adapter@_W@__crt_stdio_output@@V?$standard_base@_WV?$stream_output_adapter@_W@__crt_stdio_output@@@2@@__crt_stdio_output@@AAE_NXZ 10025618 f i libucrt:output.obj
 0001:00024785       ?state_case_size@?$output_processor@_WV?$string_output_adapter@_W@__crt_stdio_output@@V?$format_validation_base@_WV?$string_output_adapter@_W@__crt_stdio_output@@@2@@__crt_stdio_output@@AAE_NXZ 10025785 f i libucrt:output.obj
 0001:000248f2       ?state_case_size@?$output_processor@_WV?$string_output_adapter@_W@__crt_stdio_output@@V?$positional_parameter_base@_WV?$string_output_adapter@_W@__crt_stdio_output@@@2@@__crt_stdio_output@@AAE_NXZ 100258f2 f i libucrt:output.obj
 0001:00024a5f       ?state_case_size@?$output_processor@_WV?$string_output_adapter@_W@__crt_stdio_output@@V?$standard_base@_WV?$string_output_adapter@_W@__crt_stdio_output@@@2@@__crt_stdio_output@@AAE_NXZ 10025a5f f i libucrt:output.obj
 0001:00024bcc       ?state_case_type@?$output_processor@DV?$stream_output_adapter@D@__crt_stdio_output@@V?$format_validation_base@DV?$stream_output_adapter@D@__crt_stdio_output@@@2@@__crt_stdio_output@@AAE_NXZ 10025bcc f i libucrt:output.obj
 0001:00024df5       ?state_case_type@?$output_processor@DV?$stream_output_adapter@D@__crt_stdio_output@@V?$positional_parameter_base@DV?$stream_output_adapter@D@__crt_stdio_output@@@2@@__crt_stdio_output@@AAE_NXZ 10025df5 f i libucrt:output.obj
 0001:00025029       ?state_case_type@?$output_processor@DV?$stream_output_adapter@D@__crt_stdio_output@@V?$standard_base@DV?$stream_output_adapter@D@__crt_stdio_output@@@2@@__crt_stdio_output@@AAE_NXZ 10026029 f i libucrt:output.obj
 0001:00025252       ?state_case_type@?$output_processor@DV?$string_output_adapter@D@__crt_stdio_output@@V?$format_validation_base@DV?$string_output_adapter@D@__crt_stdio_output@@@2@@__crt_stdio_output@@AAE_NXZ 10026252 f i libucrt:output.obj
 0001:0002547b       ?state_case_type@?$output_processor@DV?$string_output_adapter@D@__crt_stdio_output@@V?$positional_parameter_base@DV?$string_output_adapter@D@__crt_stdio_output@@@2@@__crt_stdio_output@@AAE_NXZ 1002647b f i libucrt:output.obj
 0001:000256af       ?state_case_type@?$output_processor@DV?$string_output_adapter@D@__crt_stdio_output@@V?$standard_base@DV?$string_output_adapter@D@__crt_stdio_output@@@2@@__crt_stdio_output@@AAE_NXZ 100266af f i libucrt:output.obj
 0001:000258d8       ?state_case_type@?$output_processor@_WV?$stream_output_adapter@_W@__crt_stdio_output@@V?$format_validation_base@_WV?$stream_output_adapter@_W@__crt_stdio_output@@@2@@__crt_stdio_output@@AAE_NXZ 100268d8 f i libucrt:output.obj
 0001:00025b3f       ?state_case_type@?$output_processor@_WV?$stream_output_adapter@_W@__crt_stdio_output@@V?$positional_parameter_base@_WV?$stream_output_adapter@_W@__crt_stdio_output@@@2@@__crt_stdio_output@@AAE_NXZ 10026b3f f i libucrt:output.obj
 0001:00025db5       ?state_case_type@?$output_processor@_WV?$stream_output_adapter@_W@__crt_stdio_output@@V?$standard_base@_WV?$stream_output_adapter@_W@__crt_stdio_output@@@2@@__crt_stdio_output@@AAE_NXZ 10026db5 f i libucrt:output.obj
 0001:0002601c       ?state_case_type@?$output_processor@_WV?$string_output_adapter@_W@__crt_stdio_output@@V?$format_validation_base@_WV?$string_output_adapter@_W@__crt_stdio_output@@@2@@__crt_stdio_output@@AAE_NXZ 1002701c f i libucrt:output.obj
 0001:00026283       ?state_case_type@?$output_processor@_WV?$string_output_adapter@_W@__crt_stdio_output@@V?$positional_parameter_base@_WV?$string_output_adapter@_W@__crt_stdio_output@@@2@@__crt_stdio_output@@AAE_NXZ 10027283 f i libucrt:output.obj
 0001:000264f9       ?state_case_type@?$output_processor@_WV?$string_output_adapter@_W@__crt_stdio_output@@V?$standard_base@_WV?$string_output_adapter@_W@__crt_stdio_output@@@2@@__crt_stdio_output@@AAE_NXZ 100274f9 f i libucrt:output.obj
 0001:00026760       ?state_case_width@?$output_processor@DV?$stream_output_adapter@D@__crt_stdio_output@@V?$format_validation_base@DV?$stream_output_adapter@D@__crt_stdio_output@@@2@@__crt_stdio_output@@AAE_NXZ 10027760 f i libucrt:output.obj
 0001:0002678b       ?state_case_width@?$output_processor@DV?$stream_output_adapter@D@__crt_stdio_output@@V?$positional_parameter_base@DV?$stream_output_adapter@D@__crt_stdio_output@@@2@@__crt_stdio_output@@AAE_NXZ 1002778b f i libucrt:output.obj
 0001:000267cb       ?state_case_width@?$output_processor@DV?$stream_output_adapter@D@__crt_stdio_output@@V?$standard_base@DV?$stream_output_adapter@D@__crt_stdio_output@@@2@@__crt_stdio_output@@AAE_NXZ 100277cb f i libucrt:output.obj
 0001:000267f6       ?state_case_width@?$output_processor@DV?$string_output_adapter@D@__crt_stdio_output@@V?$format_validation_base@DV?$string_output_adapter@D@__crt_stdio_output@@@2@@__crt_stdio_output@@AAE_NXZ 100277f6 f i libucrt:output.obj
 0001:00026821       ?state_case_width@?$output_processor@DV?$string_output_adapter@D@__crt_stdio_output@@V?$positional_parameter_base@DV?$string_output_adapter@D@__crt_stdio_output@@@2@@__crt_stdio_output@@AAE_NXZ 10027821 f i libucrt:output.obj
 0001:00026861       ?state_case_width@?$output_processor@DV?$string_output_adapter@D@__crt_stdio_output@@V?$standard_base@DV?$string_output_adapter@D@__crt_stdio_output@@@2@@__crt_stdio_output@@AAE_NXZ 10027861 f i libucrt:output.obj
 0001:0002688c       ?state_case_width@?$output_processor@_WV?$stream_output_adapter@_W@__crt_stdio_output@@V?$format_validation_base@_WV?$stream_output_adapter@_W@__crt_stdio_output@@@2@@__crt_stdio_output@@AAE_NXZ 1002788c f i libucrt:output.obj
 0001:000268b8       ?state_case_width@?$output_processor@_WV?$stream_output_adapter@_W@__crt_stdio_output@@V?$positional_parameter_base@_WV?$stream_output_adapter@_W@__crt_stdio_output@@@2@@__crt_stdio_output@@AAE_NXZ 100278b8 f i libucrt:output.obj
 0001:000268f9       ?state_case_width@?$output_processor@_WV?$stream_output_adapter@_W@__crt_stdio_output@@V?$standard_base@_WV?$stream_output_adapter@_W@__crt_stdio_output@@@2@@__crt_stdio_output@@AAE_NXZ 100278f9 f i libucrt:output.obj
 0001:00026925       ?state_case_width@?$output_processor@_WV?$string_output_adapter@_W@__crt_stdio_output@@V?$format_validation_base@_WV?$string_output_adapter@_W@__crt_stdio_output@@@2@@__crt_stdio_output@@AAE_NXZ 10027925 f i libucrt:output.obj
 0001:00026951       ?state_case_width@?$output_processor@_WV?$string_output_adapter@_W@__crt_stdio_output@@V?$positional_parameter_base@_WV?$string_output_adapter@_W@__crt_stdio_output@@@2@@__crt_stdio_output@@AAE_NXZ 10027951 f i libucrt:output.obj
 0001:00026992       ?state_case_width@?$output_processor@_WV?$string_output_adapter@_W@__crt_stdio_output@@V?$standard_base@_WV?$string_output_adapter@_W@__crt_stdio_output@@@2@@__crt_stdio_output@@AAE_NXZ 10027992 f i libucrt:output.obj
 0001:000269be       ?state_count@?$format_validation_base@DV?$stream_output_adapter@D@__crt_stdio_output@@@__crt_stdio_output@@KAIXZ 100279be f i libucrt:output.obj
 0001:000269c2       ?state_count@?$format_validation_base@DV?$string_output_adapter@D@__crt_stdio_output@@@__crt_stdio_output@@KAIXZ 100279c2 f i libucrt:output.obj
 0001:000269c6       ?state_count@?$format_validation_base@_WV?$stream_output_adapter@_W@__crt_stdio_output@@@__crt_stdio_output@@KAIXZ 100279c6 f i libucrt:output.obj
 0001:000269ca       ?state_count@?$format_validation_base@_WV?$string_output_adapter@_W@__crt_stdio_output@@@__crt_stdio_output@@KAIXZ 100279ca f i libucrt:output.obj
 0001:000269ce       ?state_count@?$standard_base@DV?$stream_output_adapter@D@__crt_stdio_output@@@__crt_stdio_output@@KAIXZ 100279ce f i libucrt:output.obj
 0001:000269d2       ?state_count@?$standard_base@DV?$string_output_adapter@D@__crt_stdio_output@@@__crt_stdio_output@@KAIXZ 100279d2 f i libucrt:output.obj
 0001:000269d6       ?state_count@?$standard_base@_WV?$stream_output_adapter@_W@__crt_stdio_output@@@__crt_stdio_output@@KAIXZ 100279d6 f i libucrt:output.obj
 0001:000269da       ?state_count@?$standard_base@_WV?$string_output_adapter@_W@__crt_stdio_output@@@__crt_stdio_output@@KAIXZ 100279da f i libucrt:output.obj
 0001:000269de       ?state_transition_table@?$format_validation_base@DV?$stream_output_adapter@D@__crt_stdio_output@@@__crt_stdio_output@@KAPBEXZ 100279de f i libucrt:output.obj
 0001:000269e4       ?state_transition_table@?$format_validation_base@DV?$string_output_adapter@D@__crt_stdio_output@@@__crt_stdio_output@@KAPBEXZ 100279e4 f i libucrt:output.obj
 0001:000269ea       ?state_transition_table@?$format_validation_base@_WV?$stream_output_adapter@_W@__crt_stdio_output@@@__crt_stdio_output@@KAPBEXZ 100279ea f i libucrt:output.obj
 0001:000269f0       ?state_transition_table@?$format_validation_base@_WV?$string_output_adapter@_W@__crt_stdio_output@@@__crt_stdio_output@@KAPBEXZ 100279f0 f i libucrt:output.obj
 0001:000269f6       ?state_transition_table@?$standard_base@DV?$stream_output_adapter@D@__crt_stdio_output@@@__crt_stdio_output@@KAPBEXZ 100279f6 f i libucrt:output.obj
 0001:000269fc       ?state_transition_table@?$standard_base@DV?$string_output_adapter@D@__crt_stdio_output@@@__crt_stdio_output@@KAPBEXZ 100279fc f i libucrt:output.obj
 0001:00026a02       ?state_transition_table@?$standard_base@_WV?$stream_output_adapter@_W@__crt_stdio_output@@@__crt_stdio_output@@KAPBEXZ 10027a02 f i libucrt:output.obj
 0001:00026a08       ?state_transition_table@?$standard_base@_WV?$string_output_adapter@_W@__crt_stdio_output@@@__crt_stdio_output@@KAPBEXZ 10027a08 f i libucrt:output.obj
 0001:00026a0e       ?tchar_string@?$common_data@D@__crt_stdio_output@@IAEAAPADD@Z 10027a0e f i libucrt:output.obj
 0001:00026a14       ?tchar_string@?$common_data@D@__crt_stdio_output@@IAEAAPADXZ 10027a14 f i libucrt:output.obj
 0001:00026a18       ?tchar_string@?$common_data@_W@__crt_stdio_output@@IAEAAPA_WXZ 10027a18 f i libucrt:output.obj
 0001:00026a1c       ?tchar_string@?$common_data@_W@__crt_stdio_output@@IAEAAPA_W_W@Z 10027a1c f i libucrt:output.obj
 0001:00026a22       ?to_integer_size@__crt_stdio_output@@YAIW4length_modifier@1@@Z 10027a22 f i libucrt:output.obj
 0001:00026a7e       ?type_case_X@?$output_processor@DV?$stream_output_adapter@D@__crt_stdio_output@@V?$format_validation_base@DV?$stream_output_adapter@D@__crt_stdio_output@@@2@@__crt_stdio_output@@AAE_NXZ 10027a7e f i libucrt:output.obj
 0001:00026a88       ?type_case_X@?$output_processor@DV?$stream_output_adapter@D@__crt_stdio_output@@V?$positional_parameter_base@DV?$stream_output_adapter@D@__crt_stdio_output@@@2@@__crt_stdio_output@@AAE_NXZ 10027a88 f i libucrt:output.obj
 0001:00026a92       ?type_case_X@?$output_processor@DV?$stream_output_adapter@D@__crt_stdio_output@@V?$standard_base@DV?$stream_output_adapter@D@__crt_stdio_output@@@2@@__crt_stdio_output@@AAE_NXZ 10027a92 f i libucrt:output.obj
 0001:00026a9c       ?type_case_X@?$output_processor@DV?$string_output_adapter@D@__crt_stdio_output@@V?$format_validation_base@DV?$string_output_adapter@D@__crt_stdio_output@@@2@@__crt_stdio_output@@AAE_NXZ 10027a9c f i libucrt:output.obj
 0001:00026aa6       ?type_case_X@?$output_processor@DV?$string_output_adapter@D@__crt_stdio_output@@V?$positional_parameter_base@DV?$string_output_adapter@D@__crt_stdio_output@@@2@@__crt_stdio_output@@AAE_NXZ 10027aa6 f i libucrt:output.obj
 0001:00026ab0       ?type_case_X@?$output_processor@DV?$string_output_adapter@D@__crt_stdio_output@@V?$standard_base@DV?$string_output_adapter@D@__crt_stdio_output@@@2@@__crt_stdio_output@@AAE_NXZ 10027ab0 f i libucrt:output.obj
 0001:00026aba       ?type_case_X@?$output_processor@_WV?$stream_output_adapter@_W@__crt_stdio_output@@V?$format_validation_base@_WV?$stream_output_adapter@_W@__crt_stdio_output@@@2@@__crt_stdio_output@@AAE_NXZ 10027aba f i libucrt:output.obj
 0001:00026ac4       ?type_case_X@?$output_processor@_WV?$stream_output_adapter@_W@__crt_stdio_output@@V?$positional_parameter_base@_WV?$stream_output_adapter@_W@__crt_stdio_output@@@2@@__crt_stdio_output@@AAE_NXZ 10027ac4 f i libucrt:output.obj
 0001:00026ace       ?type_case_X@?$output_processor@_WV?$stream_output_adapter@_W@__crt_stdio_output@@V?$standard_base@_WV?$stream_output_adapter@_W@__crt_stdio_output@@@2@@__crt_stdio_output@@AAE_NXZ 10027ace f i libucrt:output.obj
 0001:00026ad8       ?type_case_X@?$output_processor@_WV?$string_output_adapter@_W@__crt_stdio_output@@V?$format_validation_base@_WV?$string_output_adapter@_W@__crt_stdio_output@@@2@@__crt_stdio_output@@AAE_NXZ 10027ad8 f i libucrt:output.obj
 0001:00026ae2       ?type_case_X@?$output_processor@_WV?$string_output_adapter@_W@__crt_stdio_output@@V?$positional_parameter_base@_WV?$string_output_adapter@_W@__crt_stdio_output@@@2@@__crt_stdio_output@@AAE_NXZ 10027ae2 f i libucrt:output.obj
 0001:00026aec       ?type_case_X@?$output_processor@_WV?$string_output_adapter@_W@__crt_stdio_output@@V?$standard_base@_WV?$string_output_adapter@_W@__crt_stdio_output@@@2@@__crt_stdio_output@@AAE_NXZ 10027aec f i libucrt:output.obj
 0001:00026af6       ?type_case_Z@?$output_processor@DV?$stream_output_adapter@D@__crt_stdio_output@@V?$format_validation_base@DV?$stream_output_adapter@D@__crt_stdio_output@@@2@@__crt_stdio_output@@AAE_NXZ 10027af6 f i libucrt:output.obj
 0001:00026b57       ?type_case_Z@?$output_processor@DV?$stream_output_adapter@D@__crt_stdio_output@@V?$positional_parameter_base@DV?$stream_output_adapter@D@__crt_stdio_output@@@2@@__crt_stdio_output@@AAE_NXZ 10027b57 f i libucrt:output.obj
 0001:00026c36       ?type_case_Z@?$output_processor@DV?$stream_output_adapter@D@__crt_stdio_output@@V?$standard_base@DV?$stream_output_adapter@D@__crt_stdio_output@@@2@@__crt_stdio_output@@AAE_NXZ 10027c36 f i libucrt:output.obj
 0001:00026c97       ?type_case_Z@?$output_processor@DV?$string_output_adapter@D@__crt_stdio_output@@V?$format_validation_base@DV?$string_output_adapter@D@__crt_stdio_output@@@2@@__crt_stdio_output@@AAE_NXZ 10027c97 f i libucrt:output.obj
 0001:00026cf8       ?type_case_Z@?$output_processor@DV?$string_output_adapter@D@__crt_stdio_output@@V?$positional_parameter_base@DV?$string_output_adapter@D@__crt_stdio_output@@@2@@__crt_stdio_output@@AAE_NXZ 10027cf8 f i libucrt:output.obj
 0001:00026dd7       ?type_case_Z@?$output_processor@DV?$string_output_adapter@D@__crt_stdio_output@@V?$standard_base@DV?$string_output_adapter@D@__crt_stdio_output@@@2@@__crt_stdio_output@@AAE_NXZ 10027dd7 f i libucrt:output.obj
 0001:00026e38       ?type_case_Z@?$output_processor@_WV?$stream_output_adapter@_W@__crt_stdio_output@@V?$format_validation_base@_WV?$stream_output_adapter@_W@__crt_stdio_output@@@2@@__crt_stdio_output@@AAE_NXZ 10027e38 f i libucrt:output.obj
 0001:00026e99       ?type_case_Z@?$output_processor@_WV?$stream_output_adapter@_W@__crt_stdio_output@@V?$positional_parameter_base@_WV?$stream_output_adapter@_W@__crt_stdio_output@@@2@@__crt_stdio_output@@AAE_NXZ 10027e99 f i libucrt:output.obj
 0001:00026f78       ?type_case_Z@?$output_processor@_WV?$stream_output_adapter@_W@__crt_stdio_output@@V?$standard_base@_WV?$stream_output_adapter@_W@__crt_stdio_output@@@2@@__crt_stdio_output@@AAE_NXZ 10027f78 f i libucrt:output.obj
 0001:00026fd9       ?type_case_Z@?$output_processor@_WV?$string_output_adapter@_W@__crt_stdio_output@@V?$format_validation_base@_WV?$string_output_adapter@_W@__crt_stdio_output@@@2@@__crt_stdio_output@@AAE_NXZ 10027fd9 f i libucrt:output.obj
 0001:0002703a       ?type_case_Z@?$output_processor@_WV?$string_output_adapter@_W@__crt_stdio_output@@V?$positional_parameter_base@_WV?$string_output_adapter@_W@__crt_stdio_output@@@2@@__crt_stdio_output@@AAE_NXZ 1002803a f i libucrt:output.obj
 0001:00027119       ?type_case_Z@?$output_processor@_WV?$string_output_adapter@_W@__crt_stdio_output@@V?$standard_base@_WV?$string_output_adapter@_W@__crt_stdio_output@@@2@@__crt_stdio_output@@AAE_NXZ 10028119 f i libucrt:output.obj
 0001:0002717a       ?type_case_a@?$output_processor@DV?$stream_output_adapter@D@__crt_stdio_output@@V?$format_validation_base@DV?$stream_output_adapter@D@__crt_stdio_output@@@2@@__crt_stdio_output@@AAE_NXZ 1002817a f i libucrt:output.obj
 0001:000272d3       ?type_case_a@?$output_processor@DV?$stream_output_adapter@D@__crt_stdio_output@@V?$positional_parameter_base@DV?$stream_output_adapter@D@__crt_stdio_output@@@2@@__crt_stdio_output@@AAE_NXZ 100282d3 f i libucrt:output.obj
 0001:0002744b       ?type_case_a@?$output_processor@DV?$stream_output_adapter@D@__crt_stdio_output@@V?$standard_base@DV?$stream_output_adapter@D@__crt_stdio_output@@@2@@__crt_stdio_output@@AAE_NXZ 1002844b f i libucrt:output.obj
 0001:000275a4       ?type_case_a@?$output_processor@DV?$string_output_adapter@D@__crt_stdio_output@@V?$format_validation_base@DV?$string_output_adapter@D@__crt_stdio_output@@@2@@__crt_stdio_output@@AAE_NXZ 100285a4 f i libucrt:output.obj
 0001:000276fd       ?type_case_a@?$output_processor@DV?$string_output_adapter@D@__crt_stdio_output@@V?$positional_parameter_base@DV?$string_output_adapter@D@__crt_stdio_output@@@2@@__crt_stdio_output@@AAE_NXZ 100286fd f i libucrt:output.obj
 0001:00027875       ?type_case_a@?$output_processor@DV?$string_output_adapter@D@__crt_stdio_output@@V?$standard_base@DV?$string_output_adapter@D@__crt_stdio_output@@@2@@__crt_stdio_output@@AAE_NXZ 10028875 f i libucrt:output.obj
 0001:000279ce       ?type_case_a@?$output_processor@_WV?$stream_output_adapter@_W@__crt_stdio_output@@V?$format_validation_base@_WV?$stream_output_adapter@_W@__crt_stdio_output@@@2@@__crt_stdio_output@@AAE_NXZ 100289ce f i libucrt:output.obj
 0001:00027b3d       ?type_case_a@?$output_processor@_WV?$stream_output_adapter@_W@__crt_stdio_output@@V?$positional_parameter_base@_WV?$stream_output_adapter@_W@__crt_stdio_output@@@2@@__crt_stdio_output@@AAE_NXZ 10028b3d f i libucrt:output.obj
 0001:00027ccb       ?type_case_a@?$output_processor@_WV?$stream_output_adapter@_W@__crt_stdio_output@@V?$standard_base@_WV?$stream_output_adapter@_W@__crt_stdio_output@@@2@@__crt_stdio_output@@AAE_NXZ 10028ccb f i libucrt:output.obj
 0001:00027e3a       ?type_case_a@?$output_processor@_WV?$string_output_adapter@_W@__crt_stdio_output@@V?$format_validation_base@_WV?$string_output_adapter@_W@__crt_stdio_output@@@2@@__crt_stdio_output@@AAE_NXZ 10028e3a f i libucrt:output.obj
 0001:00027fa9       ?type_case_a@?$output_processor@_WV?$string_output_adapter@_W@__crt_stdio_output@@V?$positional_parameter_base@_WV?$string_output_adapter@_W@__crt_stdio_output@@@2@@__crt_stdio_output@@AAE_NXZ 10028fa9 f i libucrt:output.obj
 0001:00028137       ?type_case_a@?$output_processor@_WV?$string_output_adapter@_W@__crt_stdio_output@@V?$standard_base@_WV?$string_output_adapter@_W@__crt_stdio_output@@@2@@__crt_stdio_output@@AAE_NXZ 10029137 f i libucrt:output.obj
 0001:000282a6       ?type_case_c@?$output_processor@DV?$stream_output_adapter@D@__crt_stdio_output@@V?$format_validation_base@DV?$stream_output_adapter@D@__crt_stdio_output@@@2@@__crt_stdio_output@@AAE_NXZ 100292a6 f i libucrt:output.obj
 0001:000282ae       ?type_case_c@?$output_processor@DV?$stream_output_adapter@D@__crt_stdio_output@@V?$positional_parameter_base@DV?$stream_output_adapter@D@__crt_stdio_output@@@2@@__crt_stdio_output@@AAE_NXZ 100292ae f i libucrt:output.obj
 0001:000282b6       ?type_case_c@?$output_processor@DV?$stream_output_adapter@D@__crt_stdio_output@@V?$standard_base@DV?$stream_output_adapter@D@__crt_stdio_output@@@2@@__crt_stdio_output@@AAE_NXZ 100292b6 f i libucrt:output.obj
 0001:000282be       ?type_case_c@?$output_processor@DV?$string_output_adapter@D@__crt_stdio_output@@V?$format_validation_base@DV?$string_output_adapter@D@__crt_stdio_output@@@2@@__crt_stdio_output@@AAE_NXZ 100292be f i libucrt:output.obj
 0001:000282c6       ?type_case_c@?$output_processor@DV?$string_output_adapter@D@__crt_stdio_output@@V?$positional_parameter_base@DV?$string_output_adapter@D@__crt_stdio_output@@@2@@__crt_stdio_output@@AAE_NXZ 100292c6 f i libucrt:output.obj
 0001:000282ce       ?type_case_c@?$output_processor@DV?$string_output_adapter@D@__crt_stdio_output@@V?$standard_base@DV?$string_output_adapter@D@__crt_stdio_output@@@2@@__crt_stdio_output@@AAE_NXZ 100292ce f i libucrt:output.obj
 0001:000282d6       ?type_case_c@?$output_processor@_WV?$stream_output_adapter@_W@__crt_stdio_output@@V?$format_validation_base@_WV?$stream_output_adapter@_W@__crt_stdio_output@@@2@@__crt_stdio_output@@AAE_NXZ 100292d6 f i libucrt:output.obj
 0001:000282de       ?type_case_c@?$output_processor@_WV?$stream_output_adapter@_W@__crt_stdio_output@@V?$positional_parameter_base@_WV?$stream_output_adapter@_W@__crt_stdio_output@@@2@@__crt_stdio_output@@AAE_NXZ 100292de f i libucrt:output.obj
 0001:000282e6       ?type_case_c@?$output_processor@_WV?$stream_output_adapter@_W@__crt_stdio_output@@V?$standard_base@_WV?$stream_output_adapter@_W@__crt_stdio_output@@@2@@__crt_stdio_output@@AAE_NXZ 100292e6 f i libucrt:output.obj
 0001:000282ee       ?type_case_c@?$output_processor@_WV?$string_output_adapter@_W@__crt_stdio_output@@V?$format_validation_base@_WV?$string_output_adapter@_W@__crt_stdio_output@@@2@@__crt_stdio_output@@AAE_NXZ 100292ee f i libucrt:output.obj
 0001:000282f6       ?type_case_c@?$output_processor@_WV?$string_output_adapter@_W@__crt_stdio_output@@V?$positional_parameter_base@_WV?$string_output_adapter@_W@__crt_stdio_output@@@2@@__crt_stdio_output@@AAE_NXZ 100292f6 f i libucrt:output.obj
 0001:000282fe       ?type_case_c@?$output_processor@_WV?$string_output_adapter@_W@__crt_stdio_output@@V?$standard_base@_WV?$string_output_adapter@_W@__crt_stdio_output@@@2@@__crt_stdio_output@@AAE_NXZ 100292fe f i libucrt:output.obj
 0001:00028306       ?type_case_c_tchar@?$output_processor@DV?$stream_output_adapter@D@__crt_stdio_output@@V?$format_validation_base@DV?$stream_output_adapter@D@__crt_stdio_output@@@2@@__crt_stdio_output@@AAE_ND@Z 10029306 f i libucrt:output.obj
 0001:00028396       ?type_case_c_tchar@?$output_processor@DV?$stream_output_adapter@D@__crt_stdio_output@@V?$positional_parameter_base@DV?$stream_output_adapter@D@__crt_stdio_output@@@2@@__crt_stdio_output@@AAE_ND@Z 10029396 f i libucrt:output.obj
 0001:00028456       ?type_case_c_tchar@?$output_processor@DV?$stream_output_adapter@D@__crt_stdio_output@@V?$standard_base@DV?$stream_output_adapter@D@__crt_stdio_output@@@2@@__crt_stdio_output@@AAE_ND@Z 10029456 f i libucrt:output.obj
 0001:000284e6       ?type_case_c_tchar@?$output_processor@DV?$string_output_adapter@D@__crt_stdio_output@@V?$format_validation_base@DV?$string_output_adapter@D@__crt_stdio_output@@@2@@__crt_stdio_output@@AAE_ND@Z 100294e6 f i libucrt:output.obj
 0001:00028576       ?type_case_c_tchar@?$output_processor@DV?$string_output_adapter@D@__crt_stdio_output@@V?$positional_parameter_base@DV?$string_output_adapter@D@__crt_stdio_output@@@2@@__crt_stdio_output@@AAE_ND@Z 10029576 f i libucrt:output.obj
 0001:00028636       ?type_case_c_tchar@?$output_processor@DV?$string_output_adapter@D@__crt_stdio_output@@V?$standard_base@DV?$string_output_adapter@D@__crt_stdio_output@@@2@@__crt_stdio_output@@AAE_ND@Z 10029636 f i libucrt:output.obj
 0001:000286c6       ?type_case_c_tchar@?$output_processor@_WV?$stream_output_adapter@_W@__crt_stdio_output@@V?$format_validation_base@_WV?$stream_output_adapter@_W@__crt_stdio_output@@@2@@__crt_stdio_output@@AAE_N_W@Z 100296c6 f i libucrt:output.obj
 0001:0002875e       ?type_case_c_tchar@?$output_processor@_WV?$stream_output_adapter@_W@__crt_stdio_output@@V?$positional_parameter_base@_WV?$stream_output_adapter@_W@__crt_stdio_output@@@2@@__crt_stdio_output@@AAE_N_W@Z 1002975e f i libucrt:output.obj
 0001:0002880d       ?type_case_c_tchar@?$output_processor@_WV?$stream_output_adapter@_W@__crt_stdio_output@@V?$standard_base@_WV?$stream_output_adapter@_W@__crt_stdio_output@@@2@@__crt_stdio_output@@AAE_N_W@Z 1002980d f i libucrt:output.obj
 0001:000288a5       ?type_case_c_tchar@?$output_processor@_WV?$string_output_adapter@_W@__crt_stdio_output@@V?$format_validation_base@_WV?$string_output_adapter@_W@__crt_stdio_output@@@2@@__crt_stdio_output@@AAE_N_W@Z 100298a5 f i libucrt:output.obj
 0001:0002893d       ?type_case_c_tchar@?$output_processor@_WV?$string_output_adapter@_W@__crt_stdio_output@@V?$positional_parameter_base@_WV?$string_output_adapter@_W@__crt_stdio_output@@@2@@__crt_stdio_output@@AAE_N_W@Z 1002993d f i libucrt:output.obj
 0001:000289ec       ?type_case_c_tchar@?$output_processor@_WV?$string_output_adapter@_W@__crt_stdio_output@@V?$standard_base@_WV?$string_output_adapter@_W@__crt_stdio_output@@@2@@__crt_stdio_output@@AAE_N_W@Z 100299ec f i libucrt:output.obj
 0001:00028a84       ?type_case_d@?$output_processor@DV?$stream_output_adapter@D@__crt_stdio_output@@V?$format_validation_base@DV?$stream_output_adapter@D@__crt_stdio_output@@@2@@__crt_stdio_output@@AAE_NXZ 10029a84 f i libucrt:output.obj
 0001:00028a92       ?type_case_d@?$output_processor@DV?$stream_output_adapter@D@__crt_stdio_output@@V?$positional_parameter_base@DV?$stream_output_adapter@D@__crt_stdio_output@@@2@@__crt_stdio_output@@AAE_NXZ 10029a92 f i libucrt:output.obj
 0001:00028aa0       ?type_case_d@?$output_processor@DV?$stream_output_adapter@D@__crt_stdio_output@@V?$standard_base@DV?$stream_output_adapter@D@__crt_stdio_output@@@2@@__crt_stdio_output@@AAE_NXZ 10029aa0 f i libucrt:output.obj
 0001:00028aae       ?type_case_d@?$output_processor@DV?$string_output_adapter@D@__crt_stdio_output@@V?$format_validation_base@DV?$string_output_adapter@D@__crt_stdio_output@@@2@@__crt_stdio_output@@AAE_NXZ 10029aae f i libucrt:output.obj
 0001:00028abc       ?type_case_d@?$output_processor@DV?$string_output_adapter@D@__crt_stdio_output@@V?$positional_parameter_base@DV?$string_output_adapter@D@__crt_stdio_output@@@2@@__crt_stdio_output@@AAE_NXZ 10029abc f i libucrt:output.obj
 0001:00028aca       ?type_case_d@?$output_processor@DV?$string_output_adapter@D@__crt_stdio_output@@V?$standard_base@DV?$string_output_adapter@D@__crt_stdio_output@@@2@@__crt_stdio_output@@AAE_NXZ 10029aca f i libucrt:output.obj
 0001:00028ad8       ?type_case_d@?$output_processor@_WV?$stream_output_adapter@_W@__crt_stdio_output@@V?$format_validation_base@_WV?$stream_output_adapter@_W@__crt_stdio_output@@@2@@__crt_stdio_output@@AAE_NXZ 10029ad8 f i libucrt:output.obj
 0001:00028ae6       ?type_case_d@?$output_processor@_WV?$stream_output_adapter@_W@__crt_stdio_output@@V?$positional_parameter_base@_WV?$stream_output_adapter@_W@__crt_stdio_output@@@2@@__crt_stdio_output@@AAE_NXZ 10029ae6 f i libucrt:output.obj
 0001:00028af4       ?type_case_d@?$output_processor@_WV?$stream_output_adapter@_W@__crt_stdio_output@@V?$standard_base@_WV?$stream_output_adapter@_W@__crt_stdio_output@@@2@@__crt_stdio_output@@AAE_NXZ 10029af4 f i libucrt:output.obj
 0001:00028b02       ?type_case_d@?$output_processor@_WV?$string_output_adapter@_W@__crt_stdio_output@@V?$format_validation_base@_WV?$string_output_adapter@_W@__crt_stdio_output@@@2@@__crt_stdio_output@@AAE_NXZ 10029b02 f i libucrt:output.obj
 0001:00028b10       ?type_case_d@?$output_processor@_WV?$string_output_adapter@_W@__crt_stdio_output@@V?$positional_parameter_base@_WV?$string_output_adapter@_W@__crt_stdio_output@@@2@@__crt_stdio_output@@AAE_NXZ 10029b10 f i libucrt:output.obj
 0001:00028b1e       ?type_case_d@?$output_processor@_WV?$string_output_adapter@_W@__crt_stdio_output@@V?$standard_base@_WV?$string_output_adapter@_W@__crt_stdio_output@@@2@@__crt_stdio_output@@AAE_NXZ 10029b1e f i libucrt:output.obj
 0001:00028b2c       ?type_case_integer@?$output_processor@DV?$stream_output_adapter@D@__crt_stdio_output@@V?$format_validation_base@DV?$stream_output_adapter@D@__crt_stdio_output@@@2@@__crt_stdio_output@@AAE_NI_N@Z 10029b2c f i libucrt:output.obj
 0001:00028c7f       ?type_case_integer@?$output_processor@DV?$stream_output_adapter@D@__crt_stdio_output@@V?$positional_parameter_base@DV?$stream_output_adapter@D@__crt_stdio_output@@@2@@__crt_stdio_output@@AAE_NI_N@Z 10029c7f f i libucrt:output.obj
 0001:00028e02       ?type_case_integer@?$output_processor@DV?$stream_output_adapter@D@__crt_stdio_output@@V?$standard_base@DV?$stream_output_adapter@D@__crt_stdio_output@@@2@@__crt_stdio_output@@AAE_NI_N@Z 10029e02 f i libucrt:output.obj
 0001:00028f55       ?type_case_integer@?$output_processor@DV?$string_output_adapter@D@__crt_stdio_output@@V?$format_validation_base@DV?$string_output_adapter@D@__crt_stdio_output@@@2@@__crt_stdio_output@@AAE_NI_N@Z 10029f55 f i libucrt:output.obj
 0001:000290a8       ?type_case_integer@?$output_processor@DV?$string_output_adapter@D@__crt_stdio_output@@V?$positional_parameter_base@DV?$string_output_adapter@D@__crt_stdio_output@@@2@@__crt_stdio_output@@AAE_NI_N@Z 1002a0a8 f i libucrt:output.obj
 0001:0002922b       ?type_case_integer@?$output_processor@DV?$string_output_adapter@D@__crt_stdio_output@@V?$standard_base@DV?$string_output_adapter@D@__crt_stdio_output@@@2@@__crt_stdio_output@@AAE_NI_N@Z 1002a22b f i libucrt:output.obj
 0001:0002937e       ?type_case_integer@?$output_processor@_WV?$stream_output_adapter@_W@__crt_stdio_output@@V?$format_validation_base@_WV?$stream_output_adapter@_W@__crt_stdio_output@@@2@@__crt_stdio_output@@AAE_NI_N@Z 1002a37e f i libucrt:output.obj
 0001:000294d5       ?type_case_integer@?$output_processor@_WV?$stream_output_adapter@_W@__crt_stdio_output@@V?$positional_parameter_base@_WV?$stream_output_adapter@_W@__crt_stdio_output@@@2@@__crt_stdio_output@@AAE_NI_N@Z 1002a4d5 f i libucrt:output.obj
 0001:0002965c       ?type_case_integer@?$output_processor@_WV?$stream_output_adapter@_W@__crt_stdio_output@@V?$standard_base@_WV?$stream_output_adapter@_W@__crt_stdio_output@@@2@@__crt_stdio_output@@AAE_NI_N@Z 1002a65c f i libucrt:output.obj
 0001:000297b3       ?type_case_integer@?$output_processor@_WV?$string_output_adapter@_W@__crt_stdio_output@@V?$format_validation_base@_WV?$string_output_adapter@_W@__crt_stdio_output@@@2@@__crt_stdio_output@@AAE_NI_N@Z 1002a7b3 f i libucrt:output.obj
 0001:0002990a       ?type_case_integer@?$output_processor@_WV?$string_output_adapter@_W@__crt_stdio_output@@V?$positional_parameter_base@_WV?$string_output_adapter@_W@__crt_stdio_output@@@2@@__crt_stdio_output@@AAE_NI_N@Z 1002a90a f i libucrt:output.obj
 0001:00029a91       ?type_case_integer@?$output_processor@_WV?$string_output_adapter@_W@__crt_stdio_output@@V?$standard_base@_WV?$string_output_adapter@_W@__crt_stdio_output@@@2@@__crt_stdio_output@@AAE_NI_N@Z 1002aa91 f i libucrt:output.obj
 0001:00029be8       ?type_case_n@?$output_processor@DV?$stream_output_adapter@D@__crt_stdio_output@@V?$format_validation_base@DV?$stream_output_adapter@D@__crt_stdio_output@@@2@@__crt_stdio_output@@AAE_NXZ 1002abe8 f i libucrt:output.obj
 0001:00029c5c       ?type_case_n@?$output_processor@DV?$stream_output_adapter@D@__crt_stdio_output@@V?$positional_parameter_base@DV?$stream_output_adapter@D@__crt_stdio_output@@@2@@__crt_stdio_output@@AAE_NXZ 1002ac5c f i libucrt:output.obj
 0001:00029cf5       ?type_case_n@?$output_processor@DV?$stream_output_adapter@D@__crt_stdio_output@@V?$standard_base@DV?$stream_output_adapter@D@__crt_stdio_output@@@2@@__crt_stdio_output@@AAE_NXZ 1002acf5 f i libucrt:output.obj
 0001:00029d69       ?type_case_n@?$output_processor@DV?$string_output_adapter@D@__crt_stdio_output@@V?$format_validation_base@DV?$string_output_adapter@D@__crt_stdio_output@@@2@@__crt_stdio_output@@AAE_NXZ 1002ad69 f i libucrt:output.obj
 0001:00029ddd       ?type_case_n@?$output_processor@DV?$string_output_adapter@D@__crt_stdio_output@@V?$positional_parameter_base@DV?$string_output_adapter@D@__crt_stdio_output@@@2@@__crt_stdio_output@@AAE_NXZ 1002addd f i libucrt:output.obj
 0001:00029e76       ?type_case_n@?$output_processor@DV?$string_output_adapter@D@__crt_stdio_output@@V?$standard_base@DV?$string_output_adapter@D@__crt_stdio_output@@@2@@__crt_stdio_output@@AAE_NXZ 1002ae76 f i libucrt:output.obj
 0001:00029eea       ?type_case_n@?$output_processor@_WV?$stream_output_adapter@_W@__crt_stdio_output@@V?$format_validation_base@_WV?$stream_output_adapter@_W@__crt_stdio_output@@@2@@__crt_stdio_output@@AAE_NXZ 1002aeea f i libucrt:output.obj
 0001:00029f5e       ?type_case_n@?$output_processor@_WV?$stream_output_adapter@_W@__crt_stdio_output@@V?$positional_parameter_base@_WV?$stream_output_adapter@_W@__crt_stdio_output@@@2@@__crt_stdio_output@@AAE_NXZ 1002af5e f i libucrt:output.obj
 0001:00029ff7       ?type_case_n@?$output_processor@_WV?$stream_output_adapter@_W@__crt_stdio_output@@V?$standard_base@_WV?$stream_output_adapter@_W@__crt_stdio_output@@@2@@__crt_stdio_output@@AAE_NXZ 1002aff7 f i libucrt:output.obj
 0001:0002a06b       ?type_case_n@?$output_processor@_WV?$string_output_adapter@_W@__crt_stdio_output@@V?$format_validation_base@_WV?$string_output_adapter@_W@__crt_stdio_output@@@2@@__crt_stdio_output@@AAE_NXZ 1002b06b f i libucrt:output.obj
 0001:0002a0df       ?type_case_n@?$output_processor@_WV?$string_output_adapter@_W@__crt_stdio_output@@V?$positional_parameter_base@_WV?$string_output_adapter@_W@__crt_stdio_output@@@2@@__crt_stdio_output@@AAE_NXZ 1002b0df f i libucrt:output.obj
 0001:0002a178       ?type_case_n@?$output_processor@_WV?$string_output_adapter@_W@__crt_stdio_output@@V?$standard_base@_WV?$string_output_adapter@_W@__crt_stdio_output@@@2@@__crt_stdio_output@@AAE_NXZ 1002b178 f i libucrt:output.obj
 0001:0002a1ec       ?type_case_o@?$output_processor@DV?$stream_output_adapter@D@__crt_stdio_output@@V?$format_validation_base@DV?$stream_output_adapter@D@__crt_stdio_output@@@2@@__crt_stdio_output@@AAE_NXZ 1002b1ec f i libucrt:output.obj
 0001:0002a20b       ?type_case_o@?$output_processor@DV?$stream_output_adapter@D@__crt_stdio_output@@V?$positional_parameter_base@DV?$stream_output_adapter@D@__crt_stdio_output@@@2@@__crt_stdio_output@@AAE_NXZ 1002b20b f i libucrt:output.obj
 0001:0002a22a       ?type_case_o@?$output_processor@DV?$stream_output_adapter@D@__crt_stdio_output@@V?$standard_base@DV?$stream_output_adapter@D@__crt_stdio_output@@@2@@__crt_stdio_output@@AAE_NXZ 1002b22a f i libucrt:output.obj
 0001:0002a249       ?type_case_o@?$output_processor@DV?$string_output_adapter@D@__crt_stdio_output@@V?$format_validation_base@DV?$string_output_adapter@D@__crt_stdio_output@@@2@@__crt_stdio_output@@AAE_NXZ 1002b249 f i libucrt:output.obj
 0001:0002a268       ?type_case_o@?$output_processor@DV?$string_output_adapter@D@__crt_stdio_output@@V?$positional_parameter_base@DV?$string_output_adapter@D@__crt_stdio_output@@@2@@__crt_stdio_output@@AAE_NXZ 1002b268 f i libucrt:output.obj
 0001:0002a287       ?type_case_o@?$output_processor@DV?$string_output_adapter@D@__crt_stdio_output@@V?$standard_base@DV?$string_output_adapter@D@__crt_stdio_output@@@2@@__crt_stdio_output@@AAE_NXZ 1002b287 f i libucrt:output.obj
 0001:0002a2a6       ?type_case_o@?$output_processor@_WV?$stream_output_adapter@_W@__crt_stdio_output@@V?$format_validation_base@_WV?$stream_output_adapter@_W@__crt_stdio_output@@@2@@__crt_stdio_output@@AAE_NXZ 1002b2a6 f i libucrt:output.obj
 0001:0002a2c5       ?type_case_o@?$output_processor@_WV?$stream_output_adapter@_W@__crt_stdio_output@@V?$positional_parameter_base@_WV?$stream_output_adapter@_W@__crt_stdio_output@@@2@@__crt_stdio_output@@AAE_NXZ 1002b2c5 f i libucrt:output.obj
 0001:0002a2e4       ?type_case_o@?$output_processor@_WV?$stream_output_adapter@_W@__crt_stdio_output@@V?$standard_base@_WV?$stream_output_adapter@_W@__crt_stdio_output@@@2@@__crt_stdio_output@@AAE_NXZ 1002b2e4 f i libucrt:output.obj
 0001:0002a303       ?type_case_o@?$output_processor@_WV?$string_output_adapter@_W@__crt_stdio_output@@V?$format_validation_base@_WV?$string_output_adapter@_W@__crt_stdio_output@@@2@@__crt_stdio_output@@AAE_NXZ 1002b303 f i libucrt:output.obj
 0001:0002a322       ?type_case_o@?$output_processor@_WV?$string_output_adapter@_W@__crt_stdio_output@@V?$positional_parameter_base@_WV?$string_output_adapter@_W@__crt_stdio_output@@@2@@__crt_stdio_output@@AAE_NXZ 1002b322 f i libucrt:output.obj
 0001:0002a341       ?type_case_o@?$output_processor@_WV?$string_output_adapter@_W@__crt_stdio_output@@V?$standard_base@_WV?$string_output_adapter@_W@__crt_stdio_output@@@2@@__crt_stdio_output@@AAE_NXZ 1002b341 f i libucrt:output.obj
 0001:0002a360       ?type_case_p@?$output_processor@DV?$stream_output_adapter@D@__crt_stdio_output@@V?$format_validation_base@DV?$stream_output_adapter@D@__crt_stdio_output@@@2@@__crt_stdio_output@@AAE_NXZ 1002b360 f i libucrt:output.obj
 0001:0002a378       ?type_case_p@?$output_processor@DV?$stream_output_adapter@D@__crt_stdio_output@@V?$positional_parameter_base@DV?$stream_output_adapter@D@__crt_stdio_output@@@2@@__crt_stdio_output@@AAE_NXZ 1002b378 f i libucrt:output.obj
 0001:0002a390       ?type_case_p@?$output_processor@DV?$stream_output_adapter@D@__crt_stdio_output@@V?$standard_base@DV?$stream_output_adapter@D@__crt_stdio_output@@@2@@__crt_stdio_output@@AAE_NXZ 1002b390 f i libucrt:output.obj
 0001:0002a3a8       ?type_case_p@?$output_processor@DV?$string_output_adapter@D@__crt_stdio_output@@V?$format_validation_base@DV?$string_output_adapter@D@__crt_stdio_output@@@2@@__crt_stdio_output@@AAE_NXZ 1002b3a8 f i libucrt:output.obj
 0001:0002a3c0       ?type_case_p@?$output_processor@DV?$string_output_adapter@D@__crt_stdio_output@@V?$positional_parameter_base@DV?$string_output_adapter@D@__crt_stdio_output@@@2@@__crt_stdio_output@@AAE_NXZ 1002b3c0 f i libucrt:output.obj
 0001:0002a3d8       ?type_case_p@?$output_processor@DV?$string_output_adapter@D@__crt_stdio_output@@V?$standard_base@DV?$string_output_adapter@D@__crt_stdio_output@@@2@@__crt_stdio_output@@AAE_NXZ 1002b3d8 f i libucrt:output.obj
 0001:0002a3f0       ?type_case_p@?$output_processor@_WV?$stream_output_adapter@_W@__crt_stdio_output@@V?$format_validation_base@_WV?$stream_output_adapter@_W@__crt_stdio_output@@@2@@__crt_stdio_output@@AAE_NXZ 1002b3f0 f i libucrt:output.obj
 0001:0002a408       ?type_case_p@?$output_processor@_WV?$stream_output_adapter@_W@__crt_stdio_output@@V?$positional_parameter_base@_WV?$stream_output_adapter@_W@__crt_stdio_output@@@2@@__crt_stdio_output@@AAE_NXZ 1002b408 f i libucrt:output.obj
 0001:0002a420       ?type_case_p@?$output_processor@_WV?$stream_output_adapter@_W@__crt_stdio_output@@V?$standard_base@_WV?$stream_output_adapter@_W@__crt_stdio_output@@@2@@__crt_stdio_output@@AAE_NXZ 1002b420 f i libucrt:output.obj
 0001:0002a438       ?type_case_p@?$output_processor@_WV?$string_output_adapter@_W@__crt_stdio_output@@V?$format_validation_base@_WV?$string_output_adapter@_W@__crt_stdio_output@@@2@@__crt_stdio_output@@AAE_NXZ 1002b438 f i libucrt:output.obj
 0001:0002a450       ?type_case_p@?$output_processor@_WV?$string_output_adapter@_W@__crt_stdio_output@@V?$positional_parameter_base@_WV?$string_output_adapter@_W@__crt_stdio_output@@@2@@__crt_stdio_output@@AAE_NXZ 1002b450 f i libucrt:output.obj
 0001:0002a468       ?type_case_p@?$output_processor@_WV?$string_output_adapter@_W@__crt_stdio_output@@V?$standard_base@_WV?$string_output_adapter@_W@__crt_stdio_output@@@2@@__crt_stdio_output@@AAE_NXZ 1002b468 f i libucrt:output.obj
 0001:0002a480       ?type_case_s@?$output_processor@DV?$stream_output_adapter@D@__crt_stdio_output@@V?$format_validation_base@DV?$stream_output_adapter@D@__crt_stdio_output@@@2@@__crt_stdio_output@@AAE_NXZ 1002b480 f i libucrt:output.obj
 0001:0002a4f1       ?type_case_s@?$output_processor@DV?$stream_output_adapter@D@__crt_stdio_output@@V?$positional_parameter_base@DV?$stream_output_adapter@D@__crt_stdio_output@@@2@@__crt_stdio_output@@AAE_NXZ 1002b4f1 f i libucrt:output.obj
 0001:0002a56f       ?type_case_s@?$output_processor@DV?$stream_output_adapter@D@__crt_stdio_output@@V?$standard_base@DV?$stream_output_adapter@D@__crt_stdio_output@@@2@@__crt_stdio_output@@AAE_NXZ 1002b56f f i libucrt:output.obj
 0001:0002a5e0       ?type_case_s@?$output_processor@DV?$string_output_adapter@D@__crt_stdio_output@@V?$format_validation_base@DV?$string_output_adapter@D@__crt_stdio_output@@@2@@__crt_stdio_output@@AAE_NXZ 1002b5e0 f i libucrt:output.obj
 0001:0002a651       ?type_case_s@?$output_processor@DV?$string_output_adapter@D@__crt_stdio_output@@V?$positional_parameter_base@DV?$string_output_adapter@D@__crt_stdio_output@@@2@@__crt_stdio_output@@AAE_NXZ 1002b651 f i libucrt:output.obj
 0001:0002a6cf       ?type_case_s@?$output_processor@DV?$string_output_adapter@D@__crt_stdio_output@@V?$standard_base@DV?$string_output_adapter@D@__crt_stdio_output@@@2@@__crt_stdio_output@@AAE_NXZ 1002b6cf f i libucrt:output.obj
 0001:0002a740       ?type_case_s@?$output_processor@_WV?$stream_output_adapter@_W@__crt_stdio_output@@V?$format_validation_base@_WV?$stream_output_adapter@_W@__crt_stdio_output@@@2@@__crt_stdio_output@@AAE_NXZ 1002b740 f i libucrt:output.obj
 0001:0002a7b3       ?type_case_s@?$output_processor@_WV?$stream_output_adapter@_W@__crt_stdio_output@@V?$positional_parameter_base@_WV?$stream_output_adapter@_W@__crt_stdio_output@@@2@@__crt_stdio_output@@AAE_NXZ 1002b7b3 f i libucrt:output.obj
 0001:0002a833       ?type_case_s@?$output_processor@_WV?$stream_output_adapter@_W@__crt_stdio_output@@V?$standard_base@_WV?$stream_output_adapter@_W@__crt_stdio_output@@@2@@__crt_stdio_output@@AAE_NXZ 1002b833 f i libucrt:output.obj
 0001:0002a8a6       ?type_case_s@?$output_processor@_WV?$string_output_adapter@_W@__crt_stdio_output@@V?$format_validation_base@_WV?$string_output_adapter@_W@__crt_stdio_output@@@2@@__crt_stdio_output@@AAE_NXZ 1002b8a6 f i libucrt:output.obj
 0001:0002a919       ?type_case_s@?$output_processor@_WV?$string_output_adapter@_W@__crt_stdio_output@@V?$positional_parameter_base@_WV?$string_output_adapter@_W@__crt_stdio_output@@@2@@__crt_stdio_output@@AAE_NXZ 1002b919 f i libucrt:output.obj
 0001:0002a999       ?type_case_s@?$output_processor@_WV?$string_output_adapter@_W@__crt_stdio_output@@V?$standard_base@_WV?$string_output_adapter@_W@__crt_stdio_output@@@2@@__crt_stdio_output@@AAE_NXZ 1002b999 f i libucrt:output.obj
 0001:0002aa0c       ?type_case_s_compute_narrow_string_length@?$output_processor@DV?$stream_output_adapter@D@__crt_stdio_output@@V?$format_validation_base@DV?$stream_output_adapter@D@__crt_stdio_output@@@2@@__crt_stdio_output@@ABEHHD@Z 1002ba0c f i libucrt:output.obj
 0001:0002aa22       ?type_case_s_compute_narrow_string_length@?$output_processor@DV?$stream_output_adapter@D@__crt_stdio_output@@V?$positional_parameter_base@DV?$stream_output_adapter@D@__crt_stdio_output@@@2@@__crt_stdio_output@@ABEHHD@Z 1002ba22 f i libucrt:output.obj
 0001:0002aa38       ?type_case_s_compute_narrow_string_length@?$output_processor@DV?$stream_output_adapter@D@__crt_stdio_output@@V?$standard_base@DV?$stream_output_adapter@D@__crt_stdio_output@@@2@@__crt_stdio_output@@ABEHHD@Z 1002ba38 f i libucrt:output.obj
 0001:0002aa4e       ?type_case_s_compute_narrow_string_length@?$output_processor@DV?$string_output_adapter@D@__crt_stdio_output@@V?$format_validation_base@DV?$string_output_adapter@D@__crt_stdio_output@@@2@@__crt_stdio_output@@ABEHHD@Z 1002ba4e f i libucrt:output.obj
 0001:0002aa64       ?type_case_s_compute_narrow_string_length@?$output_processor@DV?$string_output_adapter@D@__crt_stdio_output@@V?$positional_parameter_base@DV?$string_output_adapter@D@__crt_stdio_output@@@2@@__crt_stdio_output@@ABEHHD@Z 1002ba64 f i libucrt:output.obj
 0001:0002aa7a       ?type_case_s_compute_narrow_string_length@?$output_processor@DV?$string_output_adapter@D@__crt_stdio_output@@V?$standard_base@DV?$string_output_adapter@D@__crt_stdio_output@@@2@@__crt_stdio_output@@ABEHHD@Z 1002ba7a f i libucrt:output.obj
 0001:0002aa90       ?type_case_s_compute_narrow_string_length@?$output_processor@_WV?$stream_output_adapter@_W@__crt_stdio_output@@V?$format_validation_base@_WV?$stream_output_adapter@_W@__crt_stdio_output@@@2@@__crt_stdio_output@@ABEHH_W@Z 1002ba90 f i libucrt:output.obj
 0001:0002aacd       ?type_case_s_compute_narrow_string_length@?$output_processor@_WV?$stream_output_adapter@_W@__crt_stdio_output@@V?$positional_parameter_base@_WV?$stream_output_adapter@_W@__crt_stdio_output@@@2@@__crt_stdio_output@@ABEHH_W@Z 1002bacd f i libucrt:output.obj
 0001:0002ab0a       ?type_case_s_compute_narrow_string_length@?$output_processor@_WV?$stream_output_adapter@_W@__crt_stdio_output@@V?$standard_base@_WV?$stream_output_adapter@_W@__crt_stdio_output@@@2@@__crt_stdio_output@@ABEHH_W@Z 1002bb0a f i libucrt:output.obj
 0001:0002ab47       ?type_case_s_compute_narrow_string_length@?$output_processor@_WV?$string_output_adapter@_W@__crt_stdio_output@@V?$format_validation_base@_WV?$string_output_adapter@_W@__crt_stdio_output@@@2@@__crt_stdio_output@@ABEHH_W@Z 1002bb47 f i libucrt:output.obj
 0001:0002ab84       ?type_case_s_compute_narrow_string_length@?$output_processor@_WV?$string_output_adapter@_W@__crt_stdio_output@@V?$positional_parameter_base@_WV?$string_output_adapter@_W@__crt_stdio_output@@@2@@__crt_stdio_output@@ABEHH_W@Z 1002bb84 f i libucrt:output.obj
 0001:0002abc1       ?type_case_s_compute_narrow_string_length@?$output_processor@_WV?$string_output_adapter@_W@__crt_stdio_output@@V?$standard_base@_WV?$string_output_adapter@_W@__crt_stdio_output@@@2@@__crt_stdio_output@@ABEHH_W@Z 1002bbc1 f i libucrt:output.obj
 0001:0002abfe       ?type_case_u@?$output_processor@DV?$stream_output_adapter@D@__crt_stdio_output@@V?$format_validation_base@DV?$stream_output_adapter@D@__crt_stdio_output@@@2@@__crt_stdio_output@@AAE_NXZ 1002bbfe f i libucrt:output.obj
 0001:0002ac08       ?type_case_u@?$output_processor@DV?$stream_output_adapter@D@__crt_stdio_output@@V?$positional_parameter_base@DV?$stream_output_adapter@D@__crt_stdio_output@@@2@@__crt_stdio_output@@AAE_NXZ 1002bc08 f i libucrt:output.obj
 0001:0002ac12       ?type_case_u@?$output_processor@DV?$stream_output_adapter@D@__crt_stdio_output@@V?$standard_base@DV?$stream_output_adapter@D@__crt_stdio_output@@@2@@__crt_stdio_output@@AAE_NXZ 1002bc12 f i libucrt:output.obj
 0001:0002ac1c       ?type_case_u@?$output_processor@DV?$string_output_adapter@D@__crt_stdio_output@@V?$format_validation_base@DV?$string_output_adapter@D@__crt_stdio_output@@@2@@__crt_stdio_output@@AAE_NXZ 1002bc1c f i libucrt:output.obj
 0001:0002ac26       ?type_case_u@?$output_processor@DV?$string_output_adapter@D@__crt_stdio_output@@V?$positional_parameter_base@DV?$string_output_adapter@D@__crt_stdio_output@@@2@@__crt_stdio_output@@AAE_NXZ 1002bc26 f i libucrt:output.obj
 0001:0002ac30       ?type_case_u@?$output_processor@DV?$string_output_adapter@D@__crt_stdio_output@@V?$standard_base@DV?$string_output_adapter@D@__crt_stdio_output@@@2@@__crt_stdio_output@@AAE_NXZ 1002bc30 f i libucrt:output.obj
 0001:0002ac3a       ?type_case_u@?$output_processor@_WV?$stream_output_adapter@_W@__crt_stdio_output@@V?$format_validation_base@_WV?$stream_output_adapter@_W@__crt_stdio_output@@@2@@__crt_stdio_output@@AAE_NXZ 1002bc3a f i libucrt:output.obj
 0001:0002ac44       ?type_case_u@?$output_processor@_WV?$stream_output_adapter@_W@__crt_stdio_output@@V?$positional_parameter_base@_WV?$stream_output_adapter@_W@__crt_stdio_output@@@2@@__crt_stdio_output@@AAE_NXZ 1002bc44 f i libucrt:output.obj
 0001:0002ac4e       ?type_case_u@?$output_processor@_WV?$stream_output_adapter@_W@__crt_stdio_output@@V?$standard_base@_WV?$stream_output_adapter@_W@__crt_stdio_output@@@2@@__crt_stdio_output@@AAE_NXZ 1002bc4e f i libucrt:output.obj
 0001:0002ac58       ?type_case_u@?$output_processor@_WV?$string_output_adapter@_W@__crt_stdio_output@@V?$format_validation_base@_WV?$string_output_adapter@_W@__crt_stdio_output@@@2@@__crt_stdio_output@@AAE_NXZ 1002bc58 f i libucrt:output.obj
 0001:0002ac62       ?type_case_u@?$output_processor@_WV?$string_output_adapter@_W@__crt_stdio_output@@V?$positional_parameter_base@_WV?$string_output_adapter@_W@__crt_stdio_output@@@2@@__crt_stdio_output@@AAE_NXZ 1002bc62 f i libucrt:output.obj
 0001:0002ac6c       ?type_case_u@?$output_processor@_WV?$string_output_adapter@_W@__crt_stdio_output@@V?$standard_base@_WV?$string_output_adapter@_W@__crt_stdio_output@@@2@@__crt_stdio_output@@AAE_NXZ 1002bc6c f i libucrt:output.obj
 0001:0002ac76       ?type_case_x@?$output_processor@DV?$stream_output_adapter@D@__crt_stdio_output@@V?$format_validation_base@DV?$stream_output_adapter@D@__crt_stdio_output@@@2@@__crt_stdio_output@@AAE_NXZ 1002bc76 f i libucrt:output.obj
 0001:0002ac80       ?type_case_x@?$output_processor@DV?$stream_output_adapter@D@__crt_stdio_output@@V?$positional_parameter_base@DV?$stream_output_adapter@D@__crt_stdio_output@@@2@@__crt_stdio_output@@AAE_NXZ 1002bc80 f i libucrt:output.obj
 0001:0002ac8a       ?type_case_x@?$output_processor@DV?$stream_output_adapter@D@__crt_stdio_output@@V?$standard_base@DV?$stream_output_adapter@D@__crt_stdio_output@@@2@@__crt_stdio_output@@AAE_NXZ 1002bc8a f i libucrt:output.obj
 0001:0002ac94       ?type_case_x@?$output_processor@DV?$string_output_adapter@D@__crt_stdio_output@@V?$format_validation_base@DV?$string_output_adapter@D@__crt_stdio_output@@@2@@__crt_stdio_output@@AAE_NXZ 1002bc94 f i libucrt:output.obj
 0001:0002ac9e       ?type_case_x@?$output_processor@DV?$string_output_adapter@D@__crt_stdio_output@@V?$positional_parameter_base@DV?$string_output_adapter@D@__crt_stdio_output@@@2@@__crt_stdio_output@@AAE_NXZ 1002bc9e f i libucrt:output.obj
 0001:0002aca8       ?type_case_x@?$output_processor@DV?$string_output_adapter@D@__crt_stdio_output@@V?$standard_base@DV?$string_output_adapter@D@__crt_stdio_output@@@2@@__crt_stdio_output@@AAE_NXZ 1002bca8 f i libucrt:output.obj
 0001:0002acb2       ?type_case_x@?$output_processor@_WV?$stream_output_adapter@_W@__crt_stdio_output@@V?$format_validation_base@_WV?$stream_output_adapter@_W@__crt_stdio_output@@@2@@__crt_stdio_output@@AAE_NXZ 1002bcb2 f i libucrt:output.obj
 0001:0002acbc       ?type_case_x@?$output_processor@_WV?$stream_output_adapter@_W@__crt_stdio_output@@V?$positional_parameter_base@_WV?$stream_output_adapter@_W@__crt_stdio_output@@@2@@__crt_stdio_output@@AAE_NXZ 1002bcbc f i libucrt:output.obj
 0001:0002acc6       ?type_case_x@?$output_processor@_WV?$stream_output_adapter@_W@__crt_stdio_output@@V?$standard_base@_WV?$stream_output_adapter@_W@__crt_stdio_output@@@2@@__crt_stdio_output@@AAE_NXZ 1002bcc6 f i libucrt:output.obj
 0001:0002acd0       ?type_case_x@?$output_processor@_WV?$string_output_adapter@_W@__crt_stdio_output@@V?$format_validation_base@_WV?$string_output_adapter@_W@__crt_stdio_output@@@2@@__crt_stdio_output@@AAE_NXZ 1002bcd0 f i libucrt:output.obj
 0001:0002acda       ?type_case_x@?$output_processor@_WV?$string_output_adapter@_W@__crt_stdio_output@@V?$positional_parameter_base@_WV?$string_output_adapter@_W@__crt_stdio_output@@@2@@__crt_stdio_output@@AAE_NXZ 1002bcda f i libucrt:output.obj
 0001:0002ace4       ?type_case_x@?$output_processor@_WV?$string_output_adapter@_W@__crt_stdio_output@@V?$standard_base@_WV?$string_output_adapter@_W@__crt_stdio_output@@@2@@__crt_stdio_output@@AAE_NXZ 1002bce4 f i libucrt:output.obj
 0001:0002acee       ?unset_flag@?$output_processor@DV?$stream_output_adapter@D@__crt_stdio_output@@V?$format_validation_base@DV?$stream_output_adapter@D@__crt_stdio_output@@@2@@__crt_stdio_output@@AAEXI@Z 1002bcee f i libucrt:output.obj
 0001:0002acff       ?unset_flag@?$output_processor@DV?$stream_output_adapter@D@__crt_stdio_output@@V?$positional_parameter_base@DV?$stream_output_adapter@D@__crt_stdio_output@@@2@@__crt_stdio_output@@AAEXI@Z 1002bcff f i libucrt:output.obj
 0001:0002ad10       ?unset_flag@?$output_processor@DV?$stream_output_adapter@D@__crt_stdio_output@@V?$standard_base@DV?$stream_output_adapter@D@__crt_stdio_output@@@2@@__crt_stdio_output@@AAEXI@Z 1002bd10 f i libucrt:output.obj
 0001:0002ad21       ?unset_flag@?$output_processor@DV?$string_output_adapter@D@__crt_stdio_output@@V?$format_validation_base@DV?$string_output_adapter@D@__crt_stdio_output@@@2@@__crt_stdio_output@@AAEXI@Z 1002bd21 f i libucrt:output.obj
 0001:0002ad32       ?unset_flag@?$output_processor@DV?$string_output_adapter@D@__crt_stdio_output@@V?$positional_parameter_base@DV?$string_output_adapter@D@__crt_stdio_output@@@2@@__crt_stdio_output@@AAEXI@Z 1002bd32 f i libucrt:output.obj
 0001:0002ad43       ?unset_flag@?$output_processor@DV?$string_output_adapter@D@__crt_stdio_output@@V?$standard_base@DV?$string_output_adapter@D@__crt_stdio_output@@@2@@__crt_stdio_output@@AAEXI@Z 1002bd43 f i libucrt:output.obj
 0001:0002ad54       ?unset_flag@?$output_processor@_WV?$stream_output_adapter@_W@__crt_stdio_output@@V?$format_validation_base@_WV?$stream_output_adapter@_W@__crt_stdio_output@@@2@@__crt_stdio_output@@AAEXI@Z 1002bd54 f i libucrt:output.obj
 0001:0002ad65       ?unset_flag@?$output_processor@_WV?$stream_output_adapter@_W@__crt_stdio_output@@V?$positional_parameter_base@_WV?$stream_output_adapter@_W@__crt_stdio_output@@@2@@__crt_stdio_output@@AAEXI@Z 1002bd65 f i libucrt:output.obj
 0001:0002ad76       ?unset_flag@?$output_processor@_WV?$stream_output_adapter@_W@__crt_stdio_output@@V?$standard_base@_WV?$stream_output_adapter@_W@__crt_stdio_output@@@2@@__crt_stdio_output@@AAEXI@Z 1002bd76 f i libucrt:output.obj
 0001:0002ad87       ?unset_flag@?$output_processor@_WV?$string_output_adapter@_W@__crt_stdio_output@@V?$format_validation_base@_WV?$string_output_adapter@_W@__crt_stdio_output@@@2@@__crt_stdio_output@@AAEXI@Z 1002bd87 f i libucrt:output.obj
 0001:0002ad98       ?unset_flag@?$output_processor@_WV?$string_output_adapter@_W@__crt_stdio_output@@V?$positional_parameter_base@_WV?$string_output_adapter@_W@__crt_stdio_output@@@2@@__crt_stdio_output@@AAEXI@Z 1002bd98 f i libucrt:output.obj
 0001:0002ada9       ?unset_flag@?$output_processor@_WV?$string_output_adapter@_W@__crt_stdio_output@@V?$standard_base@_WV?$string_output_adapter@_W@__crt_stdio_output@@@2@@__crt_stdio_output@@AAEXI@Z 1002bda9 f i libucrt:output.obj
 0001:0002adba       ?update_field_width@?$positional_parameter_base@DV?$stream_output_adapter@D@__crt_stdio_output@@@__crt_stdio_output@@IAE_NXZ 1002bdba f i libucrt:output.obj
 0001:0002ae70       ?update_field_width@?$positional_parameter_base@DV?$string_output_adapter@D@__crt_stdio_output@@@__crt_stdio_output@@IAE_NXZ 1002be70 f i libucrt:output.obj
 0001:0002af26       ?update_field_width@?$positional_parameter_base@_WV?$stream_output_adapter@_W@__crt_stdio_output@@@__crt_stdio_output@@IAE_NXZ 1002bf26 f i libucrt:output.obj
 0001:0002afdd       ?update_field_width@?$positional_parameter_base@_WV?$string_output_adapter@_W@__crt_stdio_output@@@__crt_stdio_output@@IAE_NXZ 1002bfdd f i libucrt:output.obj
 0001:0002b094       ?update_field_width@?$standard_base@DV?$stream_output_adapter@D@__crt_stdio_output@@@__crt_stdio_output@@IAE_NXZ 1002c094 f i libucrt:output.obj
 0001:0002b0a4       ?update_field_width@?$standard_base@DV?$string_output_adapter@D@__crt_stdio_output@@@__crt_stdio_output@@IAE_NXZ 1002c0a4 f i libucrt:output.obj
 0001:0002b0b4       ?update_field_width@?$standard_base@_WV?$stream_output_adapter@_W@__crt_stdio_output@@@__crt_stdio_output@@IAE_NXZ 1002c0b4 f i libucrt:output.obj
 0001:0002b0c4       ?update_field_width@?$standard_base@_WV?$string_output_adapter@_W@__crt_stdio_output@@@__crt_stdio_output@@IAE_NXZ 1002c0c4 f i libucrt:output.obj
 0001:0002b0d4       ?update_precision@?$positional_parameter_base@DV?$stream_output_adapter@D@__crt_stdio_output@@@__crt_stdio_output@@IAE_NXZ 1002c0d4 f i libucrt:output.obj
 0001:0002b18a       ?update_precision@?$positional_parameter_base@DV?$string_output_adapter@D@__crt_stdio_output@@@__crt_stdio_output@@IAE_NXZ 1002c18a f i libucrt:output.obj
 0001:0002b240       ?update_precision@?$positional_parameter_base@_WV?$stream_output_adapter@_W@__crt_stdio_output@@@__crt_stdio_output@@IAE_NXZ 1002c240 f i libucrt:output.obj
 0001:0002b2f7       ?update_precision@?$positional_parameter_base@_WV?$string_output_adapter@_W@__crt_stdio_output@@@__crt_stdio_output@@IAE_NXZ 1002c2f7 f i libucrt:output.obj
 0001:0002b3ae       ?update_precision@?$standard_base@DV?$stream_output_adapter@D@__crt_stdio_output@@@__crt_stdio_output@@IAE_NXZ 1002c3ae f i libucrt:output.obj
 0001:0002b3be       ?update_precision@?$standard_base@DV?$string_output_adapter@D@__crt_stdio_output@@@__crt_stdio_output@@IAE_NXZ 1002c3be f i libucrt:output.obj
 0001:0002b3ce       ?update_precision@?$standard_base@_WV?$stream_output_adapter@_W@__crt_stdio_output@@@__crt_stdio_output@@IAE_NXZ 1002c3ce f i libucrt:output.obj
 0001:0002b3de       ?update_precision@?$standard_base@_WV?$string_output_adapter@_W@__crt_stdio_output@@@__crt_stdio_output@@IAE_NXZ 1002c3de f i libucrt:output.obj
 0001:0002b3ee       ?valid@__crt_stdio_stream@@QBE_NXZ 1002c3ee f i libucrt:output.obj
 0001:0002b3f5       ?validate@?$stream_output_adapter@D@__crt_stdio_output@@QBE_NXZ 1002c3f5 f i libucrt:output.obj
 0001:0002b416       ?validate@?$stream_output_adapter@_W@__crt_stdio_output@@QBE_NXZ 1002c416 f i libucrt:output.obj
 0001:0002b431       ?validate@?$string_output_adapter@D@__crt_stdio_output@@QBE_NXZ 1002c431 f i libucrt:output.obj
 0001:0002b44c       ?validate@?$string_output_adapter@_W@__crt_stdio_output@@QBE_NXZ 1002c44c f i libucrt:output.obj
 0001:0002b467       ?validate_and_store_parameter_data@?$positional_parameter_base@DV?$stream_output_adapter@D@__crt_stdio_output@@@__crt_stdio_output@@AAE_NAAUparameter_data@12@W4parameter_type@12@DW4length_modifier@2@@Z 1002c467 f i libucrt:output.obj
 0001:0002b4b2       ?validate_and_store_parameter_data@?$positional_parameter_base@DV?$string_output_adapter@D@__crt_stdio_output@@@__crt_stdio_output@@AAE_NAAUparameter_data@12@W4parameter_type@12@DW4length_modifier@2@@Z 1002c4b2 f i libucrt:output.obj
 0001:0002b4fd       ?validate_and_store_parameter_data@?$positional_parameter_base@_WV?$stream_output_adapter@_W@__crt_stdio_output@@@__crt_stdio_output@@AAE_NAAUparameter_data@12@W4parameter_type@12@_WW4length_modifier@2@@Z 1002c4fd f i libucrt:output.obj
 0001:0002b54a       ?validate_and_store_parameter_data@?$positional_parameter_base@_WV?$string_output_adapter@_W@__crt_stdio_output@@@__crt_stdio_output@@AAE_NAAUparameter_data@12@W4parameter_type@12@_WW4length_modifier@2@@Z 1002c54a f i libucrt:output.obj
 0001:0002b597       ?validate_and_update_state_at_beginning_of_format_character@?$positional_parameter_base@DV?$stream_output_adapter@D@__crt_stdio_output@@@__crt_stdio_output@@IAE_NXZ 1002c597 f i libucrt:output.obj
 0001:0002b691       ?validate_and_update_state_at_beginning_of_format_character@?$positional_parameter_base@DV?$string_output_adapter@D@__crt_stdio_output@@@__crt_stdio_output@@IAE_NXZ 1002c691 f i libucrt:output.obj
 0001:0002b78b       ?validate_and_update_state_at_beginning_of_format_character@?$positional_parameter_base@_WV?$stream_output_adapter@_W@__crt_stdio_output@@@__crt_stdio_output@@IAE_NXZ 1002c78b f i libucrt:output.obj
 0001:0002b88e       ?validate_and_update_state_at_beginning_of_format_character@?$positional_parameter_base@_WV?$string_output_adapter@_W@__crt_stdio_output@@@__crt_stdio_output@@IAE_NXZ 1002c88e f i libucrt:output.obj
 0001:0002b991       ?validate_and_update_state_at_beginning_of_format_character@?$standard_base@DV?$stream_output_adapter@D@__crt_stdio_output@@@__crt_stdio_output@@IAE_NXZ 1002c991 f i libucrt:output.obj
 0001:0002b994       ?validate_and_update_state_at_beginning_of_format_character@?$standard_base@DV?$string_output_adapter@D@__crt_stdio_output@@@__crt_stdio_output@@IAE_NXZ 1002c994 f i libucrt:output.obj
 0001:0002b997       ?validate_and_update_state_at_beginning_of_format_character@?$standard_base@_WV?$stream_output_adapter@_W@__crt_stdio_output@@@__crt_stdio_output@@IAE_NXZ 1002c997 f i libucrt:output.obj
 0001:0002b99a       ?validate_and_update_state_at_beginning_of_format_character@?$standard_base@_WV?$string_output_adapter@_W@__crt_stdio_output@@@__crt_stdio_output@@IAE_NXZ 1002c99a f i libucrt:output.obj
 0001:0002b99d       ?validate_and_update_state_at_end_of_format_string@?$format_validation_base@DV?$stream_output_adapter@D@__crt_stdio_output@@@__crt_stdio_output@@IBE_NXZ 1002c99d f i libucrt:output.obj
 0001:0002b9bf       ?validate_and_update_state_at_end_of_format_string@?$format_validation_base@DV?$string_output_adapter@D@__crt_stdio_output@@@__crt_stdio_output@@IBE_NXZ 1002c9bf f i libucrt:output.obj
 0001:0002b9e1       ?validate_and_update_state_at_end_of_format_string@?$format_validation_base@_WV?$stream_output_adapter@_W@__crt_stdio_output@@@__crt_stdio_output@@IBE_NXZ 1002c9e1 f i libucrt:output.obj
 0001:0002ba03       ?validate_and_update_state_at_end_of_format_string@?$format_validation_base@_WV?$string_output_adapter@_W@__crt_stdio_output@@@__crt_stdio_output@@IBE_NXZ 1002ca03 f i libucrt:output.obj
 0001:0002ba25       ?validate_and_update_state_at_end_of_format_string@?$positional_parameter_base@DV?$stream_output_adapter@D@__crt_stdio_output@@@__crt_stdio_output@@IAE_NXZ 1002ca25 f i libucrt:output.obj
 0001:0002baaa       ?validate_and_update_state_at_end_of_format_string@?$positional_parameter_base@DV?$string_output_adapter@D@__crt_stdio_output@@@__crt_stdio_output@@IAE_NXZ 1002caaa f i libucrt:output.obj
 0001:0002bb2f       ?validate_and_update_state_at_end_of_format_string@?$positional_parameter_base@_WV?$stream_output_adapter@_W@__crt_stdio_output@@@__crt_stdio_output@@IAE_NXZ 1002cb2f f i libucrt:output.obj
 0001:0002bbb4       ?validate_and_update_state_at_end_of_format_string@?$positional_parameter_base@_WV?$string_output_adapter@_W@__crt_stdio_output@@@__crt_stdio_output@@IAE_NXZ 1002cbb4 f i libucrt:output.obj
 0001:0002bc39       ?validate_and_update_state_at_end_of_format_string@?$standard_base@DV?$stream_output_adapter@D@__crt_stdio_output@@@__crt_stdio_output@@IBE_NXZ 1002cc39 f i libucrt:output.obj
 0001:0002bc3c       ?validate_and_update_state_at_end_of_format_string@?$standard_base@DV?$string_output_adapter@D@__crt_stdio_output@@@__crt_stdio_output@@IBE_NXZ 1002cc3c f i libucrt:output.obj
 0001:0002bc3f       ?validate_and_update_state_at_end_of_format_string@?$standard_base@_WV?$stream_output_adapter@_W@__crt_stdio_output@@@__crt_stdio_output@@IBE_NXZ 1002cc3f f i libucrt:output.obj
 0001:0002bc42       ?validate_and_update_state_at_end_of_format_string@?$standard_base@_WV?$string_output_adapter@_W@__crt_stdio_output@@@__crt_stdio_output@@IBE_NXZ 1002cc42 f i libucrt:output.obj
 0001:0002bc45       ?validate_state_for_type_case_a@?$positional_parameter_base@DV?$stream_output_adapter@D@__crt_stdio_output@@@__crt_stdio_output@@IAE_NXZ 1002cc45 f i libucrt:output.obj
 0001:0002bc94       ?validate_state_for_type_case_a@?$positional_parameter_base@DV?$string_output_adapter@D@__crt_stdio_output@@@__crt_stdio_output@@IAE_NXZ 1002cc94 f i libucrt:output.obj
 0001:0002bce3       ?validate_state_for_type_case_a@?$positional_parameter_base@_WV?$stream_output_adapter@_W@__crt_stdio_output@@@__crt_stdio_output@@IAE_NXZ 1002cce3 f i libucrt:output.obj
 0001:0002bd32       ?validate_state_for_type_case_a@?$positional_parameter_base@_WV?$string_output_adapter@_W@__crt_stdio_output@@@__crt_stdio_output@@IAE_NXZ 1002cd32 f i libucrt:output.obj
 0001:0002bd81       ?validate_state_for_type_case_a@?$standard_base@DV?$stream_output_adapter@D@__crt_stdio_output@@@__crt_stdio_output@@IBE_NXZ 1002cd81 f i libucrt:output.obj
 0001:0002bd84       ?validate_state_for_type_case_a@?$standard_base@DV?$string_output_adapter@D@__crt_stdio_output@@@__crt_stdio_output@@IBE_NXZ 1002cd84 f i libucrt:output.obj
 0001:0002bd87       ?validate_state_for_type_case_a@?$standard_base@_WV?$stream_output_adapter@_W@__crt_stdio_output@@@__crt_stdio_output@@IBE_NXZ 1002cd87 f i libucrt:output.obj
 0001:0002bd8a       ?validate_state_for_type_case_a@?$standard_base@_WV?$string_output_adapter@_W@__crt_stdio_output@@@__crt_stdio_output@@IBE_NXZ 1002cd8a f i libucrt:output.obj
 0001:0002bd8d       ?validate_stream_is_ansi_if_required@?$__acrt_stdio_char_traits@D@@SA_NQAU_iobuf@@@Z 1002cd8d f i libucrt:output.obj
 0001:0002be13       ?validate_stream_is_ansi_if_required@?$__acrt_stdio_char_traits@_W@@SA_NQAU_iobuf@@@Z 1002ce13 f i libucrt:output.obj
 0001:0002be16       ?wide_null_string@?$output_processor@DV?$stream_output_adapter@D@__crt_stdio_output@@V?$format_validation_base@DV?$stream_output_adapter@D@__crt_stdio_output@@@2@@__crt_stdio_output@@CAPA_WXZ 1002ce16 f i libucrt:output.obj
 0001:0002be1c       ?wide_null_string@?$output_processor@DV?$stream_output_adapter@D@__crt_stdio_output@@V?$positional_parameter_base@DV?$stream_output_adapter@D@__crt_stdio_output@@@2@@__crt_stdio_output@@CAPA_WXZ 1002ce1c f i libucrt:output.obj
 0001:0002be22       ?wide_null_string@?$output_processor@DV?$stream_output_adapter@D@__crt_stdio_output@@V?$standard_base@DV?$stream_output_adapter@D@__crt_stdio_output@@@2@@__crt_stdio_output@@CAPA_WXZ 1002ce22 f i libucrt:output.obj
 0001:0002be28       ?wide_null_string@?$output_processor@DV?$string_output_adapter@D@__crt_stdio_output@@V?$format_validation_base@DV?$string_output_adapter@D@__crt_stdio_output@@@2@@__crt_stdio_output@@CAPA_WXZ 1002ce28 f i libucrt:output.obj
 0001:0002be2e       ?wide_null_string@?$output_processor@DV?$string_output_adapter@D@__crt_stdio_output@@V?$positional_parameter_base@DV?$string_output_adapter@D@__crt_stdio_output@@@2@@__crt_stdio_output@@CAPA_WXZ 1002ce2e f i libucrt:output.obj
 0001:0002be34       ?wide_null_string@?$output_processor@DV?$string_output_adapter@D@__crt_stdio_output@@V?$standard_base@DV?$string_output_adapter@D@__crt_stdio_output@@@2@@__crt_stdio_output@@CAPA_WXZ 1002ce34 f i libucrt:output.obj
 0001:0002be3a       ?wide_null_string@?$output_processor@_WV?$stream_output_adapter@_W@__crt_stdio_output@@V?$format_validation_base@_WV?$stream_output_adapter@_W@__crt_stdio_output@@@2@@__crt_stdio_output@@CAPA_WXZ 1002ce3a f i libucrt:output.obj
 0001:0002be40       ?wide_null_string@?$output_processor@_WV?$stream_output_adapter@_W@__crt_stdio_output@@V?$positional_parameter_base@_WV?$stream_output_adapter@_W@__crt_stdio_output@@@2@@__crt_stdio_output@@CAPA_WXZ 1002ce40 f i libucrt:output.obj
 0001:0002be46       ?wide_null_string@?$output_processor@_WV?$stream_output_adapter@_W@__crt_stdio_output@@V?$standard_base@_WV?$stream_output_adapter@_W@__crt_stdio_output@@@2@@__crt_stdio_output@@CAPA_WXZ 1002ce46 f i libucrt:output.obj
 0001:0002be4c       ?wide_null_string@?$output_processor@_WV?$string_output_adapter@_W@__crt_stdio_output@@V?$format_validation_base@_WV?$string_output_adapter@_W@__crt_stdio_output@@@2@@__crt_stdio_output@@CAPA_WXZ 1002ce4c f i libucrt:output.obj
 0001:0002be52       ?wide_null_string@?$output_processor@_WV?$string_output_adapter@_W@__crt_stdio_output@@V?$positional_parameter_base@_WV?$string_output_adapter@_W@__crt_stdio_output@@@2@@__crt_stdio_output@@CAPA_WXZ 1002ce52 f i libucrt:output.obj
 0001:0002be58       ?wide_null_string@?$output_processor@_WV?$string_output_adapter@_W@__crt_stdio_output@@V?$standard_base@_WV?$string_output_adapter@_W@__crt_stdio_output@@@2@@__crt_stdio_output@@CAPA_WXZ 1002ce58 f i libucrt:output.obj
 0001:0002be5e       ?write_character@?$output_adapter_common@DV?$stream_output_adapter@D@__crt_stdio_output@@@__crt_stdio_output@@QBEXDQAH@Z 1002ce5e f i libucrt:output.obj
 0001:0002be7d       ?write_character@?$output_adapter_common@_WV?$stream_output_adapter@_W@__crt_stdio_output@@@__crt_stdio_output@@QBEX_WQAH@Z 1002ce7d f i libucrt:output.obj
 0001:0002be9c       ?write_character@?$string_output_adapter@D@__crt_stdio_output@@QBE_NDQAH@Z 1002ce9c f i libucrt:output.obj
 0001:0002bede       ?write_character@?$string_output_adapter@_W@__crt_stdio_output@@QBE_N_WQAH@Z 1002cede f i libucrt:output.obj
 0001:0002bf23       ?write_character_without_count_update@?$stream_output_adapter@D@__crt_stdio_output@@QBE_ND@Z 1002cf23 f i libucrt:output.obj
 0001:0002bf58       ?write_character_without_count_update@?$stream_output_adapter@_W@__crt_stdio_output@@QBE_N_W@Z 1002cf58 f i libucrt:output.obj
 0001:0002bf90       ?write_stored_string_tchar@?$output_processor@DV?$stream_output_adapter@D@__crt_stdio_output@@V?$format_validation_base@DV?$stream_output_adapter@D@__crt_stdio_output@@@2@@__crt_stdio_output@@AAE_ND@Z 1002cf90 f i libucrt:output.obj
 0001:0002c039       ?write_stored_string_tchar@?$output_processor@DV?$stream_output_adapter@D@__crt_stdio_output@@V?$positional_parameter_base@DV?$stream_output_adapter@D@__crt_stdio_output@@@2@@__crt_stdio_output@@AAE_ND@Z 1002d039 f i libucrt:output.obj
 0001:0002c0e2       ?write_stored_string_tchar@?$output_processor@DV?$stream_output_adapter@D@__crt_stdio_output@@V?$standard_base@DV?$stream_output_adapter@D@__crt_stdio_output@@@2@@__crt_stdio_output@@AAE_ND@Z 1002d0e2 f i libucrt:output.obj
 0001:0002c18b       ?write_stored_string_tchar@?$output_processor@DV?$string_output_adapter@D@__crt_stdio_output@@V?$format_validation_base@DV?$string_output_adapter@D@__crt_stdio_output@@@2@@__crt_stdio_output@@AAE_ND@Z 1002d18b f i libucrt:output.obj
 0001:0002c234       ?write_stored_string_tchar@?$output_processor@DV?$string_output_adapter@D@__crt_stdio_output@@V?$positional_parameter_base@DV?$string_output_adapter@D@__crt_stdio_output@@@2@@__crt_stdio_output@@AAE_ND@Z 1002d234 f i libucrt:output.obj
 0001:0002c2dd       ?write_stored_string_tchar@?$output_processor@DV?$string_output_adapter@D@__crt_stdio_output@@V?$standard_base@DV?$string_output_adapter@D@__crt_stdio_output@@@2@@__crt_stdio_output@@AAE_ND@Z 1002d2dd f i libucrt:output.obj
 0001:0002c386       ?write_stored_string_tchar@?$output_processor@_WV?$stream_output_adapter@_W@__crt_stdio_output@@V?$format_validation_base@_WV?$stream_output_adapter@_W@__crt_stdio_output@@@2@@__crt_stdio_output@@AAE_N_W@Z 1002d386 f i libucrt:output.obj
 0001:0002c41b       ?write_stored_string_tchar@?$output_processor@_WV?$stream_output_adapter@_W@__crt_stdio_output@@V?$positional_parameter_base@_WV?$stream_output_adapter@_W@__crt_stdio_output@@@2@@__crt_stdio_output@@AAE_N_W@Z 1002d41b f i libucrt:output.obj
 0001:0002c4b0       ?write_stored_string_tchar@?$output_processor@_WV?$stream_output_adapter@_W@__crt_stdio_output@@V?$standard_base@_WV?$stream_output_adapter@_W@__crt_stdio_output@@@2@@__crt_stdio_output@@AAE_N_W@Z 1002d4b0 f i libucrt:output.obj
 0001:0002c545       ?write_stored_string_tchar@?$output_processor@_WV?$string_output_adapter@_W@__crt_stdio_output@@V?$format_validation_base@_WV?$string_output_adapter@_W@__crt_stdio_output@@@2@@__crt_stdio_output@@AAE_N_W@Z 1002d545 f i libucrt:output.obj
 0001:0002c5da       ?write_stored_string_tchar@?$output_processor@_WV?$string_output_adapter@_W@__crt_stdio_output@@V?$positional_parameter_base@_WV?$string_output_adapter@_W@__crt_stdio_output@@@2@@__crt_stdio_output@@AAE_N_W@Z 1002d5da f i libucrt:output.obj
 0001:0002c66f       ?write_stored_string_tchar@?$output_processor@_WV?$string_output_adapter@_W@__crt_stdio_output@@V?$standard_base@_WV?$string_output_adapter@_W@__crt_stdio_output@@@2@@__crt_stdio_output@@AAE_N_W@Z 1002d66f f i libucrt:output.obj
 0001:0002c704       ?write_string@?$stream_output_adapter@D@__crt_stdio_output@@QBEXQBDHQAHAAV__crt_deferred_errno_cache@@@Z 1002d704 f i libucrt:output.obj
 0001:0002c72f       ?write_string@?$stream_output_adapter@_W@__crt_stdio_output@@QBEXQB_WHQAHAAV__crt_deferred_errno_cache@@@Z 1002d72f f i libucrt:output.obj
 0001:0002c75a       ?write_string@?$string_output_adapter@D@__crt_stdio_output@@QBEXQBDHQAHAAV__crt_deferred_errno_cache@@@Z 1002d75a f i libucrt:output.obj
 0001:0002c7c1       ?write_string@?$string_output_adapter@_W@__crt_stdio_output@@QBEXQB_WHQAHAAV__crt_deferred_errno_cache@@@Z 1002d7c1 f i libucrt:output.obj
 0001:0002c834       ?write_string_impl@?$output_adapter_common@DV?$stream_output_adapter@D@__crt_stdio_output@@@__crt_stdio_output@@IBEXQBDHQAHAAV__crt_deferred_errno_cache@@@Z 1002d834 f i libucrt:output.obj
 0001:0002c8d4       ?write_string_impl@?$output_adapter_common@_WV?$stream_output_adapter@_W@__crt_stdio_output@@@__crt_stdio_output@@IBEXQB_WHQAHAAV__crt_deferred_errno_cache@@@Z 1002d8d4 f i libucrt:output.obj
 0001:0002c977       ___acrt_isleadbyte_l_noupdate 1002d977 f i libucrt:output.obj
 0001:0002c992       ___stdio_common_vfprintf   1002d992 f   libucrt:output.obj
 0001:0002ca17       ___stdio_common_vfprintf_p 1002da17 f   libucrt:output.obj
 0001:0002ca9c       ___stdio_common_vfprintf_s 1002da9c f   libucrt:output.obj
 0001:0002cb21       ___stdio_common_vfwprintf  1002db21 f   libucrt:output.obj
 0001:0002cba6       ___stdio_common_vfwprintf_p 1002dba6 f   libucrt:output.obj
 0001:0002cc2b       ___stdio_common_vfwprintf_s 1002dc2b f   libucrt:output.obj
 0001:0002ccb0       ___stdio_common_vsnprintf_s 1002dcb0 f   libucrt:output.obj
 0001:0002ccd7       ___stdio_common_vsnwprintf_s 1002dcd7 f   libucrt:output.obj
 0001:0002ccfe       ___stdio_common_vsprintf   1002dcfe f   libucrt:output.obj
 0001:0002cd22       ___stdio_common_vsprintf_p 1002dd22 f   libucrt:output.obj
 0001:0002cd46       ___stdio_common_vsprintf_s 1002dd46 f   libucrt:output.obj
 0001:0002cd6a       ___stdio_common_vswprintf  1002dd6a f   libucrt:output.obj
 0001:0002cd8e       ___stdio_common_vswprintf_p 1002dd8e f   libucrt:output.obj
 0001:0002cdb2       ___stdio_common_vswprintf_s 1002ddb2 f   libucrt:output.obj
 0001:0002cdd6       _free                      1002ddd6 f   libucrt:free.obj
 0001:0002cdf3       _malloc                    1002ddf3 f   libucrt:malloc.obj
 0001:0002d36c       __read                     1002e36c f   libucrt:read.obj
 0001:0002d476       __read_nolock              1002e476 f   libucrt:read.obj
 0001:0002d828       __utf8_no_of_trailbytes    1002e828 f i libucrt:read.obj
 0001:0002d9cc       __close                    1002e9cc f   libucrt:close.obj
 0001:0002da5b       __close_nolock             1002ea5b f   libucrt:close.obj
 0001:0002daf7       ___acrt_errno_from_os_error 1002eaf7 f   libucrt:errno.obj
 0001:0002db3a       ___acrt_errno_map_os_error 1002eb3a f   libucrt:errno.obj
 0001:0002db5d       ___doserrno                1002eb5d f   libucrt:errno.obj
 0001:0002db70       __errno                    1002eb70 f   libucrt:errno.obj
 0001:0002db83       __get_doserrno             1002eb83 f   libucrt:errno.obj
 0001:0002dba8       __get_errno                1002eba8 f   libucrt:errno.obj
 0001:0002dbcd       __set_doserrno             1002ebcd f   libucrt:errno.obj
 0001:0002dbee       __set_errno                1002ebee f   libucrt:errno.obj
 0001:0002dc0f       ??$?R_W@__crt_internal_free_policy@@QBEXQB_W@Z 1002ec0f f i libucrt:strerror.obj
 0001:0002dde9       ??0?$__crt_unique_heap_ptr@_WU__crt_internal_free_policy@@@@QAE@QA_W@Z 1002ede9 f i libucrt:strerror.obj
 0001:0002ddf9       ??1?$__crt_unique_heap_ptr@_WU__crt_internal_free_policy@@@@QAE@XZ 1002edf9 f i libucrt:strerror.obj
 0001:0002de43       ?detach@?$__crt_unique_heap_ptr@DU__crt_internal_free_policy@@@@QAEPADXZ 1002ee43 f i libucrt:strerror.obj
 0001:0002de49       ?detach@?$__crt_unique_heap_ptr@_WU__crt_internal_free_policy@@@@QAEPA_WXZ 1002ee49 f i libucrt:strerror.obj
 0001:0002de75       ?release@?$__crt_unique_heap_ptr@_WU__crt_internal_free_policy@@@@QAEXXZ 1002ee75 f i libucrt:strerror.obj
 0001:0002de87       __get_sys_err_msg          1002ee87 f i libucrt:strerror.obj
 0001:0002deab       __invoke_watson_if_oneof   1002eeab f i libucrt:strerror.obj
 0001:0002ded8       __wcserror                 1002eed8 f   libucrt:strerror.obj
 0001:0002dee3       __wcserror_s               1002eee3 f   libucrt:strerror.obj
 0001:0002df49       _strerror                  1002ef49 f   libucrt:strerror.obj
 0001:0002df54       _strerror_s                1002ef54 f   libucrt:strerror.obj
 0001:0002e5b3       __write                    1002f5b3 f   libucrt:write.obj
 0001:0002e69b       __write_nolock             1002f69b f   libucrt:write.obj
 0001:0002efbf       ?ctrl_z@__crt_stdio_stream@@QBE_NXZ 1002ffbf f i libucrt:ftell.obj
 0001:0002efca       ?has_all_of@__crt_stdio_stream@@QBE_NJ@Z 1002ffca f i libucrt:ftell.obj
 0001:0002efe1       ?has_any_of@__crt_stdio_stream@@QBE_NJ@Z 1002ffe1 f i libucrt:ftell.obj
 0001:0002eff5       ?has_big_buffer@__crt_stdio_stream@@QBE_NXZ 1002fff5 f i libucrt:ftell.obj
 0001:0002f000       ?has_crt_buffer@__crt_stdio_stream@@QBE_NXZ 10030000 f i libucrt:ftell.obj
 0001:0002f00b       ?has_setvbuf_buffer@__crt_stdio_stream@@QBE_NXZ 1003000b f i libucrt:ftell.obj
 0001:0002f016       __ftell_nolock             10030016 f   libucrt:ftell.obj
 0001:0002f021       __ftelli64                 10030021 f   libucrt:ftell.obj
 0001:0002f02c       __ftelli64_nolock          1003002c f   libucrt:ftell.obj
 0001:0002f037       _ftell                     10030037 f   libucrt:ftell.obj
 0001:0002f042       ?eof@__crt_stdio_stream@@QBE_NXZ 10030042 f i libucrt:feoferr.obj
 0001:0002f04d       ?error@__crt_stdio_stream@@QBE_NXZ 1003004d f i libucrt:feoferr.obj
 0001:0002f058       _feof                      10030058 f   libucrt:feoferr.obj
 0001:0002f083       _ferror                    10030083 f   libucrt:feoferr.obj
 0001:0002f295       ??$open_file@ABQBDABQBDABHPAU_iobuf@@@?$__crt_char_traits@D@@SAPAU_iobuf@@ABQBD0ABH$$QAPAU1@@Z 10030295 f i libucrt:fopen.obj
 0001:0002f2b8       ??$open_file@ABQB_WABQB_WABHPAU_iobuf@@@?$__crt_char_traits@_W@@SAPAU_iobuf@@ABQB_W0ABH$$QAPAU1@@Z 100302b8 f i libucrt:fopen.obj
 0001:0002f2db       ?unlock@__crt_stdio_stream@@QBEXXZ 100302db f i libucrt:fopen.obj
 0001:0002f2e4       __fsopen                   100302e4 f   libucrt:fopen.obj
 0001:0002f2ef       __wfopen                   100302ef f   libucrt:fopen.obj
 0001:0002f306       __wfopen_s                 10030306 f   libucrt:fopen.obj
 0001:0002f34d       __wfsopen                  1003034d f   libucrt:fopen.obj
 0001:0002f358       _fopen                     10030358 f   libucrt:fopen.obj
 0001:0002f36f       _fopen_s                   1003036f f   libucrt:fopen.obj
 0001:0002f3b6       ?is_in_use@__crt_stdio_stream@@QBE_NXZ 100303b6 f i libucrt:fclose.obj
 0001:0002f3c1       __fclose_nolock            100303c1 f   libucrt:fclose.obj
 0001:0002f437       _fclose                    10030437 f   libucrt:fclose.obj
 0001:0002f4b0       ?LongLongSub@@YAJ_J0PA_J@Z 100304b0 f i libucrt:fseek.obj
 0001:0002f52a       ?__acrt_stdio_reset_buffer@@YAXV__crt_stdio_stream@@@Z 1003052a f i libucrt:fseek.obj
 0001:0002f788       ?has_any_buffer@__crt_stdio_stream@@QBE_NXZ 10030788 f i libucrt:fseek.obj
 0001:0002f796       ?lowio_handle@__crt_stdio_stream@@QBEHXZ 10030796 f i libucrt:fseek.obj
 0001:0002f79c       ?unset_flags@__crt_stdio_stream@@QBE_NJ@Z 1003079c f i libucrt:fseek.obj
 0001:0002f7c5       __fseek_nolock             100307c5 f   libucrt:fseek.obj
 0001:0002f7e0       __fseeki64                 100307e0 f   libucrt:fseek.obj
 0001:0002f7fb       __fseeki64_nolock          100307fb f   libucrt:fseek.obj
 0001:0002f816       _fseek                     10030816 f   libucrt:fseek.obj
 0001:0002f947       ?set_flags@__crt_stdio_stream@@QBE_NJ@Z 10030947 f i libucrt:fwrite.obj
 0001:0002f96b       __fwrite_nolock            1003096b f   libucrt:fwrite.obj
 0001:0002fae6       _fwrite                    10030ae6 f   libucrt:fwrite.obj
 0001:0002fb4b       __fread_nolock             10030b4b f   libucrt:fread.obj
 0001:0002fb68       __fread_nolock_s           10030b68 f   libucrt:fread.obj
 0001:0002fd41       _fread                     10030d41 f   libucrt:fread.obj
 0001:0002fd5e       _fread_s                   10030d5e f   libucrt:fread.obj
 0001:0002fe72       _rand                      10030e72 f   libucrt:rand.obj
 0001:0002fe93       _srand                     10030e93 f   libucrt:rand.obj
 0001:0003001a       __time32                   1003101a f   libucrt:time.obj
 0001:0003004c       __time64                   1003104c f   libucrt:time.obj
 0001:0003008e       __timespec32_get           1003108e f   libucrt:time.obj
 0001:00030099       __timespec64_get           10031099 f   libucrt:time.obj
 0001:000300a4       __initterm                 100310a4 f   libucrt:initterm.obj
 0001:00030100       __initterm_e               10031100 f   libucrt:initterm.obj
 0001:00030169       __seh_filter_dll           10031169 f   libucrt:exception_filter.obj
 0001:00030189       __seh_filter_exe           10031189 f   libucrt:exception_filter.obj
 0001:000302ef       ??$?B$$A6GXPAXK0@Z@__crt_fast_encoded_nullptr_t@@QBEP6GXPAXK0@ZXZ 100312ef f i libucrt:exit.obj
 0001:00030372       ??$__crt_fast_decode_pointer@P6GXPAXK0@Z@@YAP6GXPAXK0@ZQ6GX0K0@Z@Z 10031372 f i libucrt:exit.obj
 0001:00030388       ??$__crt_fast_encode_pointer@P6GXPAXK0@Z@@YAP6GXPAXK0@ZQ6GX0K0@Z@Z 10031388 f i libucrt:exit.obj
 0001:000303a7       ??$__crt_get_proc_address@P6GXI@Z@@YAP6GXI@ZQAUHINSTANCE__@@QBD@Z 100313a7 f i libucrt:exit.obj
 0001:000303fa       ??0?$__crt_unique_handle_t@U__crt_hmodule_traits@@@@QAE@QAUHINSTANCE__@@@Z 100313fa f i libucrt:exit.obj
 0001:0003040a       ??1?$__crt_unique_handle_t@U__crt_hmodule_traits@@@@QAE@XZ 1003140a f i libucrt:exit.obj
 0001:0003050f       ?__acrt_select_exit_lock@@YA?AW4__acrt_lock_id@@XZ 1003150f f i libucrt:exit.obj
 0001:00030526       ?close@?$__crt_unique_handle_t@U__crt_hmodule_traits@@@@QAEXXZ 10031526 f i libucrt:exit.obj
 0001:0003053d       ?close@__crt_hmodule_traits@@SA_NPAUHINSTANCE__@@@Z 1003153d f i libucrt:exit.obj
 0001:000305fa       ?get@?$__crt_unique_handle_t@U__crt_hmodule_traits@@@@QBEPAUHINSTANCE__@@XZ 100315fa f i libucrt:exit.obj
 0001:000305fd       ?get_address_of@?$__crt_unique_handle_t@U__crt_hmodule_traits@@@@QAEPAPAUHINSTANCE__@@XZ 100315fd f i libucrt:exit.obj
 0001:00030600       ?get_invalid_value@__crt_hmodule_traits@@SAPAUHINSTANCE__@@XZ 10031600 f i libucrt:exit.obj
 0001:000306cf       __Exit                     100316cf f   libucrt:exit.obj
 0001:000306e5       ___acrt_initialize_thread_local_exit_callback 100316e5 f   libucrt:exit.obj
 0001:000306f4       __c_exit                   100316f4 f   libucrt:exit.obj
 0001:00030703       __cexit                    10031703 f   libucrt:exit.obj
 0001:00030712       __exit                     10031712 f   libucrt:exit.obj
 0001:00030728       __is_c_termination_complete 10031728 f   libucrt:exit.obj
 0001:0003072e       __register_thread_local_exe_atexit_callback 1003172e f   libucrt:exit.obj
 0001:00030766       _exit                      10031766 f   libucrt:exit.obj
 0001:0003077c       _quick_exit                1003177c f   libucrt:exit.obj
 0001:00030792       ??$?RE@__crt_internal_free_policy@@QBEXQBE@Z 10031792 f i libucrt:argv_parsing.obj
 0001:000307a4       ??$?RPAD@__crt_internal_free_policy@@QBEXQBQAD@Z 100317a4 f i libucrt:argv_parsing.obj
 0001:000307b6       ??$?RPA_W@__crt_internal_free_policy@@QBEXQBQA_W@Z 100317b6 f i libucrt:argv_parsing.obj
 0001:00030a31       ??$get_module_file_name@$$TAAY0BAF@DH@?$__crt_char_traits@D@@SAK$$QA$$TAAY0BAF@D$$QAH@Z 10031a31 f i libucrt:argv_parsing.obj
 0001:00030a4d       ??$get_module_file_name@$$TAAY0BAF@_WH@?$__crt_char_traits@_W@@SAK$$QA$$TAAY0BAF@_W$$QAH@Z 10031a4d f i libucrt:argv_parsing.obj
 0001:00030d77       ??$set_program_name@PAD@?$__crt_char_traits@D@@SAX$$QAPAD@Z 10031d77 f i libucrt:argv_parsing.obj
 0001:00030d88       ??$set_program_name@PA_W@?$__crt_char_traits@_W@@SAX$$QAPA_W@Z 10031d88 f i libucrt:argv_parsing.obj
 0001:00030db9       ??0?$__crt_unique_heap_ptr@EU__crt_internal_free_policy@@@@QAE@QAE@Z 10031db9 f i libucrt:argv_parsing.obj
 0001:00030dc9       ??0?$__crt_unique_heap_ptr@PADU__crt_internal_free_policy@@@@QAE@QAPAD@Z 10031dc9 f i libucrt:argv_parsing.obj
 0001:00030dd9       ??0?$__crt_unique_heap_ptr@PA_WU__crt_internal_free_policy@@@@QAE@QAPA_W@Z 10031dd9 f i libucrt:argv_parsing.obj
 0001:00030de9       ??1?$__crt_unique_heap_ptr@EU__crt_internal_free_policy@@@@QAE@XZ 10031de9 f i libucrt:argv_parsing.obj
 0001:00030dfb       ??1?$__crt_unique_heap_ptr@PADU__crt_internal_free_policy@@@@QAE@XZ 10031dfb f i libucrt:argv_parsing.obj
 0001:00030e0d       ??1?$__crt_unique_heap_ptr@PA_WU__crt_internal_free_policy@@@@QAE@XZ 10031e0d f i libucrt:argv_parsing.obj
 0001:00030e1f       ??B?$__crt_unique_heap_ptr@EU__crt_internal_free_policy@@@@QBE_NXZ 10031e1f f i libucrt:argv_parsing.obj
 0001:00030e52       ?detach@?$__crt_unique_heap_ptr@EU__crt_internal_free_policy@@@@QAEPAEXZ 10031e52 f i libucrt:argv_parsing.obj
 0001:00030e58       ?detach@?$__crt_unique_heap_ptr@PADU__crt_internal_free_policy@@@@QAEPAPADXZ 10031e58 f i libucrt:argv_parsing.obj
 0001:00030e5e       ?detach@?$__crt_unique_heap_ptr@PA_WU__crt_internal_free_policy@@@@QAEPAPA_WXZ 10031e5e f i libucrt:argv_parsing.obj
 0001:00030e80       ?get@?$__crt_unique_heap_ptr@EU__crt_internal_free_policy@@@@QBEPAEXZ 10031e80 f i libucrt:argv_parsing.obj
 0001:00030e83       ?get@?$__crt_unique_heap_ptr@PADU__crt_internal_free_policy@@@@QBEPAPADXZ 10031e83 f i libucrt:argv_parsing.obj
 0001:00030e86       ?get@?$__crt_unique_heap_ptr@PA_WU__crt_internal_free_policy@@@@QBEPAPA_WXZ 10031e86 f i libucrt:argv_parsing.obj
 0001:00030e89       ?get_address_of@?$__crt_unique_heap_ptr@PADU__crt_internal_free_policy@@@@QAEPAPAPADXZ 10031e89 f i libucrt:argv_parsing.obj
 0001:00030e8c       ?get_address_of@?$__crt_unique_heap_ptr@PA_WU__crt_internal_free_policy@@@@QAEPAPAPA_WXZ 10031e8c f i libucrt:argv_parsing.obj
 0001:00030ea7       ?is_valid@?$__crt_unique_heap_ptr@EU__crt_internal_free_policy@@@@QBE_NXZ 10031ea7 f i libucrt:argv_parsing.obj
 0001:00030eae       ?release@?$__crt_unique_heap_ptr@EU__crt_internal_free_policy@@@@QAEXXZ 10031eae f i libucrt:argv_parsing.obj
 0001:00030ec0       ?release@?$__crt_unique_heap_ptr@PADU__crt_internal_free_policy@@@@QAEXXZ 10031ec0 f i libucrt:argv_parsing.obj
 0001:00030ed2       ?release@?$__crt_unique_heap_ptr@PA_WU__crt_internal_free_policy@@@@QAEXXZ 10031ed2 f i libucrt:argv_parsing.obj
 0001:00030efe       ___acrt_allocate_buffer_for_argv 10031efe f   libucrt:argv_parsing.obj
 0001:00030f4d       __configure_narrow_argv    10031f4d f   libucrt:argv_parsing.obj
 0001:00030f58       __configure_wide_argv      10031f58 f   libucrt:argv_parsing.obj
 0001:00030f63       __set_pgmptr               10031f63 f i libucrt:argv_parsing.obj
 0001:00030f72       __set_wpgmptr              10031f72 f i libucrt:argv_parsing.obj
 0001:0003135e       ??$get_environment_from_os@$$V@?$__crt_char_traits@D@@SAPADXZ 1003235e f i libucrt:environment_initialization.obj
 0001:00031363       ??$get_environment_from_os@$$V@?$__crt_char_traits@_W@@SAPA_WXZ 10032363 f i libucrt:environment_initialization.obj
 0001:00031472       ??$set_variable_in_environment_nolock@PADH@?$__crt_char_traits@D@@SAH$$QAPAD$$QAH@Z 10032472 f i libucrt:environment_initialization.obj
 0001:0003148a       ??$set_variable_in_environment_nolock@PA_WH@?$__crt_char_traits@_W@@SAH$$QAPA_W$$QAH@Z 1003248a f i libucrt:environment_initialization.obj
 0001:000314a2       ??$tcscpy_s@PADABIAAPAD@?$__crt_char_traits@D@@SAH$$QAPADABIAAPAD@Z 100324a2 f i libucrt:environment_initialization.obj
 0001:000314c0       ??$tcscpy_s@PA_WABIAAPA_W@?$__crt_char_traits@_W@@SAH$$QAPA_WABIAAPA_W@Z 100324c0 f i libucrt:environment_initialization.obj
 0001:000314de       ??$tcslen@AAPAD@?$__crt_char_traits@D@@SAIAAPAD@Z 100324de f i libucrt:environment_initialization.obj
 0001:000314f6       ??$tcslen@AAPA_W@?$__crt_char_traits@_W@@SAIAAPA_W@Z 100324f6 f i libucrt:environment_initialization.obj
 0001:00031514       ??$uninitialize@A6AXAAPAPAD@Z@?$dual_state_global@PAPAD@__crt_state_management@@QAEXA6AXAAPAPAD@Z@Z 10032514 f i libucrt:environment_initialization.obj
 0001:00031554       ??$uninitialize@A6AXAAPAPA_W@Z@?$dual_state_global@PAPA_W@__crt_state_management@@QAEXA6AXAAPAPA_W@Z@Z 10032554 f i libucrt:environment_initialization.obj
 0001:000315ca       ??B?$__crt_unique_heap_ptr@PADU__crt_internal_free_policy@@@@QBE_NXZ 100325ca f i libucrt:environment_initialization.obj
 0001:000315d1       ??B?$__crt_unique_heap_ptr@PA_WU__crt_internal_free_policy@@@@QBE_NXZ 100325d1 f i libucrt:environment_initialization.obj
 0001:000315d8       ??B?$__crt_unique_heap_ptr@_WU__crt_internal_free_policy@@@@QBE_NXZ 100325d8 f i libucrt:environment_initialization.obj
 0001:000315df       ?__crt_compute_required_transform_buffer_count@@YAIIQBD@Z 100325df f i libucrt:environment_initialization.obj
 0001:000315fb       ?__crt_compute_required_transform_buffer_count@@YAIIQB_W@Z 100325fb f i libucrt:environment_initialization.obj
 0001:00031619       ?__crt_transform_string@@YAIIQBDQA_WI@Z 10032619 f i libucrt:environment_initialization.obj
 0001:00031638       ?__crt_transform_string@@YAIIQB_WQADI@Z 10032638 f i libucrt:environment_initialization.obj
 0001:0003165a       ?get@?$__crt_unique_heap_ptr@_WU__crt_internal_free_policy@@@@QBEPA_WXZ 1003265a f i libucrt:environment_initialization.obj
 0001:0003165d       ?get_current_state_index@__crt_state_management@@YAIXZ 1003265d f i libucrt:environment_initialization.obj
 0001:00031684       ?initialize@?$dual_state_global@PAPAD@__crt_state_management@@QAEXQAPAD@Z 10032684 f i libucrt:environment_initialization.obj
 0001:000316aa       ?initialize@?$dual_state_global@PAPA_W@__crt_state_management@@QAEXQAPA_W@Z 100326aa f i libucrt:environment_initialization.obj
 0001:000316d0       ?is_valid@?$__crt_unique_heap_ptr@PADU__crt_internal_free_policy@@@@QBE_NXZ 100326d0 f i libucrt:environment_initialization.obj
 0001:000316d7       ?is_valid@?$__crt_unique_heap_ptr@PA_WU__crt_internal_free_policy@@@@QBE_NXZ 100326d7 f i libucrt:environment_initialization.obj
 0001:000316de       ?is_valid@?$__crt_unique_heap_ptr@_WU__crt_internal_free_policy@@@@QBE_NXZ 100326de f i libucrt:environment_initialization.obj
 0001:000316eb       ?value@?$dual_state_global@PAPAD@__crt_state_management@@QAEAAPAPADXZ 100326eb f i libucrt:environment_initialization.obj
 0001:000316ee       ?value@?$dual_state_global@PAPA_W@__crt_state_management@@QAEAAPAPA_WXZ 100326ee f i libucrt:environment_initialization.obj
 0001:000316f1       ___dcrt_get_or_create_narrow_environment_nolock 100326f1 f   libucrt:environment_initialization.obj
 0001:000316f6       ___dcrt_get_or_create_wide_environment_nolock 100326f6 f   libucrt:environment_initialization.obj
 0001:000316fb       ___dcrt_uninitialize_environments_nolock 100326fb f   libucrt:environment_initialization.obj
 0001:00031732       ___p__environ              10032732 f   libucrt:environment_initialization.obj
 0001:00031738       ___p__wenviron             10032738 f   libucrt:environment_initialization.obj
 0001:0003173e       __get_initial_narrow_environment 1003273e f   libucrt:environment_initialization.obj
 0001:00031752       __get_initial_wide_environment 10032752 f   libucrt:environment_initialization.obj
 0001:00031766       __initialize_narrow_environment 10032766 f   libucrt:environment_initialization.obj
 0001:0003176b       __initialize_wide_environment 1003276b f   libucrt:environment_initialization.obj
 0001:00031770       ??$?BP6AXXZ@__crt_fast_encoded_nullptr_t@@QBEPAP6AXXZXZ 10032770 f i libucrt:onexit.obj
 0001:00031788       ??$?RP6AXXZ@__crt_internal_free_policy@@QBEXQBQ6AXXZ@Z 10032788 f i libucrt:onexit.obj
 0001:0003188c       ??$__crt_fast_encode_pointer@P6AHXZ@@YAP6AHXZQ6AHXZ@Z 1003288c f i libucrt:onexit.obj
 0001:00031919       ??0?$__crt_unique_heap_ptr@P6AXXZU__crt_internal_free_policy@@@@QAE@QAP6AXXZ@Z 10032919 f i libucrt:onexit.obj
 0001:00031929       ??1?$__crt_unique_heap_ptr@P6AXXZU__crt_internal_free_policy@@@@QAE@XZ 10032929 f i libucrt:onexit.obj
 0001:0003193b       ??1scoped_global_state_reset@__crt_state_management@@QAE@XZ 1003293b f i libucrt:onexit.obj
 0001:00031bc5       ?detach@?$__crt_unique_heap_ptr@P6AXXZU__crt_internal_free_policy@@@@QAEPAP6AXXZXZ 10032bc5 f i libucrt:onexit.obj
 0001:00031bcb       ?release@?$__crt_unique_heap_ptr@P6AXXZU__crt_internal_free_policy@@@@QAEXXZ 10032bcb f i libucrt:onexit.obj
 0001:00031bdd       __crt_at_quick_exit        10032bdd f   libucrt:onexit.obj
 0001:00031bf3       __crt_atexit               10032bf3 f   libucrt:onexit.obj
 0001:00031c09       __execute_onexit_table     10032c09 f   libucrt:onexit.obj
 0001:00031c38       __initialize_onexit_table  10032c38 f   libucrt:onexit.obj
 0001:00031c75       __register_onexit_function 10032c75 f   libucrt:onexit.obj
 0001:00031de9       ?__acrt_stdio_is_initialized@@YA_NXZ 10032de9 f i libucrt:initialization.obj
 0001:00031df4       ?initialize@?$dual_state_global@PAU__crt_locale_data@@@__crt_state_management@@QAEXQAU__crt_locale_data@@@Z 10032df4 f i libucrt:initialization.obj
 0001:00031e1a       ___acrt_initialize         10032e1a f   libucrt:initialization.obj
 0001:00031e2c       ___acrt_thread_attach      10032e2c f   libucrt:initialization.obj
 0001:00031e37       ___acrt_thread_detach      10032e37 f   libucrt:initialization.obj
 0001:00031e3f       ___acrt_uninitialize       10032e3f f   libucrt:initialization.obj
 0001:00031e6f       ___acrt_uninitialize_critical 10032e6f f   libucrt:initialization.obj
 0001:00031e97       __get_terminate            10032e97 f   libucrt:terminate.obj
 0001:00031ea9       _set_terminate             10032ea9 f   libucrt:terminate.obj
 0001:00031ec9       _terminate                 10032ec9 f   libucrt:terminate.obj
 0001:00031f5f       _strcpy_s                  10032f5f f   libucrt:strcpy_s.obj
 0001:00031fb9       ??$is_overflow_condition@K@__crt_strtox@@YA_NIK@Z 10032fb9 f i libucrt:atox.obj
 0001:00031fea       ??$is_overflow_condition@_K@__crt_strtox@@YA_NI_K@Z 10032fea f i libucrt:atox.obj
 0001:0003202b       ??$make_c_string_character_source@D$$T@__crt_strtox@@YA?AV?$c_string_character_source@D@0@QBD$$T@Z 1003302b f i libucrt:atox.obj
 0001:00032046       ??$make_c_string_character_source@_W$$T@__crt_strtox@@YA?AV?$c_string_character_source@_W@0@QB_W$$T@Z 10033046 f i libucrt:atox.obj
 0001:00032061       ??$parse_integer@KV?$c_string_character_source@D@__crt_strtox@@@__crt_strtox@@YAKQAU__crt_locale_pointers@@V?$c_string_character_source@D@0@H_N@Z 10033061 f i libucrt:atox.obj
 0001:0003228a       ??$parse_integer@KV?$c_string_character_source@_W@__crt_strtox@@@__crt_strtox@@YAKQAU__crt_locale_pointers@@V?$c_string_character_source@_W@0@H_N@Z 1003328a f i libucrt:atox.obj
 0001:000328cb       ??$parse_integer@_KV?$c_string_character_source@D@__crt_strtox@@@__crt_strtox@@YA_KQAU__crt_locale_pointers@@V?$c_string_character_source@D@0@H_N@Z 100338cb f i libucrt:atox.obj
 0001:00032b72       ??$parse_integer@_KV?$c_string_character_source@_W@__crt_strtox@@@__crt_strtox@@YA_KQAU__crt_locale_pointers@@V?$c_string_character_source@_W@0@H_N@Z 10033b72 f i libucrt:atox.obj
 0001:0003327d       ??$parse_integer_from_string@JD$$T@__crt_strtox@@YAJQBD$$THQAU__crt_locale_pointers@@@Z 1003427d f i libucrt:atox.obj
 0001:000332aa       ??$parse_integer_from_string@J_W$$T@__crt_strtox@@YAJQB_W$$THQAU__crt_locale_pointers@@@Z 100342aa f i libucrt:atox.obj
 0001:000332d7       ??$parse_integer_from_string@_JD$$T@__crt_strtox@@YA_JQBD$$THQAU__crt_locale_pointers@@@Z 100342d7 f i libucrt:atox.obj
 0001:00033304       ??$parse_integer_from_string@_J_W$$T@__crt_strtox@@YA_JQB_W$$THQAU__crt_locale_pointers@@@Z 10034304 f i libucrt:atox.obj
 0001:00033331       ??0?$c_string_character_source@D@__crt_strtox@@QAE@QBDQAPBD@Z 10034331 f i libucrt:atox.obj
 0001:0003334d       ??0?$c_string_character_source@_W@__crt_strtox@@QAE@QB_WQAPB_W@Z 1003434d f i libucrt:atox.obj
 0001:00033369       ??1?$c_string_character_source@D@__crt_strtox@@QAE@XZ 10034369 f i libucrt:atox.obj
 0001:00033375       ??1?$c_string_character_source@_W@__crt_strtox@@QAE@XZ 10034375 f i libucrt:atox.obj
 0001:00033381       ?get@?$c_string_character_source@D@__crt_strtox@@QAEDXZ 10034381 f i libucrt:atox.obj
 0001:00033389       ?get@?$c_string_character_source@_W@__crt_strtox@@QAE_WXZ 10034389 f i libucrt:atox.obj
 0001:00033394       ?is_space@__crt_strtox@@YA_NDQAU__crt_locale_pointers@@@Z 10034394 f i libucrt:atox.obj
 0001:000333b2       ?is_space@__crt_strtox@@YA_N_WPAU__crt_locale_pointers@@@Z 100343b2 f i libucrt:atox.obj
 0001:000333ca       ?maximum_signed_value@__crt_strtox@@YAJK@Z 100343ca f i libucrt:atox.obj
 0001:000333d0       ?maximum_signed_value@__crt_strtox@@YA_J_K@Z 100343d0 f i libucrt:atox.obj
 0001:000333d9       ?minimum_signed_value@__crt_strtox@@YAJK@Z 100343d9 f i libucrt:atox.obj
 0001:000333df       ?minimum_signed_value@__crt_strtox@@YA_J_K@Z 100343df f i libucrt:atox.obj
 0001:000333e7       ?parse_digit@__crt_strtox@@YAID@Z 100343e7 f i libucrt:atox.obj
 0001:00033421       ?parse_digit@__crt_strtox@@YAI_W@Z 10034421 f i libucrt:atox.obj
 0001:00033615       ?restore_state@?$c_string_character_source@D@__crt_strtox@@QAE_NQBD@Z 10034615 f i libucrt:atox.obj
 0001:00033625       ?restore_state@?$c_string_character_source@_W@__crt_strtox@@QAE_NQB_W@Z 10034625 f i libucrt:atox.obj
 0001:00033635       ?save_state@?$c_string_character_source@D@__crt_strtox@@QBEPBDXZ 10034635 f i libucrt:atox.obj
 0001:00033638       ?save_state@?$c_string_character_source@_W@__crt_strtox@@QBEPB_WXZ 10034638 f i libucrt:atox.obj
 0001:0003363b       ?unget@?$c_string_character_source@D@__crt_strtox@@QAEXD@Z 1003463b f i libucrt:atox.obj
 0001:00033664       ?unget@?$c_string_character_source@_W@__crt_strtox@@QAEX_W@Z 10034664 f i libucrt:atox.obj
 0001:00033692       ?validate@?$c_string_character_source@D@__crt_strtox@@QBE_NXZ 10034692 f i libucrt:atox.obj
 0001:000336ad       ?validate@?$c_string_character_source@_W@__crt_strtox@@QBE_NXZ 100346ad f i libucrt:atox.obj
 0001:000336c8       ?wide_character_to_digit@__crt_strtox@@YAH_W@Z 100346c8 f i libucrt:atox.obj
 0001:00033869       ___acrt_get_locale_data_prefix 10034869 f i libucrt:atox.obj
 0001:00033875       __atoi64                   10034875 f   libucrt:atox.obj
 0001:0003389a       __atoi64_l                 1003489a f   libucrt:atox.obj
 0001:000338c0       __atoi_l                   100348c0 f   libucrt:atox.obj
 0001:000338e6       __atol_l                   100348e6 f   libucrt:atox.obj
 0001:0003390c       __atoll_l                  1003490c f   libucrt:atox.obj
 0001:00033932       __chvalidchk_l             10034932 f i libucrt:atox.obj
 0001:00033958       __ischartype_l             10034958 f i libucrt:atox.obj
 0001:0003398b       __wtoi                     1003498b f   libucrt:atox.obj
 0001:000339b0       __wtoi64                   100349b0 f   libucrt:atox.obj
 0001:000339d5       __wtoi64_l                 100349d5 f   libucrt:atox.obj
 0001:000339fb       __wtoi_l                   100349fb f   libucrt:atox.obj
 0001:00033a21       __wtol                     10034a21 f   libucrt:atox.obj
 0001:00033a46       __wtol_l                   10034a46 f   libucrt:atox.obj
 0001:00033a6c       __wtoll                    10034a6c f   libucrt:atox.obj
 0001:00033a91       __wtoll_l                  10034a91 f   libucrt:atox.obj
 0001:00033ab7       _atoi                      10034ab7 f   libucrt:atox.obj
 0001:00033adc       _atol                      10034adc f   libucrt:atox.obj
 0001:00033b01       _atoll                     10034b01 f   libucrt:atox.obj
 0001:00033b30       _strncmp                   10034b30 f   libucrt:strncmp.obj
 0001:00033ba8       __set_abort_behavior       10034ba8 f   libucrt:abort.obj
 0001:00033bc9       _abort                     10034bc9 f   libucrt:abort.obj
 0001:00033c0d       _calloc                    10034c0d f   libucrt:calloc.obj
 0001:00033c18       _wcsncmp                   10034c18 f   libucrt:wcsncmp.obj
 0001:00033c52       ??$__crt_fast_decode_pointer@P6AXPB_W00II@Z@@YAP6AXPB_W00II@ZQ6AX000II@Z@Z 10034c52 f i libucrt:invalid_parameter.obj
 0001:00033c68       ??$__crt_fast_encode_pointer@P6AXPB_W00II@Z@@YAP6AXPB_W00II@ZQ6AX000II@Z@Z 10034c68 f i libucrt:invalid_parameter.obj
 0001:00033c87       ??$initialize_from_array@$$BY00Q6AXPB_W00II@Z@?$dual_state_global@P6AXPB_W00II@Z@__crt_state_management@@QAAXAAY00Q6AXPB_W00II@Z@Z 10034c87 f i libucrt:invalid_parameter.obj
 0001:00033c98       ?dangerous_get_state_array@?$dual_state_global@P6AXPB_W00II@Z@__crt_state_management@@QAEPAP6AXPB_W00II@ZXZ 10034c98 f i libucrt:invalid_parameter.obj
 0001:00033c9b       ?value@?$dual_state_global@P6AXPB_W00II@Z@__crt_state_management@@QAEAAP6AXPB_W00II@ZXZ 10034c9b f i libucrt:invalid_parameter.obj
 0001:00033c9e       ___acrt_call_reportfault   10034c9e f   libucrt:invalid_parameter.obj
 0001:00033dd9       ___acrt_initialize_invalid_parameter_handler 10034dd9 f   libucrt:invalid_parameter.obj
 0001:00033de8       __get_invalid_parameter_handler 10034de8 f   libucrt:invalid_parameter.obj
 0001:00033dfb       __get_thread_local_invalid_parameter_handler 10034dfb f   libucrt:invalid_parameter.obj
 0001:00033e0c       __invalid_parameter        10034e0c f   libucrt:invalid_parameter.obj
 0001:00033e87       __invalid_parameter_noinfo 10034e87 f   libucrt:invalid_parameter.obj
 0001:00033e97       __invalid_parameter_noinfo_noreturn 10034e97 f   libucrt:invalid_parameter.obj
 0001:00033eb4       __invoke_watson            10034eb4 f   libucrt:invalid_parameter.obj
 0001:00033ee8       __set_invalid_parameter_handler 10034ee8 f   libucrt:invalid_parameter.obj
 0001:00033f18       __set_thread_local_invalid_parameter_handler 10034f18 f   libucrt:invalid_parameter.obj
 0001:00033f35       ??$?RU__crt_lowio_handle_data@@@__crt_internal_free_policy@@QBEXQBU__crt_lowio_handle_data@@@Z 10034f35 f i libucrt:osfinfo.obj
 0001:00033f47       ??0?$__crt_unique_heap_ptr@U__crt_lowio_handle_data@@U__crt_internal_free_policy@@@@QAE@QAU__crt_lowio_handle_data@@@Z 10034f47 f i libucrt:osfinfo.obj
 0001:00033f57       ??1?$__crt_unique_heap_ptr@U__crt_lowio_handle_data@@U__crt_internal_free_policy@@@@QAE@XZ 10034f57 f i libucrt:osfinfo.obj
 0001:00033f69       ??B?$__crt_unique_heap_ptr@U__crt_lowio_handle_data@@U__crt_internal_free_policy@@@@QBE_NXZ 10034f69 f i libucrt:osfinfo.obj
 0001:00033f70       ?detach@?$__crt_unique_heap_ptr@U__crt_lowio_handle_data@@U__crt_internal_free_policy@@@@QAEPAU__crt_lowio_handle_data@@XZ 10034f70 f i libucrt:osfinfo.obj
 0001:00033f76       ?get@?$__crt_unique_heap_ptr@U__crt_lowio_handle_data@@U__crt_internal_free_policy@@@@QBEPAU__crt_lowio_handle_data@@XZ 10034f76 f i libucrt:osfinfo.obj
 0001:00033f79       ?is_valid@?$__crt_unique_heap_ptr@U__crt_lowio_handle_data@@U__crt_internal_free_policy@@@@QBE_NXZ 10034f79 f i libucrt:osfinfo.obj
 0001:00033f80       ?release@?$__crt_unique_heap_ptr@U__crt_lowio_handle_data@@U__crt_internal_free_policy@@@@QAEXXZ 10034f80 f i libucrt:osfinfo.obj
 0001:00033f92       ___acrt_lowio_create_handle_array 10034f92 f   libucrt:osfinfo.obj
 0001:0003400c       ___acrt_lowio_destroy_handle_array 1003500c f   libucrt:osfinfo.obj
 0001:00034041       ___acrt_lowio_ensure_fh_exists 10035041 f   libucrt:osfinfo.obj
 0001:000340d5       ___acrt_lowio_lock_fh      100350d5 f   libucrt:osfinfo.obj
 0001:000340f8       ___acrt_lowio_set_os_handle 100350f8 f   libucrt:osfinfo.obj
 0001:0003418c       ___acrt_lowio_unlock_fh    1003518c f   libucrt:osfinfo.obj
 0001:000341af       __alloc_osfhnd             100351af f   libucrt:osfinfo.obj
 0001:000342b8       __free_osfhnd              100352b8 f   libucrt:osfinfo.obj
 0001:00034349       __get_osfhandle            10035349 f   libucrt:osfinfo.obj
 0001:000343b3       __open_osfhandle           100353b3 f   libucrt:osfinfo.obj
 0001:0003464d       ___acrt_initialize_lowio   1003564d f   libucrt:ioinit.obj
 0001:000346a3       ___acrt_uninitialize_lowio 100356a3 f   libucrt:ioinit.obj
 0001:000346d5       __free_base                100356d5 f   libucrt:free_base.obj
 0001:0003470f       __malloc_base              1003570f f   libucrt:malloc_base.obj
 0001:0003475d       ??$__crt_interlocked_read@H@@YAHPDH@Z 1003575d f i libucrt:setmode.obj
 0001:00034769       ?value@?$dual_state_global@H@__crt_state_management@@QAEAAHXZ 10035769 f i libucrt:setmode.obj
 0001:0003476c       __get_fmode                1003576c f   libucrt:setmode.obj
 0001:00034798       __set_fmode                10035798 f   libucrt:setmode.obj
 0001:000347d5       __setmode                  100357d5 f   libucrt:setmode.obj
 0001:000348dc       __setmode_nolock           100358dc f   libucrt:setmode.obj
 0001:00034a15       ___acrt_MultiByteToWideChar 10035a15 f   libucrt:multibytetowidechar.obj
 0001:00034a91       ??$?RU__acrt_ptd@@@__crt_internal_free_policy@@QBEXQBU__acrt_ptd@@@Z 10035a91 f i libucrt:per_thread_data.obj
 0001:00034d5d       ??0?$__crt_unique_heap_ptr@U__acrt_ptd@@U__crt_internal_free_policy@@@@QAE@QAU__acrt_ptd@@@Z 10035d5d f i libucrt:per_thread_data.obj
 0001:00034d6d       ??0__crt_scoped_get_last_error_reset@@QAE@XZ 10035d6d f i libucrt:per_thread_data.obj
 0001:00034d7e       ??1?$__crt_unique_heap_ptr@U__acrt_ptd@@U__crt_internal_free_policy@@@@QAE@XZ 10035d7e f i libucrt:per_thread_data.obj
 0001:00034d90       ??1__crt_scoped_get_last_error_reset@@QAE@XZ 10035d90 f i libucrt:per_thread_data.obj
 0001:00034d99       ??B?$__crt_unique_heap_ptr@U__acrt_ptd@@U__crt_internal_free_policy@@@@QBE_NXZ 10035d99 f i libucrt:per_thread_data.obj
 0001:00034ee9       ?dangerous_get_state_array@?$dual_state_global@PAU__crt_locale_data@@@__crt_state_management@@QAEPAPAU__crt_locale_data@@XZ 10035ee9 f i libucrt:per_thread_data.obj
 0001:00034fe1       ?detach@?$__crt_unique_heap_ptr@U__acrt_ptd@@U__crt_internal_free_policy@@@@QAEPAU__acrt_ptd@@XZ 10035fe1 f i libucrt:per_thread_data.obj
 0001:00034fe7       ?get@?$__crt_unique_heap_ptr@U__acrt_ptd@@U__crt_internal_free_policy@@@@QBEPAU__acrt_ptd@@XZ 10035fe7 f i libucrt:per_thread_data.obj
 0001:00034fea       ?get_current_state_index@__crt_state_management@@YAIABV__crt_scoped_get_last_error_reset@@@Z 10035fea f i libucrt:per_thread_data.obj
 0001:00035123       ?is_valid@?$__crt_unique_heap_ptr@U__acrt_ptd@@U__crt_internal_free_policy@@@@QBE_NXZ 10036123 f i libucrt:per_thread_data.obj
 0001:0003512a       ?release@?$__crt_unique_heap_ptr@U__acrt_ptd@@U__crt_internal_free_policy@@@@QAEXXZ 1003612a f i libucrt:per_thread_data.obj
 0001:0003519b       ?value@?$dual_state_global@PAU__crt_locale_data@@@__crt_state_management@@QAEAAPAU__crt_locale_data@@XZ 1003619b f i libucrt:per_thread_data.obj
 0001:0003519e       ___acrt_freeptd            1003619e f   libucrt:per_thread_data.obj
 0001:000351ca       ___acrt_getptd             100361ca f   libucrt:per_thread_data.obj
 0001:00035281       ___acrt_getptd_head        10036281 f   libucrt:per_thread_data.obj
 0001:0003531b       ___acrt_getptd_noexit      1003631b f   libucrt:per_thread_data.obj
 0001:000353c8       ___acrt_initialize_ptd     100363c8 f   libucrt:per_thread_data.obj
 0001:000353f4       ___acrt_uninitialize_ptd   100363f4 f   libucrt:per_thread_data.obj
 0001:0003540e       ___threadhandle            1003640e f   libucrt:per_thread_data.obj
 0001:00035414       ___threadid                10036414 f   libucrt:per_thread_data.obj
 0001:00035427       ??$?B$$A6GHPA_WKJ@Z@__crt_fast_encoded_nullptr_t@@QBEP6GHPA_WKJ@ZXZ 10036427 f i libucrt:winapi_thunks.obj
 0001:000354ef       ??$__crt_fast_decode_pointer@P6GHPA_WKJ@Z@@YAP6GHPA_WKJ@ZQ6GH0KJ@Z@Z 100364ef f i libucrt:winapi_thunks.obj
 0001:00035505       ??$__crt_fast_encode_pointer@P6GHPA_WKJ@Z@@YAP6GHPA_WKJ@ZQ6GH0KJ@Z@Z 10036505 f i libucrt:winapi_thunks.obj
 0001:00035bcb       _GetCurrentThreadEffectiveToken 10036bcb f i libucrt:winapi_thunks.obj
 0001:00035bcf       ___acrt_AppPolicyGetProcessTerminationMethodInternal@4 10036bcf f   libucrt:winapi_thunks.obj
 0001:00035c26       ___acrt_AppPolicyGetShowDeveloperDiagnosticInternal@4 10036c26 f   libucrt:winapi_thunks.obj
 0001:00035c7d       ___acrt_AppPolicyGetThreadInitializationTypeInternal@4 10036c7d f   libucrt:winapi_thunks.obj
 0001:00035cd4       ___acrt_AppPolicyGetWindowingModelInternal@4 10036cd4 f   libucrt:winapi_thunks.obj
 0001:00035d2b       ___acrt_AreFileApisANSI@0  10036d2b f   libucrt:winapi_thunks.obj
 0001:00035d65       ___acrt_CompareStringEx@36 10036d65 f   libucrt:winapi_thunks.obj
 0001:00035dd9       ___acrt_EnumSystemLocalesEx@16 10036dd9 f   libucrt:winapi_thunks.obj
 0001:00035e43       ___acrt_FlsAlloc@4         10036e43 f   libucrt:winapi_thunks.obj
 0001:00035e99       ___acrt_FlsFree@4          10036e99 f   libucrt:winapi_thunks.obj
 0001:00035eef       ___acrt_FlsGetValue@4      10036eef f   libucrt:winapi_thunks.obj
 0001:00035f45       ___acrt_FlsSetValue@8      10036f45 f   libucrt:winapi_thunks.obj
 0001:00035f9e       ___acrt_GetDateFormatEx@28 10036f9e f   libucrt:winapi_thunks.obj
 0001:0003600c       ___acrt_GetEnabledXStateFeatures@0 1003700c f   libucrt:winapi_thunks.obj
 0001:0003605b       ___acrt_GetLocaleInfoEx@16 1003705b f   libucrt:winapi_thunks.obj
 0001:000360b1       ___acrt_GetSystemTimePreciseAsFileTime@4 100370b1 f   libucrt:winapi_thunks.obj
 0001:00036107       ___acrt_GetTimeFormatEx@24 10037107 f   libucrt:winapi_thunks.obj
 0001:00036163       ___acrt_GetUserDefaultLocaleName@8 10037163 f   libucrt:winapi_thunks.obj
 0001:000361b6       ___acrt_GetXStateFeaturesMask@8 100371b6 f   libucrt:winapi_thunks.obj
 0001:0003620d       ___acrt_InitializeCriticalSectionEx@12 1003720d f   libucrt:winapi_thunks.obj
 0001:0003626f       ___acrt_IsValidLocaleName@4 1003726f f   libucrt:winapi_thunks.obj
 0001:000362be       ___acrt_LCIDToLocaleName@16 100372be f   libucrt:winapi_thunks.obj
 0001:00036314       ___acrt_LCMapStringEx@36   10037314 f   libucrt:winapi_thunks.obj
 0001:00036388       ___acrt_LocaleNameToLCID@8 10037388 f   libucrt:winapi_thunks.obj
 0001:000363d0       ___acrt_LocateXStateFeature@12 100373d0 f   libucrt:winapi_thunks.obj
 0001:00036416       ___acrt_MessageBoxA@16     10037416 f   libucrt:winapi_thunks.obj
 0001:0003645f       ___acrt_MessageBoxW@16     1003745f f   libucrt:winapi_thunks.obj
 0001:000364a8       ___acrt_RoInitialize@4     100374a8 f   libucrt:winapi_thunks.obj
 0001:000364fa       ___acrt_RoUninitialize@0   100374fa f   libucrt:winapi_thunks.obj
 0001:00036543       ___acrt_RtlGenRandom@8     10037543 f   libucrt:winapi_thunks.obj
 0001:0003659a       ___acrt_SetThreadStackGuarantee@4 1003759a f   libucrt:winapi_thunks.obj
 0001:000365ec       ___acrt_can_show_message_box 100375ec f   libucrt:winapi_thunks.obj
 0001:00036613       ___acrt_can_use_vista_locale_apis 10037613 f   libucrt:winapi_thunks.obj
 0001:0003661e       ___acrt_can_use_xstate_apis 1003761e f   libucrt:winapi_thunks.obj
 0001:00036629       ___acrt_eagerly_load_locale_apis 10037629 f   libucrt:winapi_thunks.obj
 0001:00036660       ___acrt_get_parent_window  10037660 f   libucrt:winapi_thunks.obj
 0001:000366df       ___acrt_initialize_winapi_thunks 100376df f   libucrt:winapi_thunks.obj
 0001:0003671b       ___acrt_is_interactive     1003771b f   libucrt:winapi_thunks.obj
 0001:000367c1       ___acrt_uninitialize_winapi_thunks 100377c1 f   libucrt:winapi_thunks.obj
 0001:000367f7       ?value@?$dual_state_global@PAU__crt_multibyte_data@@@__crt_state_management@@QAEAAPAU__crt_multibyte_data@@XZ 100377f7 f i libucrt:locale_update.obj
 0001:000367fa       ___acrt_update_locale_info 100377fa f   libucrt:locale_update.obj
 0001:00036827       ___acrt_update_multibyte_info 10037827 f   libucrt:locale_update.obj
 0001:00036993       __chsize                   10037993 f   libucrt:chsize.obj
 0001:000369af       __chsize_nolock            100379af f   libucrt:chsize.obj
 0001:00036b40       __chsize_s                 10037b40 f   libucrt:chsize.obj
 0001:00036bf0       ??$?RU__crt_locale_data@@@__crt_internal_free_policy@@QBEXQBU__crt_locale_data@@@Z 10037bf0 f i libucrt:wsetlocale.obj
 0001:00036c02       ??$?RU__crt_locale_pointers@@@__crt_internal_free_policy@@QBEXQBU__crt_locale_pointers@@@Z 10037c02 f i libucrt:wsetlocale.obj
 0001:00036c14       ??$?RU__crt_multibyte_data@@@__crt_internal_free_policy@@QBEXQBU__crt_multibyte_data@@@Z 10037c14 f i libucrt:wsetlocale.obj
 0001:00036e56       ??$__vcrt_va_start_verify_argument_type@H@@YAXXZ 10037e56 f i libucrt:wsetlocale.obj
 0001:00036f96       ??0?$__crt_unique_heap_ptr@U__crt_locale_data@@U__crt_internal_free_policy@@@@QAE@QAU__crt_locale_data@@@Z 10037f96 f i libucrt:wsetlocale.obj
 0001:00036fa6       ??0?$__crt_unique_heap_ptr@U__crt_locale_pointers@@U__crt_internal_free_policy@@@@QAE@QAU__crt_locale_pointers@@@Z 10037fa6 f i libucrt:wsetlocale.obj
 0001:00036fb6       ??0?$__crt_unique_heap_ptr@U__crt_multibyte_data@@U__crt_internal_free_policy@@@@QAE@QAU__crt_multibyte_data@@@Z 10037fb6 f i libucrt:wsetlocale.obj
 0001:00036fc6       ??1?$__crt_unique_heap_ptr@U__crt_locale_data@@U__crt_internal_free_policy@@@@QAE@XZ 10037fc6 f i libucrt:wsetlocale.obj
 0001:00036fd8       ??1?$__crt_unique_heap_ptr@U__crt_locale_pointers@@U__crt_internal_free_policy@@@@QAE@XZ 10037fd8 f i libucrt:wsetlocale.obj
 0001:00036fea       ??1?$__crt_unique_heap_ptr@U__crt_multibyte_data@@U__crt_internal_free_policy@@@@QAE@XZ 10037fea f i libucrt:wsetlocale.obj
 0001:00036ffc       ??B?$__crt_unique_heap_ptr@U__crt_locale_data@@U__crt_internal_free_policy@@@@QBE_NXZ 10037ffc f i libucrt:wsetlocale.obj
 0001:00037003       ??B?$__crt_unique_heap_ptr@U__crt_locale_pointers@@U__crt_internal_free_policy@@@@QBE_NXZ 10038003 f i libucrt:wsetlocale.obj
 0001:0003700a       ??B?$__crt_unique_heap_ptr@U__crt_multibyte_data@@U__crt_internal_free_policy@@@@QBE_NXZ 1003800a f i libucrt:wsetlocale.obj
 0001:0003722a       ?detach@?$__crt_unique_heap_ptr@U__crt_locale_data@@U__crt_internal_free_policy@@@@QAEPAU__crt_locale_data@@XZ 1003822a f i libucrt:wsetlocale.obj
 0001:00037230       ?detach@?$__crt_unique_heap_ptr@U__crt_locale_pointers@@U__crt_internal_free_policy@@@@QAEPAU__crt_locale_pointers@@XZ 10038230 f i libucrt:wsetlocale.obj
 0001:00037236       ?detach@?$__crt_unique_heap_ptr@U__crt_multibyte_data@@U__crt_internal_free_policy@@@@QAEPAU__crt_multibyte_data@@XZ 10038236 f i libucrt:wsetlocale.obj
 0001:0003723c       ?get@?$__crt_unique_heap_ptr@U__crt_locale_data@@U__crt_internal_free_policy@@@@QBEPAU__crt_locale_data@@XZ 1003823c f i libucrt:wsetlocale.obj
 0001:0003723f       ?get@?$__crt_unique_heap_ptr@U__crt_locale_pointers@@U__crt_internal_free_policy@@@@QBEPAU__crt_locale_pointers@@XZ 1003823f f i libucrt:wsetlocale.obj
 0001:00037242       ?get@?$__crt_unique_heap_ptr@U__crt_multibyte_data@@U__crt_internal_free_policy@@@@QBEPAU__crt_multibyte_data@@XZ 10038242 f i libucrt:wsetlocale.obj
 0001:00037245       ?is_valid@?$__crt_unique_heap_ptr@U__crt_locale_data@@U__crt_internal_free_policy@@@@QBE_NXZ 10038245 f i libucrt:wsetlocale.obj
 0001:0003724c       ?is_valid@?$__crt_unique_heap_ptr@U__crt_locale_pointers@@U__crt_internal_free_policy@@@@QBE_NXZ 1003824c f i libucrt:wsetlocale.obj
 0001:00037253       ?is_valid@?$__crt_unique_heap_ptr@U__crt_multibyte_data@@U__crt_internal_free_policy@@@@QBE_NXZ 10038253 f i libucrt:wsetlocale.obj
 0001:0003725a       ?release@?$__crt_unique_heap_ptr@U__crt_locale_data@@U__crt_internal_free_policy@@@@QAEXXZ 1003825a f i libucrt:wsetlocale.obj
 0001:0003726c       ?release@?$__crt_unique_heap_ptr@U__crt_locale_pointers@@U__crt_internal_free_policy@@@@QAEXXZ 1003826c f i libucrt:wsetlocale.obj
 0001:0003727e       ?release@?$__crt_unique_heap_ptr@U__crt_multibyte_data@@U__crt_internal_free_policy@@@@QAEXXZ 1003827e f i libucrt:wsetlocale.obj
 0001:00037290       ___acrt_copy_locale_name   10038290 f   libucrt:wsetlocale.obj
 0001:000372f6       ___acrt_set_locale_changed 100382f6 f   libucrt:wsetlocale.obj
 0001:00037301       ___acrt_uninitialize_locale 10038301 f   libucrt:wsetlocale.obj
 0001:0003732a       ___lc_lctowcs              1003832a f   libucrt:wsetlocale.obj
 0001:0003739a       ___lc_wcstolc              1003839a f   libucrt:wsetlocale.obj
 0001:000374e7       __configthreadlocale       100384e7 f   libucrt:wsetlocale.obj
 0001:00037578       __create_locale            10038578 f   libucrt:wsetlocale.obj
 0001:000375de       __expandlocale             100385de f   libucrt:wsetlocale.obj
 0001:000379bb       __free_locale              100389bb f   libucrt:wsetlocale.obj
 0001:00037a73       __get_current_locale       10038a73 f   libucrt:wsetlocale.obj
 0001:00037b10       __wcreate_locale           10038b10 f   libucrt:wsetlocale.obj
 0001:00037c19       __wcscats                  10038c19 f   libucrt:wsetlocale.obj
 0001:00037c5a       __wsetlocale               10038c5a f   libucrt:wsetlocale.obj
 0001:00038554       ___p___mb_cur_max          10039554 f   libucrt:nlsdata.obj
 0001:0003857b       __umask                    1003957b f   libucrt:umask.obj
 0001:000385a0       __umask_s                  100395a0 f   libucrt:umask.obj
 0001:00038640       ___acrt_WideCharToMultiByte 10039640 f   libucrt:widechartomultibyte.obj
 0001:000386ed       ?__wcsrtombs_utf8@__crt_mbstring@@YAIPADPAPB_WIPAU_Mbstatet@@@Z 100396ed f   libucrt:wcrtomb.obj
 0001:00038aa9       _wcrtomb                   10039aa9 f   libucrt:wcrtomb.obj
 0001:00038ada       _wcrtomb_s                 10039ada f   libucrt:wcrtomb.obj
 0001:00038b53       _wcsrtombs                 10039b53 f   libucrt:wcrtomb.obj
 0001:00038b5e       _wcsrtombs_s               10039b5e f   libucrt:wcrtomb.obj
 0001:00038bf7       _wctob                     10039bf7 f   libucrt:wcrtomb.obj
 0001:00038c6b       ___isascii                 10039c6b f i libucrt:_ctype.obj
 0001:00038c7d       ___iscsym                  10039c7d f i libucrt:_ctype.obj
 0001:00038c9f       ___iscsymf                 10039c9f f i libucrt:_ctype.obj
 0001:00038cbe       ___toascii                 10039cbe f i libucrt:_ctype.obj
 0001:00038ccb       __isalnum_l                10039ccb f i libucrt:_ctype.obj
 0001:00038d06       __isalpha_l                10039d06 f i libucrt:_ctype.obj
 0001:00038d41       __isblank_l                10039d41 f i libucrt:_ctype.obj
 0001:00038d84       __iscntrl_l                10039d84 f i libucrt:_ctype.obj
 0001:00038dbc       __iscsym_l                 10039dbc f i libucrt:_ctype.obj
 0001:00038ddf       __iscsymf_l                10039ddf f i libucrt:_ctype.obj
 0001:00038e02       __isdigit_l                10039e02 f i libucrt:_ctype.obj
 0001:00038e3a       __isgraph_l                10039e3a f i libucrt:_ctype.obj
 0001:00038e75       __islower_l                10039e75 f i libucrt:_ctype.obj
 0001:00038ead       __isprint_l                10039ead f i libucrt:_ctype.obj
 0001:00038ee8       __ispunct_l                10039ee8 f i libucrt:_ctype.obj
 0001:00038f20       __isspace_l                10039f20 f i libucrt:_ctype.obj
 0001:00038f58       __isupper_l                10039f58 f i libucrt:_ctype.obj
 0001:00038f90       __isxdigit_l               10039f90 f i libucrt:_ctype.obj
 0001:00038fcb       _isalnum                   10039fcb f i libucrt:_ctype.obj
 0001:00038ffb       _isalpha                   10039ffb f i libucrt:_ctype.obj
 0001:0003902b       _isblank                   1003a02b f i libucrt:_ctype.obj
 0001:00039065       _iscntrl                   1003a065 f i libucrt:_ctype.obj
 0001:00039093       _isdigit                   1003a093 f i libucrt:_ctype.obj
 0001:000390c1       _isgraph                   1003a0c1 f i libucrt:_ctype.obj
 0001:000390f1       _islower                   1003a0f1 f i libucrt:_ctype.obj
 0001:0003911f       _isprint                   1003a11f f i libucrt:_ctype.obj
 0001:0003914f       _ispunct                   1003a14f f i libucrt:_ctype.obj
 0001:0003917d       _isspace                   1003a17d f i libucrt:_ctype.obj
 0001:000391ab       _isupper                   1003a1ab f i libucrt:_ctype.obj
 0001:000391d9       _isxdigit                  1003a1d9 f i libucrt:_ctype.obj
 0001:00039507       __tolower                  1003a507 f   libucrt:tolower_toupper.obj
 0001:00039514       __tolower_l                1003a514 f   libucrt:tolower_toupper.obj
 0001:0003952e       __toupper                  1003a52e f   libucrt:tolower_toupper.obj
 0001:0003953b       __toupper_l                1003a53b f   libucrt:tolower_toupper.obj
 0001:00039555       _tolower                   1003a555 f   libucrt:tolower_toupper.obj
 0001:00039585       _toupper                   1003a585 f   libucrt:tolower_toupper.obj
 0001:000395b5       ??$make_c_string_character_source@DPAPAD@__crt_strtox@@YA?AV?$c_string_character_source@D@0@QBDQAPAD@Z 1003a5b5 f i libucrt:strtox.obj
 0001:000395d0       ??$make_c_string_character_source@_WPAPA_W@__crt_strtox@@YA?AV?$c_string_character_source@_W@0@QB_WQAPA_W@Z 1003a5d0 f i libucrt:strtox.obj
 0001:000395eb       ??$parse_integer_from_string@JDPAPAD@__crt_strtox@@YAJQBDQAPADHQAU__crt_locale_pointers@@@Z 1003a5eb f i libucrt:strtox.obj
 0001:00039618       ??$parse_integer_from_string@J_WPAPA_W@__crt_strtox@@YAJQB_WQAPA_WHQAU__crt_locale_pointers@@@Z 1003a618 f i libucrt:strtox.obj
 0001:00039645       ??$parse_integer_from_string@KDPAPAD@__crt_strtox@@YAKQBDQAPADHQAU__crt_locale_pointers@@@Z 1003a645 f i libucrt:strtox.obj
 0001:00039672       ??$parse_integer_from_string@K_WPAPA_W@__crt_strtox@@YAKQB_WQAPA_WHQAU__crt_locale_pointers@@@Z 1003a672 f i libucrt:strtox.obj
 0001:0003969f       ??$parse_integer_from_string@_JDPAPAD@__crt_strtox@@YA_JQBDQAPADHQAU__crt_locale_pointers@@@Z 1003a69f f i libucrt:strtox.obj
 0001:000396cc       ??$parse_integer_from_string@_J_WPAPA_W@__crt_strtox@@YA_JQB_WQAPA_WHQAU__crt_locale_pointers@@@Z 1003a6cc f i libucrt:strtox.obj
 0001:000396f9       ??$parse_integer_from_string@_KDPAPAD@__crt_strtox@@YA_KQBDQAPADHQAU__crt_locale_pointers@@@Z 1003a6f9 f i libucrt:strtox.obj
 0001:00039726       ??$parse_integer_from_string@_K_WPAPA_W@__crt_strtox@@YA_KQB_WQAPA_WHQAU__crt_locale_pointers@@@Z 1003a726 f i libucrt:strtox.obj
 0001:00039753       __strtoi64                 1003a753 f   libucrt:strtox.obj
 0001:0003977f       __strtoi64_l               1003a77f f   libucrt:strtox.obj
 0001:000397ac       __strtoimax_l              1003a7ac f   libucrt:strtox.obj
 0001:000397d9       __strtol_l                 1003a7d9 f   libucrt:strtox.obj
 0001:00039806       __strtoll_l                1003a806 f   libucrt:strtox.obj
 0001:00039833       __strtoui64                1003a833 f   libucrt:strtox.obj
 0001:0003985f       __strtoui64_l              1003a85f f   libucrt:strtox.obj
 0001:0003988c       __strtoul_l                1003a88c f   libucrt:strtox.obj
 0001:000398b9       __strtoull_l               1003a8b9 f   libucrt:strtox.obj
 0001:000398e6       __strtoumax_l              1003a8e6 f   libucrt:strtox.obj
 0001:00039913       __wcstoi64                 1003a913 f   libucrt:strtox.obj
 0001:0003993f       __wcstoi64_l               1003a93f f   libucrt:strtox.obj
 0001:0003996c       __wcstoimax_l              1003a96c f   libucrt:strtox.obj
 0001:00039999       __wcstol_l                 1003a999 f   libucrt:strtox.obj
 0001:000399c6       __wcstoll_l                1003a9c6 f   libucrt:strtox.obj
 0001:000399f3       __wcstoui64                1003a9f3 f   libucrt:strtox.obj
 0001:00039a1f       __wcstoui64_l              1003aa1f f   libucrt:strtox.obj
 0001:00039a4c       __wcstoul_l                1003aa4c f   libucrt:strtox.obj
 0001:00039a79       __wcstoull_l               1003aa79 f   libucrt:strtox.obj
 0001:00039aa6       __wcstoumax_l              1003aaa6 f   libucrt:strtox.obj
 0001:00039ad3       _strtoimax                 1003aad3 f   libucrt:strtox.obj
 0001:00039aff       _strtol                    1003aaff f   libucrt:strtox.obj
 0001:00039b2b       _strtoll                   1003ab2b f   libucrt:strtox.obj
 0001:00039b57       _strtoul                   1003ab57 f   libucrt:strtox.obj
 0001:00039b83       _strtoull                  1003ab83 f   libucrt:strtox.obj
 0001:00039baf       _strtoumax                 1003abaf f   libucrt:strtox.obj
 0001:00039bdb       _wcstoimax                 1003abdb f   libucrt:strtox.obj
 0001:00039c07       _wcstol                    1003ac07 f   libucrt:strtox.obj
 0001:00039c33       _wcstoll                   1003ac33 f   libucrt:strtox.obj
 0001:00039c5f       _wcstoul                   1003ac5f f   libucrt:strtox.obj
 0001:00039c8b       _wcstoull                  1003ac8b f   libucrt:strtox.obj
 0001:00039cb7       _wcstoumax                 1003acb7 f   libucrt:strtox.obj
 0001:00039ce3       __mbtowc_l                 1003ace3 f   libucrt:mbtowc.obj
 0001:00039e27       _mbtowc                    1003ae27 f   libucrt:mbtowc.obj
 0001:00039e41       __wctomb_l                 1003ae41 f   libucrt:wctomb.obj
 0001:00039e94       __wctomb_s_l               1003ae94 f   libucrt:wctomb.obj
 0001:00039fb7       _wctomb                    1003afb7 f   libucrt:wctomb.obj
 0001:00039feb       _wctomb_s                  1003afeb f   libucrt:wctomb.obj
 0001:0003a807       ??1?$__crt_simd_cleanup_guard@$00@@QAE@XZ 1003b807 f i libucrt:strnlen.obj
 0001:0003a80b       ??1?$__crt_simd_cleanup_guard@$0A@@@QAE@XZ 1003b80b f i libucrt:strnlen.obj
 0001:0003a80c       ?compare_equals@?$__crt_simd_traits@$00E@@SA?AT__m256i@@T2@0@Z 1003b80c f i libucrt:strnlen.obj
 0001:0003a811       ?compare_equals@?$__crt_simd_traits@$00G@@SA?AT__m256i@@T2@0@Z 1003b811 f i libucrt:strnlen.obj
 0001:0003a816       ?compare_equals@?$__crt_simd_traits@$0A@E@@SA?AT__m128i@@T2@0@Z 1003b816 f i libucrt:strnlen.obj
 0001:0003a81b       ?compare_equals@?$__crt_simd_traits@$0A@G@@SA?AT__m128i@@T2@0@Z 1003b81b f i libucrt:strnlen.obj
 0001:0003a820       ?compute_byte_mask@?$__crt_simd_pack_traits@$00@@SAHT__m256i@@@Z 1003b820 f i libucrt:strnlen.obj
 0001:0003a825       ?compute_byte_mask@?$__crt_simd_pack_traits@$0A@@@SAHT__m128i@@@Z 1003b825 f i libucrt:strnlen.obj
 0001:0003a82a       ?get_zero_pack@?$__crt_simd_pack_traits@$00@@SA?AT__m256i@@XZ 1003b82a f i libucrt:strnlen.obj
 0001:0003a82f       ?get_zero_pack@?$__crt_simd_pack_traits@$0A@@@SA?AT__m128i@@XZ 1003b82f f i libucrt:strnlen.obj
 0001:0003a833       _strnlen                   1003b833 f   libucrt:strnlen.obj
 0001:0003a955       _wcslen                    1003b955 f   libucrt:strnlen.obj
 0001:0003aa7d       _wcsnlen                   1003ba7d f   libucrt:strnlen.obj
 0001:0003ac2d       ?__acrt_fp_classify@@YA?AW4__acrt_fp_class@@ABN@Z 1003bc2d f i libucrt:cvt.obj
 0001:0003ac8f       ?__acrt_fp_is_negative@@YA_NABN@Z 1003bc8f f i libucrt:cvt.obj
 0001:0003b4fc       ?strrchr@@YAPADQADH@Z      1003c4fc f i libucrt:cvt.obj
 0001:0003b507       ___acrt_fp_format          1003c507 f   libucrt:cvt.obj
 0001:0003b674       __fputwc_nolock            1003c674 f   libucrt:fputwc.obj
 0001:0003b79e       __fputwchar                1003c79e f   libucrt:fputwc.obj
 0001:0003b7b8       __putwc_nolock             1003c7b8 f   libucrt:fputwc.obj
 0001:0003b7c3       _fputwc                    1003c7c3 f   libucrt:fputwc.obj
 0001:0003b837       _putwc                     1003c837 f   libucrt:fputwc.obj
 0001:0003b842       _putwchar                  1003c842 f   libucrt:fputwc.obj
 0001:0003b84d       __fileno                   1003c84d f   libucrt:fileno.obj
 0001:0003b873       ??$?RPAU__crt_stdio_stream_data@@@__crt_internal_free_policy@@QBEXQBQAU__crt_stdio_stream_data@@@Z 1003c873 f i libucrt:_file.obj
 0001:0003b885       ??0?$__crt_unique_heap_ptr@PAU__crt_stdio_stream_data@@U__crt_internal_free_policy@@@@QAE@QAPAU__crt_stdio_stream_data@@@Z 1003c885 f i libucrt:_file.obj
 0001:0003b895       ??1?$__crt_unique_heap_ptr@PAU__crt_stdio_stream_data@@U__crt_internal_free_policy@@@@QAE@XZ 1003c895 f i libucrt:_file.obj
 0001:0003b8a7       ?detach@?$__crt_unique_heap_ptr@PAU__crt_stdio_stream_data@@U__crt_internal_free_policy@@@@QAEPAPAU__crt_stdio_stream_data@@XZ 1003c8a7 f i libucrt:_file.obj
 0001:0003b8ad       ?release@?$__crt_unique_heap_ptr@PAU__crt_stdio_stream_data@@U__crt_internal_free_policy@@@@QAEXXZ 1003c8ad f i libucrt:_file.obj
 0001:0003b8bf       ___acrt_initialize_stdio   1003c8bf f   libucrt:_file.obj
 0001:0003b987       ___acrt_iob_func           1003c987 f   libucrt:_file.obj
 0001:0003b997       ___acrt_uninitialize_stdio 1003c997 f   libucrt:_file.obj
 0001:0003b9e3       __get_stream_buffer_pointers 1003c9e3 f   libucrt:_file.obj
 0001:0003ba29       __lock_file                1003ca29 f   libucrt:_file.obj
 0001:0003ba3d       __unlock_file              1003ca3d f   libucrt:_file.obj
 0001:0003ba51       __fputc_nolock             1003ca51 f   libucrt:fputc.obj
 0001:0003ba7a       __fputchar                 1003ca7a f   libucrt:fputc.obj
 0001:0003ba94       __putc_nolock              1003ca94 f   libucrt:fputc.obj
 0001:0003ba9f       _fputc                     1003ca9f f   libucrt:fputc.obj
 0001:0003bb9e       _putc                      1003cb9e f   libucrt:fputc.obj
 0001:0003bba9       _putchar                   1003cba9 f   libucrt:fputc.obj
 0001:0003bbb4       __get_printf_count_output  1003cbb4 f   libucrt:printf_count_output.obj
 0001:0003bbc9       __set_printf_count_output  1003cbc9 f   libucrt:printf_count_output.obj
 0001:0003bbf3       ?has_temporary_buffer@__crt_stdio_stream@@QBE_NXZ 1003cbf3 f i libucrt:_sftbuf.obj
 0001:0003bbfe       ___acrt_stdio_begin_temporary_buffering_nolock 1003cbfe f   libucrt:_sftbuf.obj
 0001:0003bcb3       ___acrt_stdio_end_temporary_buffering_nolock 1003ccb3 f   libucrt:_sftbuf.obj
 0001:0003bcec       __isatty                   1003ccec f   libucrt:isatty.obj
 0001:0003bd42       __calloc_base              1003cd42 f   libucrt:calloc_base.obj
 0001:0003bd9f       ___sys_errlist             1003cd9f f   libucrt:syserr.obj
 0001:0003bda5       ___sys_nerr                1003cda5 f   libucrt:syserr.obj
 0001:0003bf50       __mbstowcs_l               1003cf50 f   libucrt:mbstowcs.obj
 0001:0003bf5b       __mbstowcs_s_l             1003cf5b f   libucrt:mbstowcs.obj
 0001:0003c03d       _mbstowcs                  1003d03d f   libucrt:mbstowcs.obj
 0001:0003c067       _mbstowcs_s                1003d067 f   libucrt:mbstowcs.obj
 0001:0003c137       _strncpy_s                 1003d137 f   libucrt:strncpy_s.obj
 0001:0003c142       ___pctype_func             1003d142 f   libucrt:ctype.obj
 0001:0003c168       ___pwctype_func            1003d168 f   libucrt:ctype.obj
 0001:0003c247       __putwch                   1003d247 f   libucrt:putwch.obj
 0001:0003c276       __putwch_nolock            1003d276 f   libucrt:putwch.obj
 0001:0003c2aa       ??$?RU__crt_stdio_stream_data@@@__crt_internal_free_policy@@QBEXQBU__crt_stdio_stream_data@@@Z 1003d2aa f i libucrt:stream.obj
 0001:0003c2bc       ??0?$__crt_unique_heap_ptr@U__crt_stdio_stream_data@@U__crt_internal_free_policy@@@@QAE@QAU__crt_stdio_stream_data@@@Z 1003d2bc f i libucrt:stream.obj
 0001:0003c2cc       ??0__crt_stdio_stream@@QAE@QAU__crt_stdio_stream_data@@@Z 1003d2cc f i libucrt:stream.obj
 0001:0003c2dc       ??0__crt_stdio_stream@@QAE@XZ 1003d2dc f i libucrt:stream.obj
 0001:0003c2e2       ??1?$__crt_unique_heap_ptr@U__crt_stdio_stream_data@@U__crt_internal_free_policy@@@@QAE@XZ 1003d2e2 f i libucrt:stream.obj
 0001:0003c2f4       ?__acrt_stdio_allocate_stream@@YA?AV__crt_stdio_stream@@XZ 1003d2f4 f   libucrt:stream.obj
 0001:0003c353       ?__acrt_stdio_free_stream@@YAXV__crt_stdio_stream@@@Z 1003d353 f   libucrt:stream.obj
 0001:0003c38e       ?deallocate@__crt_stdio_stream@@QAEXXZ 1003d38e f i libucrt:stream.obj
 0001:0003c398       ?detach@?$__crt_unique_heap_ptr@U__crt_stdio_stream_data@@U__crt_internal_free_policy@@@@QAEPAU__crt_stdio_stream_data@@XZ 1003d398 f i libucrt:stream.obj
 0001:0003c461       ?lock@__crt_stdio_stream@@QBEXXZ 1003d461 f i libucrt:stream.obj
 0001:0003c46a       ?release@?$__crt_unique_heap_ptr@U__crt_stdio_stream_data@@U__crt_internal_free_policy@@@@QAEXXZ 1003d46a f i libucrt:stream.obj
 0001:0003c47c       ?try_allocate@__crt_stdio_stream@@QAE_NXZ 1003d47c f i libucrt:stream.obj
 0001:0003c49c       ??$__acrt_stdio_parse_mode@D@@YA?AU__acrt_stdio_stream_mode@@QBD@Z 1003d49c f i libucrt:openfile.obj
 0001:0003c6cb       ??$__acrt_stdio_parse_mode@_W@@YA?AU__acrt_stdio_stream_mode@@QB_W@Z 1003d6cb f i libucrt:openfile.obj
 0001:0003ca43       ??$tcsncmp@AAPBDAAY02$$CBDI@?$__crt_char_traits@D@@SAHAAPBDAAY02$$CBD$$QAI@Z 1003da43 f i libucrt:openfile.obj
 0001:0003ca5f       ??$tcsncmp@AAPB_WAAY02$$CB_WI@?$__crt_char_traits@_W@@SAHAAPB_WAAY02$$CB_W$$QAI@Z 1003da5f f i libucrt:openfile.obj
 0001:0003ca7b       ??$tcsnicmp@AAPBDAAY04$$CBDI@?$__crt_char_traits@D@@SAHAAPBDAAY04$$CBD$$QAI@Z 1003da7b f i libucrt:openfile.obj
 0001:0003ca97       ??$tcsnicmp@AAPBDAAY06$$CBDI@?$__crt_char_traits@D@@SAHAAPBDAAY06$$CBD$$QAI@Z 1003da97 f i libucrt:openfile.obj
 0001:0003cab3       ??$tcsnicmp@AAPBDAAY07$$CBDI@?$__crt_char_traits@D@@SAHAAPBDAAY07$$CBD$$QAI@Z 1003dab3 f i libucrt:openfile.obj
 0001:0003cacf       ??$tcsnicmp@AAPB_WAAY04$$CB_WI@?$__crt_char_traits@_W@@SAHAAPB_WAAY04$$CB_W$$QAI@Z 1003dacf f i libucrt:openfile.obj
 0001:0003caeb       ??$tcsnicmp@AAPB_WAAY06$$CB_WI@?$__crt_char_traits@_W@@SAHAAPB_WAAY06$$CB_W$$QAI@Z 1003daeb f i libucrt:openfile.obj
 0001:0003cb07       ??$tcsnicmp@AAPB_WAAY07$$CB_WI@?$__crt_char_traits@_W@@SAHAAPB_WAAY07$$CB_W$$QAI@Z 1003db07 f i libucrt:openfile.obj
 0001:0003cb23       ??$tsopen_s@PAHABQBDABHABHH@?$__crt_char_traits@D@@SAH$$QAPAHABQBDABH2$$QAH@Z 1003db23 f i libucrt:openfile.obj
 0001:0003cb4b       ??$tsopen_s@PAHABQB_WABHABHH@?$__crt_char_traits@_W@@SAH$$QAPAHABQB_WABH2$$QAH@Z 1003db4b f i libucrt:openfile.obj
 0001:0003cb73       ?__acrt_stdio_parse_mode_D@@YA_NAAU__acrt_stdio_stream_mode@@@Z 1003db73 f i libucrt:openfile.obj
 0001:0003cb8e       ?__acrt_stdio_parse_mode_N@@YA_NAAU__acrt_stdio_stream_mode@@@Z 1003db8e f i libucrt:openfile.obj
 0001:0003cba0       ?__acrt_stdio_parse_mode_R@@YA_NAAU__acrt_stdio_stream_mode@@AA_N@Z 1003dba0 f i libucrt:openfile.obj
 0001:0003cbbe       ?__acrt_stdio_parse_mode_S@@YA_NAAU__acrt_stdio_stream_mode@@AA_N@Z 1003dbbe f i libucrt:openfile.obj
 0001:0003cbdc       ?__acrt_stdio_parse_mode_T@@YA_NAAU__acrt_stdio_stream_mode@@@Z 1003dbdc f i libucrt:openfile.obj
 0001:0003cbfb       ?__acrt_stdio_parse_mode_b@@YA_NAAU__acrt_stdio_stream_mode@@@Z 1003dbfb f i libucrt:openfile.obj
 0001:0003cc1b       ?__acrt_stdio_parse_mode_c@@YA_NAAU__acrt_stdio_stream_mode@@AA_N@Z 1003dc1b f i libucrt:openfile.obj
 0001:0003cc3d       ?__acrt_stdio_parse_mode_n@@YA_NAAU__acrt_stdio_stream_mode@@AA_N@Z 1003dc3d f i libucrt:openfile.obj
 0001:0003cc5f       ?__acrt_stdio_parse_mode_plus@@YA_NAAU__acrt_stdio_stream_mode@@AA_N@Z 1003dc5f f i libucrt:openfile.obj
 0001:0003cc94       ?__acrt_stdio_parse_mode_t@@YA_NAAU__acrt_stdio_stream_mode@@@Z 1003dc94 f i libucrt:openfile.obj
 0001:0003ccb4       ?__acrt_stdio_parse_mode_x@@YA_NAAU__acrt_stdio_stream_mode@@@Z 1003dcb4 f i libucrt:openfile.obj
 0001:0003ccd4       __openfile                 1003dcd4 f   libucrt:openfile.obj
 0001:0003ccdf       __wopenfile                1003dcdf f   libucrt:openfile.obj
 0001:0003ccea       ___acrt_stdio_free_buffer_nolock 1003dcea f   libucrt:_freebuf.obj
 0001:0003d1b6       ___acrt_stdio_flush_nolock 1003e1b6 f   libucrt:fflush.obj
 0001:0003d219       __fflush_nolock            1003e219 f   libucrt:fflush.obj
 0001:0003d260       __flushall                 1003e260 f   libucrt:fflush.obj
 0001:0003d269       _fflush                    1003e269 f   libucrt:fflush.obj
 0001:0003d67b       ___acrt_stdio_flush_and_write_narrow_nolock 1003e67b f   libucrt:_flsbuf.obj
 0001:0003d686       ___acrt_stdio_flush_and_write_wide_nolock 1003e686 f   libucrt:_flsbuf.obj
 0001:0003da9c       ___acrt_stdio_refill_and_read_narrow_nolock 1003ea9c f   libucrt:_filbuf.obj
 0001:0003daa7       ___acrt_stdio_refill_and_read_wide_nolock 1003eaa7 f   libucrt:_filbuf.obj
 0001:0003dab2       ___acrt_initialize_locks   1003eab2 f   libucrt:locks.obj
 0001:0003daf3       ___acrt_lock               1003eaf3 f   libucrt:locks.obj
 0001:0003db0a       ___acrt_uninitialize_locks 1003eb0a f   libucrt:locks.obj
 0001:0003db3b       ___acrt_unlock             1003eb3b f   libucrt:locks.obj
 0001:0003db52       __lock_locales             1003eb52 f   libucrt:locks.obj
 0001:0003db60       __unlock_locales           1003eb60 f   libucrt:locks.obj
 0001:0003dd15       ___acrt_get_begin_thread_init_policy 1003ed15 f   libucrt:win_policies.obj
 0001:0003dd5a       ___acrt_get_developer_information_policy 1003ed5a f   libucrt:win_policies.obj
 0001:0003dd9f       ___acrt_get_process_end_policy 1003ed9f f   libucrt:win_policies.obj
 0001:0003ddd2       ___acrt_get_windowing_model_policy 1003edd2 f   libucrt:win_policies.obj
 0001:0003e6f2       ??$find_first_file_ex@ABQADW4_FINDEX_INFO_LEVELS@@PAU_WIN32_FIND_DATAA@@W4_FINDEX_SEARCH_OPS@@$$TH@?$__crt_char_traits@D@@SAPAXABQAD$$QAW4_FINDEX_INFO_LEVELS@@$$QAPAU_WIN32_FIND_DATAA@@$$QAW4_FINDEX_SEARCH_OPS@@$$QA$$T$$QAH@Z 1003f6f2 f i libucrt:argv_wildcards.obj
 0001:0003e71f       ??$find_first_file_ex@ABQA_WW4_FINDEX_INFO_LEVELS@@PAU_WIN32_FIND_DATAW@@W4_FINDEX_SEARCH_OPS@@$$TH@?$__crt_char_traits@_W@@SAPAXABQA_W$$QAW4_FINDEX_INFO_LEVELS@@$$QAPAU_WIN32_FIND_DATAW@@$$QAW4_FINDEX_SEARCH_OPS@@$$QA$$T$$QAH@Z 1003f71f f i libucrt:argv_wildcards.obj
 0001:0003e74a       ??$find_next_file@PAXPAU_WIN32_FIND_DATAA@@@?$__crt_char_traits@D@@SAH$$QAPAX$$QAPAU_WIN32_FIND_DATAA@@@Z 1003f74a f i libucrt:argv_wildcards.obj
 0001:0003e762       ??$find_next_file@PAXPAU_WIN32_FIND_DATAW@@@?$__crt_char_traits@_W@@SAH$$QAPAX$$QAPAU_WIN32_FIND_DATAW@@@Z 1003f762 f i libucrt:argv_wildcards.obj
 0001:0003e779       ??$tcslen@ABQBD@?$__crt_char_traits@D@@SAIABQBD@Z 1003f779 f i libucrt:argv_wildcards.obj
 0001:0003e791       ??$tcslen@ABQB_W@?$__crt_char_traits@_W@@SAIABQB_W@Z 1003f791 f i libucrt:argv_wildcards.obj
 0001:0003e7af       ??$tcsncpy_s@AAPADIAAPADABI@?$__crt_char_traits@D@@SAHAAPAD$$QAI0ABI@Z 1003f7af f i libucrt:argv_wildcards.obj
 0001:0003e7d2       ??$tcsncpy_s@AAPA_WIAAPA_WABI@?$__crt_char_traits@_W@@SAHAAPA_W$$QAI0ABI@Z 1003f7d2 f i libucrt:argv_wildcards.obj
 0001:0003e7f5       ??$tcsncpy_s@PADABIABQBDABI@?$__crt_char_traits@D@@SAH$$QAPADABIABQBD1@Z 1003f7f5 f i libucrt:argv_wildcards.obj
 0001:0003e818       ??$tcsncpy_s@PADIABQBDABI@?$__crt_char_traits@D@@SAH$$QAPAD$$QAIABQBDABI@Z 1003f818 f i libucrt:argv_wildcards.obj
 0001:0003e83b       ??$tcsncpy_s@PA_WABIABQB_WABI@?$__crt_char_traits@_W@@SAH$$QAPA_WABIABQB_W1@Z 1003f83b f i libucrt:argv_wildcards.obj
 0001:0003e85e       ??$tcsncpy_s@PA_WIABQB_WABI@?$__crt_char_traits@_W@@SAH$$QAPA_W$$QAIABQB_WABI@Z 1003f85e f i libucrt:argv_wildcards.obj
 0001:0003e881       ??$tcspbrk@AAPADAAY02$$CBD@?$__crt_char_traits@D@@SAPADAAPADAAY02$$CBD@Z 1003f881 f i libucrt:argv_wildcards.obj
 0001:0003e897       ??$tcspbrk@AAPA_WAAY02$$CB_W@?$__crt_char_traits@_W@@SAPA_WAAPA_WAAY02$$CB_W@Z 1003f897 f i libucrt:argv_wildcards.obj
 0001:0003e8ad       ??0?$__crt_unique_handle_t@U__crt_findfile_traits@@@@QAE@QAX@Z 1003f8ad f i libucrt:argv_wildcards.obj
 0001:0003e8d7       ??1?$__crt_unique_handle_t@U__crt_findfile_traits@@@@QAE@XZ 1003f8d7 f i libucrt:argv_wildcards.obj
 0001:0003ea32       ?close@?$__crt_unique_handle_t@U__crt_findfile_traits@@@@QAEXXZ 1003fa32 f i libucrt:argv_wildcards.obj
 0001:0003ea49       ?close@__crt_findfile_traits@@SA_NPAX@Z 1003fa49 f i libucrt:argv_wildcards.obj
 0001:0003eb74       ?get@?$__crt_unique_handle_t@U__crt_findfile_traits@@@@QBEPAXXZ 1003fb74 f i libucrt:argv_wildcards.obj
 0001:0003eb77       ?get_invalid_value@__crt_findfile_traits@@SAPAXXZ 1003fb77 f i libucrt:argv_wildcards.obj
 0001:0003eba5       ?strpbrk@@YAPADQADQBD@Z    1003fba5 f i libucrt:argv_wildcards.obj
 0001:0003ebb0       ?wcspbrk@@YAPA_WPA_WPB_W@Z 1003fbb0 f i libucrt:argv_wildcards.obj
 0001:0003ebbb       ___acrt_expand_narrow_argv_wildcards 1003fbbb f   libucrt:argv_wildcards.obj
 0001:0003ebc6       ___acrt_expand_wide_argv_wildcards 1003fbc6 f   libucrt:argv_wildcards.obj
 0001:0003ebd1       ___acrt_GetModuleFileNameA 1003fbd1 f   libucrt:getmodulefilenamea.obj
 0001:0003eca2       ??$initialize_from_array@$$BY10BAA@E@?$dual_state_global@PAE@__crt_state_management@@QAAXAAY10BAA@E@Z 1003fca2 f i libucrt:mbctype.obj
 0001:0003ecb1       ??$initialize_from_array@$$BY10BAB@E@?$dual_state_global@PAE@__crt_state_management@@QAAXAAY10BAB@E@Z 1003fcb1 f i libucrt:mbctype.obj
 0001:0003edcd       ?dangerous_get_state_array@?$dual_state_global@PAE@__crt_state_management@@QAEPAPAEXZ 1003fdcd f i libucrt:mbctype.obj
 0001:0003edd0       ?dangerous_get_state_array@?$dual_state_global@PAU__crt_multibyte_data@@@__crt_state_management@@QAEPAPAU__crt_multibyte_data@@XZ 1003fdd0 f i libucrt:mbctype.obj
 0001:0003ee46       ?initialize@?$dual_state_global@PAU__crt_multibyte_data@@@__crt_state_management@@QAEXQAU__crt_multibyte_data@@@Z 1003fe46 f i libucrt:mbctype.obj
 0001:0003f23a       ?value@?$dual_state_global@PAE@__crt_state_management@@QAEAAPAEXZ 1004023a f i libucrt:mbctype.obj
 0001:0003f23d       ___acrt_initialize_multibyte 1004023d f   libucrt:mbctype.obj
 0001:0003f285       ___acrt_update_thread_multibyte_data 10040285 f   libucrt:mbctype.obj
 0001:0003f298       ___p__mbcasemap            10040298 f   libucrt:mbctype.obj
 0001:0003f29e       ___p__mbctype              1004029e f   libucrt:mbctype.obj
 0001:0003f2a4       __getmbcp                  100402a4 f   libucrt:mbctype.obj
 0001:0003f2da       __setmbcp                  100402da f   libucrt:mbctype.obj
 0001:0003f2f9       __setmbcp_nolock           100402f9 f   libucrt:mbctype.obj
 0001:0003f5ce       __ismbbalnum               100405ce f   libucrt:ismbbyte.obj
 0001:0003f5e9       __ismbbalnum_l             100405e9 f   libucrt:ismbbyte.obj
 0001:0003f605       __ismbbalpha               10040605 f   libucrt:ismbbyte.obj
 0001:0003f620       __ismbbalpha_l             10040620 f   libucrt:ismbbyte.obj
 0001:0003f63c       __ismbbblank               1004063c f   libucrt:ismbbyte.obj
 0001:0003f65f       __ismbbblank_l             1004065f f   libucrt:ismbbyte.obj
 0001:0003f683       __ismbbgraph               10040683 f   libucrt:ismbbyte.obj
 0001:0003f69e       __ismbbgraph_l             1004069e f   libucrt:ismbbyte.obj
 0001:0003f6ba       __ismbbkalnum              100406ba f   libucrt:ismbbyte.obj
 0001:0003f6d2       __ismbbkalnum_l            100406d2 f   libucrt:ismbbyte.obj
 0001:0003f6eb       __ismbbkana                100406eb f   libucrt:ismbbyte.obj
 0001:0003f6fe       __ismbbkana_l              100406fe f   libucrt:ismbbyte.obj
 0001:0003f74f       __ismbbkprint              1004074f f   libucrt:ismbbyte.obj
 0001:0003f767       __ismbbkprint_l            10040767 f   libucrt:ismbbyte.obj
 0001:0003f780       __ismbbkpunct              10040780 f   libucrt:ismbbyte.obj
 0001:0003f798       __ismbbkpunct_l            10040798 f   libucrt:ismbbyte.obj
 0001:0003f7b1       __ismbblead                100407b1 f   libucrt:ismbbyte.obj
 0001:0003f7c9       __ismbblead_l              100407c9 f   libucrt:ismbbyte.obj
 0001:0003f7e2       __ismbbprint               100407e2 f   libucrt:ismbbyte.obj
 0001:0003f7fd       __ismbbprint_l             100407fd f   libucrt:ismbbyte.obj
 0001:0003f819       __ismbbpunct               10040819 f   libucrt:ismbbyte.obj
 0001:0003f831       __ismbbpunct_l             10040831 f   libucrt:ismbbyte.obj
 0001:0003f84a       __ismbbtrail               1004084a f   libucrt:ismbbyte.obj
 0001:0003f862       __ismbbtrail_l             10040862 f   libucrt:ismbbyte.obj
 0001:0003f87b       ___acrt_initialize_command_line 1004087b f   libucrt:argv_data.obj
 0001:0003f894       ___acrt_uninitialize_command_line 10040894 f   libucrt:argv_data.obj
 0001:0003f897       ___p___argc                10040897 f   libucrt:argv_data.obj
 0001:0003f89d       ___p___argv                1004089d f   libucrt:argv_data.obj
 0001:0003f8a3       ___p___wargv               100408a3 f   libucrt:argv_data.obj
 0001:0003f8a9       ___p__acmdln               100408a9 f   libucrt:argv_data.obj
 0001:0003f8af       ___p__pgmptr               100408af f   libucrt:argv_data.obj
 0001:0003f8b5       ___p__wcmdln               100408b5 f   libucrt:argv_data.obj
 0001:0003f8bb       ___p__wpgmptr              100408bb f   libucrt:argv_data.obj
 0001:0003f8c1       __get_pgmptr               100408c1 f   libucrt:argv_data.obj
 0001:0003f8f2       __get_wpgmptr              100408f2 f   libucrt:argv_data.obj
 0001:0003f983       _wcscpy_s                  10040983 f   libucrt:wcscpy_s.obj
 0001:0003fa82       ___dcrt_get_narrow_environment_from_os 10040a82 f   libucrt:get_environment_from_os.obj
 0001:0003fb08       ___dcrt_get_wide_environment_from_os 10040b08 f   libucrt:get_environment_from_os.obj
 0001:00040240       ??$get_or_create_environment_nolock@$$V@?$__crt_char_traits@D@@SAPAPADXZ 10041240 f i libucrt:setenv.obj
 0001:00040245       ??$get_or_create_environment_nolock@$$V@?$__crt_char_traits@_W@@SAPAPA_WXZ 10041245 f i libucrt:setenv.obj
 0001:0004024a       ??$set_environment_variable@ABQADQAD@?$__crt_char_traits@D@@SAHABQAD$$QBQAD@Z 1004124a f i libucrt:setenv.obj
 0001:00040262       ??$set_environment_variable@ABQA_WQA_W@?$__crt_char_traits@_W@@SAHABQA_W$$QBQA_W@Z 10041262 f i libucrt:setenv.obj
 0001:00040279       ??$tcschr@ABQADD@?$__crt_char_traits@D@@SAPADABQAD$$QAD@Z 10041279 f i libucrt:setenv.obj
 0001:00040293       ??$tcschr@ABQA_WD@?$__crt_char_traits@_W@@SAPA_WABQA_W$$QAD@Z 10041293 f i libucrt:setenv.obj
 0001:000402b1       ??$tcscpy_s@AAPADABIAAPAD@?$__crt_char_traits@D@@SAHAAPADABI0@Z 100412b1 f i libucrt:setenv.obj
 0001:000402cf       ??$tcscpy_s@AAPA_WABIAAPA_W@?$__crt_char_traits@_W@@SAHAAPA_WABI0@Z 100412cf f i libucrt:setenv.obj
 0001:000402ed       ??$tcscpy_s@ABQADABIABQAD@?$__crt_char_traits@D@@SAHABQADABI0@Z 100412ed f i libucrt:setenv.obj
 0001:0004030b       ??$tcscpy_s@ABQA_WABIABQA_W@?$__crt_char_traits@_W@@SAHABQA_WABI0@Z 1004130b f i libucrt:setenv.obj
 0001:00040329       ??$tcslen@ABQAD@?$__crt_char_traits@D@@SAIABQAD@Z 10041329 f i libucrt:setenv.obj
 0001:00040341       ??$tcslen@ABQA_W@?$__crt_char_traits@_W@@SAIABQA_W@Z 10041341 f i libucrt:setenv.obj
 0001:0004035f       ??$tcsnicoll@ABQBDAAPADABI@?$__crt_char_traits@D@@SAHABQBDAAPADABI@Z 1004135f f i libucrt:setenv.obj
 0001:0004037d       ??$tcsnicoll@ABQB_WAAPA_WABI@?$__crt_char_traits@_W@@SAHABQB_WAAPA_WABI@Z 1004137d f i libucrt:setenv.obj
 0001:000403bf       ?strchr@@YAPADQADH@Z       100413bf f i libucrt:setenv.obj
 0001:000403ca       ?wcschr@@YAPA_WPA_W_W@Z    100413ca f i libucrt:setenv.obj
 0001:000403d5       ___dcrt_set_variable_in_narrow_environment_nolock 100413d5 f   libucrt:setenv.obj
 0001:000403e0       ___dcrt_set_variable_in_wide_environment_nolock 100413e0 f   libucrt:setenv.obj
 0001:000403eb       __recalloc                 100413eb f   libucrt:recalloc.obj
 0001:000403f6       __recalloc_base            100413f6 f   libucrt:recalloc.obj
 0001:00040463       ___acrt_getheap            10041463 f   libucrt:heap_handle.obj
 0001:00040469       ___acrt_initialize_heap    10041469 f   libucrt:heap_handle.obj
 0001:0004047a       ___acrt_uninitialize_heap  1004147a f   libucrt:heap_handle.obj
 0001:00040484       __get_heap_handle          10041484 f   libucrt:heap_handle.obj
 0001:0004048a       ___acrt_execute_initializers 1004148a f   libucrt:shared_initialization.obj
 0001:0004050d       ___acrt_execute_uninitializers 1004150d f   libucrt:shared_initialization.obj
 0001:00040555       ??$?B$$A6AHI@Z@__crt_fast_encoded_nullptr_t@@QBEP6AHI@ZXZ 10041555 f i libucrt:new_handler.obj
 0001:0004056d       ??$__crt_fast_decode_pointer@P6AHI@Z@@YAP6AHI@ZQ6AHI@Z@Z 1004156d f i libucrt:new_handler.obj
 0001:00040583       ??$__crt_fast_encode_pointer@P6AHI@Z@@YAP6AHI@ZQ6AHI@Z@Z 10041583 f i libucrt:new_handler.obj
 0001:000405a2       ?_set_new_handler@@YAP6AHI@ZH@Z 100415a2 f   libucrt:new_handler.obj
 0001:000405c1       ?initialize@?$dual_state_global@P6AHI@Z@__crt_state_management@@QAEXQ6AHI@Z@Z 100415c1 f i libucrt:new_handler.obj
 0001:000405e7       ?value@?$dual_state_global@P6AHI@Z@__crt_state_management@@QAEAAP6AHI@ZXZ 100415e7 f i libucrt:new_handler.obj
 0001:000405ea       ___acrt_initialize_new_handler 100415ea f   libucrt:new_handler.obj
 0001:000405f9       __callnewh                 100415f9 f   libucrt:new_handler.obj
 0001:0004063d       __query_new_handler        1004163d f   libucrt:new_handler.obj
 0001:0004068f       __set_new_handler          1004168f f   libucrt:new_handler.obj
 0001:000406ef       ??$?B$$A6AXH@Z@__crt_fast_encoded_nullptr_t@@QBEP6AXH@ZXZ 100416ef f i libucrt:signal.obj
 0001:00040789       ??$__crt_fast_decode_pointer@P6AXH@Z@@YAP6AXH@ZQ6AXH@Z@Z 10041789 f i libucrt:signal.obj
 0001:0004079f       ??$__crt_fast_encode_pointer@P6AXH@Z@@YAP6AXH@ZQ6AXH@Z@Z 1004179f f i libucrt:signal.obj
 0001:000408f7       ?initialize@?$dual_state_global@P6AXH@Z@__crt_state_management@@QAEXQ6AXH@Z@Z 100418f7 f i libucrt:signal.obj
 0001:000409aa       ?value@?$dual_state_global@P6AXH@Z@__crt_state_management@@QAEAAP6AXH@ZXZ 100419aa f i libucrt:signal.obj
 0001:000409ad       ___acrt_get_sigabrt_handler 100419ad f   libucrt:signal.obj
 0001:000409d6       ___acrt_initialize_signal_handlers 100419d6 f   libucrt:signal.obj
 0001:000409f4       ___fpecode                 100419f4 f   libucrt:signal.obj
 0001:000409fd       ___pxcptinfoptrs           100419fd f   libucrt:signal.obj
 0001:00040a06       _raise                     10041a06 f   libucrt:signal.obj
 0001:00040c08       _signal                    10041c08 f   libucrt:signal.obj
 0001:00040db9       ??$__crt_fast_decode_pointer@P6AHPAU_exception@@@Z@@YAP6AHPAU_exception@@@ZQ6AH0@Z@Z 10041db9 f i libucrt:matherr.obj
 0001:00040dcf       ??$__crt_fast_encode_pointer@P6AHPAU_exception@@@Z@@YAP6AHPAU_exception@@@ZQ6AH0@Z@Z 10041dcf f i libucrt:matherr.obj
 0001:00040dee       ?initialize@?$dual_state_global@P6AHPAU_exception@@@Z@__crt_state_management@@QAEXQ6AHPAU_exception@@@Z@Z 10041dee f i libucrt:matherr.obj
 0001:00040e14       ?value@?$dual_state_global@P6AHPAU_exception@@@Z@__crt_state_management@@QAEAAP6AHPAU_exception@@@ZXZ 10041e14 f i libucrt:matherr.obj
 0001:00040e17       ___acrt_has_user_matherr   10041e17 f   libucrt:matherr.obj
 0001:00040e2f       ___acrt_initialize_user_matherr 10041e2f f   libucrt:matherr.obj
 0001:00040e3e       ___acrt_invoke_user_matherr 10041e3e f   libucrt:matherr.obj
 0001:00040e87       ___setusermatherr          10041e87 f   libucrt:matherr.obj
 0001:00040e9c       __iswctype_l               10041e9c f   libucrt:iswctype.obj
 0001:00040eb0       _iswctype                  10041eb0 f   libucrt:iswctype.obj
 0001:00040f1b       __isctype                  10041f1b f   libucrt:isctype.obj
 0001:00040f4d       __isctype_l                10041f4d f   libucrt:isctype.obj
 0001:000410c5       ___acrt_report_runtime_error 100420c5 f   libucrt:report_runtime_error.obj
 0001:000411da       __query_app_type           100421da f   libucrt:report_runtime_error.obj
 0001:000411e0       __set_app_type             100421e0 f   libucrt:report_runtime_error.obj
 0001:000411ef       ?value@?$dual_state_global@J@__crt_state_management@@QAEAAJXZ 100421ef f i libucrt:new_mode.obj
 0001:000411f2       __query_new_mode           100421f2 f   libucrt:new_mode.obj
 0001:000411f8       __set_new_mode             100421f8 f   libucrt:new_mode.obj
 0001:00041227       ___p__fmode                10042227 f   libucrt:txtmode.obj
 0001:0004122d       ___acrt_add_locale_ref     1004222d f   libucrt:locale_refcounting.obj
 0001:000412aa       ___acrt_free_locale        100422aa f   libucrt:locale_refcounting.obj
 0001:000413f4       ___acrt_locale_add_lc_time_reference 100423f4 f   libucrt:locale_refcounting.obj
 0001:0004141d       ___acrt_locale_free_lc_time_if_unreferenced 1004241d f   libucrt:locale_refcounting.obj
 0001:0004144d       ___acrt_locale_release_lc_time_reference 1004244d f   libucrt:locale_refcounting.obj
 0001:00041476       ___acrt_release_locale_ref 10042476 f   libucrt:locale_refcounting.obj
 0001:000414f7       ___acrt_update_thread_locale_data 100424f7 f   libucrt:locale_refcounting.obj
 0001:0004156e       __updatetlocinfoEx_nolock  1004256e f   libucrt:locale_refcounting.obj
 0001:00041715       ___acrt_DownlevelLCIDToLocaleName 10042715 f   libucrt:lcidtoname_downlevel.obj
 0001:000417bf       ___acrt_DownlevelLocaleNameToLCID 100427bf f   libucrt:lcidtoname_downlevel.obj
 0001:000417eb       ??$?RG@__crt_internal_free_policy@@QBEXQBG@Z 100427eb f i libucrt:initctype.obj
 0001:000417fd       ??$?RJ@__crt_internal_free_policy@@QBEXQBJ@Z 100427fd f i libucrt:initctype.obj
 0001:0004180f       ??0?$__crt_unique_heap_ptr@GU__crt_internal_free_policy@@@@QAE@QAG@Z 1004280f f i libucrt:initctype.obj
 0001:0004181f       ??0?$__crt_unique_heap_ptr@JU__crt_internal_free_policy@@@@QAE@QAJ@Z 1004281f f i libucrt:initctype.obj
 0001:0004182f       ??1?$__crt_unique_heap_ptr@GU__crt_internal_free_policy@@@@QAE@XZ 1004282f f i libucrt:initctype.obj
 0001:00041841       ??1?$__crt_unique_heap_ptr@JU__crt_internal_free_policy@@@@QAE@XZ 10042841 f i libucrt:initctype.obj
 0001:00041853       ?detach@?$__crt_unique_heap_ptr@GU__crt_internal_free_policy@@@@QAEPAGXZ 10042853 f i libucrt:initctype.obj
 0001:00041859       ?detach@?$__crt_unique_heap_ptr@JU__crt_internal_free_policy@@@@QAEPAJXZ 10042859 f i libucrt:initctype.obj
 0001:0004185f       ?release@?$__crt_unique_heap_ptr@GU__crt_internal_free_policy@@@@QAEXXZ 1004285f f i libucrt:initctype.obj
 0001:00041871       ?release@?$__crt_unique_heap_ptr@JU__crt_internal_free_policy@@@@QAEXXZ 10042871 f i libucrt:initctype.obj
 0001:00041883       ____lc_codepage_func       10042883 f   libucrt:initctype.obj
 0001:000418aa       ____lc_collate_cp_func     100428aa f   libucrt:initctype.obj
 0001:000418d1       ____lc_locale_name_func    100428d1 f   libucrt:initctype.obj
 0001:000418fa       ____mb_cur_max_func        100428fa f   libucrt:initctype.obj
 0001:00041921       ____mb_cur_max_l_func      10042921 f   libucrt:initctype.obj
 0001:0004193a       ___acrt_locale_initialize_ctype 1004293a f   libucrt:initctype.obj
 0001:00041d6e       ??$?RUlconv@@@__crt_internal_free_policy@@QBEXQBUlconv@@@Z 10042d6e f i libucrt:initmon.obj
 0001:00041d80       ??0?$__crt_unique_heap_ptr@Ulconv@@U__crt_internal_free_policy@@@@QAE@QAUlconv@@@Z 10042d80 f i libucrt:initmon.obj
 0001:00041d90       ??1?$__crt_unique_heap_ptr@Ulconv@@U__crt_internal_free_policy@@@@QAE@XZ 10042d90 f i libucrt:initmon.obj
 0001:00041da2       ?detach@?$__crt_unique_heap_ptr@Ulconv@@U__crt_internal_free_policy@@@@QAEPAUlconv@@XZ 10042da2 f i libucrt:initmon.obj
 0001:00041da8       ?release@?$__crt_unique_heap_ptr@Ulconv@@U__crt_internal_free_policy@@@@QAEXXZ 10042da8 f i libucrt:initmon.obj
 0001:00041dba       ___acrt_locale_free_monetary 10042dba f   libucrt:initmon.obj
 0001:00041eb8       ___acrt_locale_initialize_monetary 10042eb8 f   libucrt:initmon.obj
 0001:000422a9       ___acrt_locale_free_numeric 100432a9 f   libucrt:initnum.obj
 0001:00042312       ___acrt_locale_initialize_numeric 10043312 f   libucrt:initnum.obj
 0001:0004255b       ??$?RU__crt_lc_time_data@@@__crt_internal_free_policy@@QBEXQBU__crt_lc_time_data@@@Z 1004355b f i libucrt:inittime.obj
 0001:000425df       ??0?$__crt_unique_heap_ptr@U__crt_lc_time_data@@U__crt_internal_free_policy@@@@QAE@QAU__crt_lc_time_data@@@Z 100435df f i libucrt:inittime.obj
 0001:000425ef       ??1?$__crt_unique_heap_ptr@U__crt_lc_time_data@@U__crt_internal_free_policy@@@@QAE@XZ 100435ef f i libucrt:inittime.obj
 0001:00042601       ??B?$__crt_unique_heap_ptr@U__crt_lc_time_data@@U__crt_internal_free_policy@@@@QBE_NXZ 10043601 f i libucrt:inittime.obj
 0001:00042608       ?detach@?$__crt_unique_heap_ptr@U__crt_lc_time_data@@U__crt_internal_free_policy@@@@QAEPAU__crt_lc_time_data@@XZ 10043608 f i libucrt:inittime.obj
 0001:00042646       ?get@?$__crt_unique_heap_ptr@U__crt_lc_time_data@@U__crt_internal_free_policy@@@@QBEPAU__crt_lc_time_data@@XZ 10043646 f i libucrt:inittime.obj
 0001:00042928       ?is_valid@?$__crt_unique_heap_ptr@U__crt_lc_time_data@@U__crt_internal_free_policy@@@@QBE_NXZ 10043928 f i libucrt:inittime.obj
 0001:0004292f       ?release@?$__crt_unique_heap_ptr@U__crt_lc_time_data@@U__crt_internal_free_policy@@@@QAEXXZ 1004392f f i libucrt:inittime.obj
 0001:00042941       ___acrt_locale_free_time   10043941 f   libucrt:inittime.obj
 0001:00042a25       ___acrt_locale_initialize_time 10043a25 f   libucrt:inittime.obj
 0001:00042b12       _wcscat_s                  10043b12 f   libucrt:wcscat_s.obj
 0001:00042c53       _wcsncpy_s                 10043c53 f   libucrt:wcsncpy_s.obj
 0001:00042c5e       _wcscspn                   10043c5e f   libucrt:wcscspn.obj
 0001:00042cb9       _wcspbrk                   10043cb9 f   libucrt:wcspbrk.obj
 0001:00042d07       __wcsicmp                  10043d07 f   libucrt:wcsicmp.obj
 0001:00042d95       __wcsicmp_l                10043d95 f   libucrt:wcsicmp.obj
 0001:00042e72       ??0?$__crt_scoped_stack_ptr@_W@@QAE@U?$__crt_scoped_stack_ptr_tag@_W@@@Z 10043e72 f i libucrt:getstringtypea.obj
 0001:00042e82       ??0?$__crt_scoped_stack_ptr_tag@_W@@QAE@QA_W@Z 10043e82 f i libucrt:getstringtypea.obj
 0001:00042e92       ??1?$__crt_scoped_stack_ptr@_W@@QAE@XZ 10043e92 f i libucrt:getstringtypea.obj
 0001:00042e9b       ?get@?$__crt_scoped_stack_ptr@_W@@QBEPA_WXZ 10043e9b f i libucrt:getstringtypea.obj
 0001:00042e9e       __MallocaComputeSize       10043e9e f i libucrt:getstringtypea.obj
 0001:00042eb1       __MarkAllocaS              10043eb1 f i libucrt:getstringtypea.obj
 0001:00042ec7       ___acrt_GetStringTypeA     10043ec7 f   libucrt:getstringtypea.obj
 0001:00042fcc       __freea_crt                10043fcc f i libucrt:getstringtypea.obj
 0001:00043748       ___acrt_get_qualified_locale 10044748 f   libucrt:get_qualified_locale.obj
 0001:000440d8       ___acrt_get_qualified_locale_downlevel 100450d8 f   libucrt:getqloc_downlevel.obj
 0001:000442cf       _localeconv                100452cf f   libucrt:localeconv.obj
 0001:000442f9       ?__c16rtomb_utf8@__crt_mbstring@@YAIPAD_SPAU_Mbstatet@@@Z 100452f9 f   libucrt:c16rtomb.obj
 0001:000443f2       ?reset_and_return@__crt_mbstring@@YAIIPAU_Mbstatet@@@Z 100453f2 f i libucrt:c16rtomb.obj
 0001:00044406       ?return_illegal_sequence@__crt_mbstring@@YAIPAU_Mbstatet@@@Z 10045406 f i libucrt:c16rtomb.obj
 0001:00044441       _c16rtomb                  10045441 f   libucrt:c16rtomb.obj
 0001:0004444c       ___iswcsym                 1004544c f i libucrt:_wctype.obj
 0001:00044472       ___iswcsymf                10045472 f i libucrt:_wctype.obj
 0001:00044498       __isleadbyte_l             10045498 f i libucrt:_wctype.obj
 0001:000444d1       __iswalnum_l               100454d1 f i libucrt:_wctype.obj
 0001:000444e7       __iswalpha_l               100454e7 f i libucrt:_wctype.obj
 0001:000444fd       __iswblank_l               100454fd f i libucrt:_wctype.obj
 0001:0004451a       __iswcntrl_l               1004551a f i libucrt:_wctype.obj
 0001:0004452d       __iswcsym_l                1004552d f i libucrt:_wctype.obj
 0001:00044553       __iswcsymf_l               10045553 f i libucrt:_wctype.obj
 0001:00044579       __iswdigit_l               10045579 f i libucrt:_wctype.obj
 0001:0004458c       __iswgraph_l               1004558c f i libucrt:_wctype.obj
 0001:000445a2       __iswlower_l               100455a2 f i libucrt:_wctype.obj
 0001:000445b5       __iswprint_l               100455b5 f i libucrt:_wctype.obj
 0001:000445cb       __iswpunct_l               100455cb f i libucrt:_wctype.obj
 0001:000445de       __iswspace_l               100455de f i libucrt:_wctype.obj
 0001:000445f1       __iswupper_l               100455f1 f i libucrt:_wctype.obj
 0001:00044604       __iswxdigit_l              10045604 f i libucrt:_wctype.obj
 0001:0004461a       _isleadbyte                1004561a f i libucrt:_wctype.obj
 0001:0004462d       _iswalnum                  1004562d f i libucrt:_wctype.obj
 0001:00044643       _iswalpha                  10045643 f i libucrt:_wctype.obj
 0001:00044659       _iswascii                  10045659 f i libucrt:_wctype.obj
 0001:0004466d       _iswblank                  1004566d f i libucrt:_wctype.obj
 0001:0004468a       _iswcntrl                  1004568a f i libucrt:_wctype.obj
 0001:0004469d       _iswdigit                  1004569d f i libucrt:_wctype.obj
 0001:000446b0       _iswgraph                  100456b0 f i libucrt:_wctype.obj
 0001:000446c6       _iswlower                  100456c6 f i libucrt:_wctype.obj
 0001:000446d9       _iswprint                  100456d9 f i libucrt:_wctype.obj
 0001:000446ef       _iswpunct                  100456ef f i libucrt:_wctype.obj
 0001:00044702       _iswspace                  10045702 f i libucrt:_wctype.obj
 0001:00044715       _iswupper                  10045715 f i libucrt:_wctype.obj
 0001:00044728       _iswxdigit                 10045728 f i libucrt:_wctype.obj
 0001:0004473e       ??B?$__crt_scoped_stack_ptr@_W@@QBE_NXZ 1004573e f i libucrt:lcmapstringa.obj
 0001:00044931       ___acrt_LCMapStringA       10045931 f   libucrt:lcmapstringa.obj
 0001:000449a8       ?__mbrtowc_utf8@__crt_mbstring@@YAIPA_WPBDIPAU_Mbstatet@@@Z 100459a8 f   libucrt:mbrtowc.obj
 0001:000449ea       ?__mbsrtowcs_utf8@__crt_mbstring@@YAIPA_WPAPBDIPAU_Mbstatet@@@Z 100459ea f   libucrt:mbrtowc.obj
 0001:00044e02       _btowc                     10045e02 f   libucrt:mbrtowc.obj
 0001:00044e5c       _mbrlen                    10045e5c f   libucrt:mbrtowc.obj
 0001:00044e90       _mbrtowc                   10045e90 f   libucrt:mbrtowc.obj
 0001:00044ee3       _mbsrtowcs                 10045ee3 f   libucrt:mbrtowc.obj
 0001:00044eee       _mbsrtowcs_s               10045eee f   libucrt:mbrtowc.obj
 0001:00044f91       ___acrt_fp_strflt_to_string 10045f91 f   libucrt:_fptostr.obj
 0001:000463b0       ??0big_integer@__crt_strtox@@QAE@ABU01@@Z 100473b0 f i libucrt:cfout.obj
 0001:000463f0       ??0big_integer@__crt_strtox@@QAE@XZ 100473f0 f i libucrt:cfout.obj
 0001:00046440       ??4big_integer@__crt_strtox@@QAEAAU01@ABU01@@Z 10047440 f i libucrt:cfout.obj
 0001:00046480       ??8__crt_strtox@@YA_NABUbig_integer@0@0@Z 10047480 f i libucrt:cfout.obj
 0001:000464c0       ??9__crt_strtox@@YA_NABUbig_integer@0@0@Z 100474c0 f i libucrt:cfout.obj
 0001:00046500       ?add_carry@__crt_strtox@@YAIAAIII@Z 10047500 f i libucrt:cfout.obj
 0001:00046520       ?add_multiply_carry@__crt_strtox@@YAIAAIIII@Z 10047520 f i libucrt:cfout.obj
 0001:00046550       ?bit_scan_reverse@__crt_strtox@@YAII@Z 10047550 f i libucrt:cfout.obj
 0001:00046570       ?count_sequential_high_zeroes@__crt_strtox@@YAII@Z 10047570 f i libucrt:cfout.obj
 0001:00046590       ?divide@__crt_strtox@@YA_KAAUbig_integer@1@ABU21@@Z 10047590 f i libucrt:cfout.obj
 0001:00046a20       ?is_zero@__crt_strtox@@YA_NABUbig_integer@1@@Z 10047a20 f i libucrt:cfout.obj
 0001:00046a30       ?make_big_integer@__crt_strtox@@YA?AUbig_integer@1@_K@Z 10047a30 f i libucrt:cfout.obj
 0001:00046a50       ?make_big_integer_power_of_two@__crt_strtox@@YA?AUbig_integer@1@I@Z 10047a50 f i libucrt:cfout.obj
 0001:00046aa0       ?multiply@__crt_strtox@@YA_NAAUbig_integer@1@ABU21@@Z 10047aa0 f i libucrt:cfout.obj
 0001:00046de0       ?multiply@__crt_strtox@@YA_NAAUbig_integer@1@I@Z 10047de0 f i libucrt:cfout.obj
 0001:00046eb0       ?multiply_64_32@__crt_strtox@@YA_K_KI@Z 10047eb0 f i libucrt:cfout.obj
 0001:00046ed0       ?multiply_by_power_of_ten@__crt_strtox@@YA_NAAUbig_integer@1@I@Z 10047ed0 f i libucrt:cfout.obj
 0001:00047400       ?multiply_core@__crt_strtox@@YAIQAIII@Z 10048400 f i libucrt:cfout.obj
 0001:00047440       ?shift_left@__crt_strtox@@YA_NAAUbig_integer@1@I@Z 10048440 f i libucrt:cfout.obj
 0001:00047596       ___acrt_fltout             10048596 f   libucrt:cfout.obj
 0001:00048986       __fcloseall                10049986 f   libucrt:closeall.obj
 0001:00048ad6       ___dcrt_lowio_ensure_console_output_initialized 10049ad6 f   libucrt:initcon.obj
 0001:00048af5       ___dcrt_terminate_console_output 10049af5 f   libucrt:initcon.obj
 0001:00048b0c       ___dcrt_write_console      10049b0c f   libucrt:initcon.obj
 0001:00048b61       __wcsnicmp                 10049b61 f   libucrt:wcsnicmp.obj
 0001:00048c12       __wcsnicmp_l               10049c12 f   libucrt:wcsnicmp.obj
 0001:00048d0f       __strnicmp                 10049d0f f   libucrt:strnicmp.obj
 0001:00048d7c       __strnicmp_l               10049d7c f   libucrt:strnicmp.obj
 0001:00048e33       ___p__commode              10049e33 f   libucrt:ncommode.obj
 0001:00048f94       __commit                   10049f94 f   libucrt:commit.obj
 0001:00049013       ___acrt_stdio_allocate_buffer_nolock 1004a013 f   libucrt:_getbuf.obj
 0001:00049150       _qsort                     1004a150 f   libucrt:qsort.obj
 0001:000495a0       _strpbrk                   1004a5a0 f   libucrt:strpbrk.obj
 0001:000495e0       ??$__acrt_convert_wcs_mbs@D_W$$A6AIPA_WPBDIPAU__crt_locale_pointers@@@ZU__crt_win32_buffer_internal_dynamic_resizing@@@@YAHQBDAAV?$__crt_win32_buffer@_WU__crt_win32_buffer_internal_dynamic_resizing@@@@A6AIPA_WPBDIPAU__crt_locale_pointers@@@Z4@Z 1004a5e0 f i libucrt:findfirstfileexa.obj
 0001:00049681       ??$__acrt_mbs_to_wcs@U__crt_win32_buffer_internal_dynamic_resizing@@@@YAHQBDAAV?$__crt_win32_buffer@_WU__crt_win32_buffer_internal_dynamic_resizing@@@@PAU__crt_locale_pointers@@@Z 1004a681 f i libucrt:findfirstfileexa.obj
 0001:0004969e       ?set_to_nullptr@?$__crt_win32_buffer@_WU__crt_win32_buffer_internal_dynamic_resizing@@@@QAEXXZ 1004a69e f i libucrt:findfirstfileexa.obj
 0001:000496b5       ___acrt_FindFirstFileExA   1004a6b5 f   libucrt:findfirstfileexa.obj
 0001:0004971b       ??$?0$0BAE@@?$__crt_win32_buffer@DU__crt_win32_buffer_no_resizing@@@@QAE@AAY0BAE@D@Z 1004a71b f i libucrt:findnextfilea.obj
 0001:00049741       ??$?0$0O@@?$__crt_win32_buffer@DU__crt_win32_buffer_no_resizing@@@@QAE@AAY0O@D@Z 1004a741 f i libucrt:findnextfilea.obj
 0001:00049765       ??$__acrt_convert_wcs_mbs@_WD$$A6AIPADPB_WIPAU__crt_locale_pointers@@@ZU__crt_win32_buffer_no_resizing@@@@YAHQB_WAAV?$__crt_win32_buffer@DU__crt_win32_buffer_no_resizing@@@@A6AIPADPB_WIPAU__crt_locale_pointers@@@Z4@Z 1004a765 f i libucrt:findnextfilea.obj
 0001:00049807       ??$__acrt_wcs_to_mbs@U__crt_win32_buffer_no_resizing@@@@YAHQB_WAAV?$__crt_win32_buffer@DU__crt_win32_buffer_no_resizing@@@@PAU__crt_locale_pointers@@@Z 1004a807 f i libucrt:findnextfilea.obj
 0001:00049824       ??1?$__crt_win32_buffer@DU__crt_win32_buffer_no_resizing@@@@QAE@XZ 1004a824 f i libucrt:findnextfilea.obj
 0001:0004982f       ?_deallocate@?$__crt_win32_buffer@DU__crt_win32_buffer_no_resizing@@@@AAEXXZ 1004a82f f i libucrt:findnextfilea.obj
 0001:0004983a       ?allocate@?$__crt_win32_buffer@DU__crt_win32_buffer_no_resizing@@@@QAEHI@Z 1004a83a f i libucrt:findnextfilea.obj
 0001:00049861       ?allocate@__crt_win32_buffer_no_resizing@@SAHQAPAXIABV__crt_win32_buffer_empty_debug_info@@@Z 1004a861 f i libucrt:findnextfilea.obj
 0001:0004986e       ?capacity@?$__crt_win32_buffer@DU__crt_win32_buffer_no_resizing@@@@QBEIXZ 1004a86e f i libucrt:findnextfilea.obj
 0001:00049872       ?data@?$__crt_win32_buffer@DU__crt_win32_buffer_no_resizing@@@@QAEPADXZ 1004a872 f i libucrt:findnextfilea.obj
 0001:00049876       ?deallocate@__crt_win32_buffer_no_resizing@@SAXQAXABV__crt_win32_buffer_empty_debug_info@@@Z 1004a876 f i libucrt:findnextfilea.obj
 0001:00049877       ?debug_info@?$__crt_win32_buffer@DU__crt_win32_buffer_no_resizing@@@@QBEABV__crt_win32_buffer_empty_debug_info@@XZ 1004a877 f i libucrt:findnextfilea.obj
 0001:0004987a       ?set_to_nullptr@?$__crt_win32_buffer@DU__crt_win32_buffer_no_resizing@@@@QAEXXZ 1004a87a f i libucrt:findnextfilea.obj
 0001:0004988e       ?size@?$__crt_win32_buffer@DU__crt_win32_buffer_no_resizing@@@@QAEXI@Z 1004a88e f i libucrt:findnextfilea.obj
 0001:0004989d       ___acrt_FindNextFileA      1004a89d f   libucrt:findnextfilea.obj
 0001:000499de       __mbsdec                   1004a9de f   libucrt:mbsdec.obj
 0001:000499f5       __mbsdec_l                 1004a9f5 f   libucrt:mbsdec.obj
 0001:00049a93       __wcsnicoll                1004aa93 f   libucrt:wcsnicol.obj
 0001:00049b5a       __wcsnicoll_l              1004ab5a f   libucrt:wcsnicol.obj
 0001:00049c78       __strnicoll                1004ac78 f   libucrt:strnicol.obj
 0001:00049ca1       __strnicoll_l              1004aca1 f   libucrt:strnicol.obj
 0001:00049d6b       ___acrt_SetEnvironmentVariableA 1004ad6b f   libucrt:setenvironmentvariablea.obj
 0001:00049e11       __msize                    1004ae11 f   libucrt:msize.obj
 0001:00049e1c       __msize_base               1004ae1c f   libucrt:msize.obj
 0001:00049e4f       __realloc_base             1004ae4f f   libucrt:realloc_base.obj
 0001:00049eb8       ___acrt_GetStringTypeW     1004aeb8 f   libucrt:getstringtypew.obj
 0001:00049ed1       __set_error_mode           1004aed1 f   libucrt:set_error_mode.obj
 0001:0004a00b       ??$message_box@$$TABQBDABQBDK@?$__crt_char_traits@D@@SAH$$QA$$TABQBD1$$QAK@Z 1004b00b f i libucrt:crtmbox.obj
 0001:0004a02b       ??$message_box@$$TABQB_WABQB_WK@?$__crt_char_traits@_W@@SAH$$QA$$TABQB_W1$$QAK@Z 1004b02b f i libucrt:crtmbox.obj
 0001:0004a04b       ??$message_box@PAUHWND__@@ABQBDABQBDABI@?$__crt_char_traits@D@@SAH$$QAPAUHWND__@@ABQBD1ABI@Z 1004b04b f i libucrt:crtmbox.obj
 0001:0004a06b       ??$message_box@PAUHWND__@@ABQB_WABQB_WABI@?$__crt_char_traits@_W@@SAH$$QAPAUHWND__@@ABQB_W1ABI@Z 1004b06b f i libucrt:crtmbox.obj
 0001:0004a08b       ??$output_debug_string@ABQBD@?$__crt_char_traits@D@@SAXABQBD@Z 1004b08b f i libucrt:crtmbox.obj
 0001:0004a09c       ??$output_debug_string@ABQB_W@?$__crt_char_traits@_W@@SAXABQB_W@Z 1004b09c f i libucrt:crtmbox.obj
 0001:0004a0ae       ___acrt_show_narrow_message_box 1004b0ae f   libucrt:crtmbox.obj
 0001:0004a0b9       ___acrt_show_wide_message_box 1004b0b9 f   libucrt:crtmbox.obj
 0001:0004a1a5       ___acrt_GetLocaleInfoA     1004b1a5 f   libucrt:getlocaleinfoa.obj
 0001:0004a357       __towlower_l               1004b357 f   libucrt:towlower.obj
 0001:0004a420       _towlower                  1004b420 f   libucrt:towlower.obj
 0001:0004a906       __i64toa                   1004b906 f   libucrt:xtoa.obj
 0001:0004a949       __i64toa_s                 1004b949 f   libucrt:xtoa.obj
 0001:0004a98a       __i64tow                   1004b98a f   libucrt:xtoa.obj
 0001:0004a9cd       __i64tow_s                 1004b9cd f   libucrt:xtoa.obj
 0001:0004aa0e       __itoa                     1004ba0e f   libucrt:xtoa.obj
 0001:0004aa45       __itoa_s                   1004ba45 f   libucrt:xtoa.obj
 0001:0004aa7a       __itow                     1004ba7a f   libucrt:xtoa.obj
 0001:0004aab1       __itow_s                   1004bab1 f   libucrt:xtoa.obj
 0001:0004aae6       __ltoa                     1004bae6 f   libucrt:xtoa.obj
 0001:0004ab1d       __ltoa_s                   1004bb1d f   libucrt:xtoa.obj
 0001:0004ab52       __ltow                     1004bb52 f   libucrt:xtoa.obj
 0001:0004ab89       __ltow_s                   1004bb89 f   libucrt:xtoa.obj
 0001:0004abbe       __ui64toa                  1004bbbe f   libucrt:xtoa.obj
 0001:0004abe0       __ui64toa_s                1004bbe0 f   libucrt:xtoa.obj
 0001:0004ac00       __ui64tow                  1004bc00 f   libucrt:xtoa.obj
 0001:0004ac22       __ui64tow_s                1004bc22 f   libucrt:xtoa.obj
 0001:0004ac42       __ultoa                    1004bc42 f   libucrt:xtoa.obj
 0001:0004ac61       __ultoa_s                  1004bc61 f   libucrt:xtoa.obj
 0001:0004ac7e       __ultow                    1004bc7e f   libucrt:xtoa.obj
 0001:0004ac9d       __ultow_s                  1004bc9d f   libucrt:xtoa.obj
 0001:0004acba       ?__c32rtomb_utf8@__crt_mbstring@@YAIPAD_UPAU_Mbstatet@@@Z 1004bcba f   libucrt:c32rtomb.obj
 0001:0004ad69       _c32rtomb                  1004bd69 f   libucrt:c32rtomb.obj
 0001:0004ad74       ___strncnt                 1004bd74 f   libucrt:strncnt.obj
 0001:0004ad90       ?__mbrtoc32_utf8@__crt_mbstring@@YAIPA_UPBDIPAU_Mbstatet@@@Z 1004bd90 f   libucrt:mbrtoc32.obj
 0001:0004af44       _mbrtoc32                  1004bf44 f   libucrt:mbrtoc32.obj
 0001:0004af4f       _fegetenv                  1004bf4f f   libucrt:fegetenv.obj
 0001:0004af6c       _fesetenv                  1004bf6c f   libucrt:fesetenv.obj
 0001:0004afb9       _feholdexcept              1004bfb9 f   libucrt:feholdexcept.obj
 0001:0004b010       __CIlog10                  1004c010 f   libucrt:log10_impl.obj
 0001:0004b04b       __CIlog10_default          1004c04b f   libucrt:log10_impl.obj
 0001:0004b05f       __log10_default            1004c05f     libucrt:log10_impl.obj
 0001:0004b120       _ceil                      1004c120 f   libucrt:ceil_pentium4.obj
 0001:0004b160       __ceil_pentium4            1004c160 f   libucrt:ceil_pentium4.obj
 0001:0004b240       ___ascii_strnicmp          1004c240 f   libucrt:_strnicm.obj
 0001:0004b2a1       ___acrt_CompareStringW     1004c2a1 f   libucrt:comparestringw.obj
 0001:0004b581       ___acrt_CompareStringA     1004c581 f   libucrt:comparestringa.obj
 0001:0004b5c9       ___acrt_OutputDebugStringA@4 1004c5c9 f   libucrt:outputdebugstringa.obj
 0001:0004b63a       ___acrt_LCMapStringW       1004c63a f   libucrt:lcmapstringw.obj
 0001:0004b678       ??$__acrt_fenv_shift_bits@W4__acrt_fenv_abstract_control@@@@YA?AW4__acrt_fenv_abstract_control@@W40@0I@Z 1004c678 f i libucrt:_fenvutils.obj
 0001:0004b68a       ??$__acrt_fenv_shift_bits@W4__acrt_fenv_abstract_status@@@@YA?AW4__acrt_fenv_abstract_status@@W40@0I@Z 1004c68a f i libucrt:_fenvutils.obj
 0001:0004b69c       ??$__acrt_fenv_translate_bit@W4__acrt_fenv_abstract_control@@W4__acrt_fenv_machine_sse_control@@@@YA?AW4__acrt_fenv_abstract_control@@W4__acrt_fenv_machine_sse_control@@0W40@1@Z 1004c69c f i libucrt:_fenvutils.obj
 0001:0004b6b4       ??$__acrt_fenv_translate_bit@W4__acrt_fenv_abstract_control@@W4__acrt_fenv_machine_x87_control@@@@YA?AW4__acrt_fenv_abstract_control@@W4__acrt_fenv_machine_x87_control@@0W40@1@Z 1004c6b4 f i libucrt:_fenvutils.obj
 0001:0004b6cc       ??$__acrt_fenv_translate_bit@W4__acrt_fenv_abstract_status@@W4__acrt_fenv_machine_sse_status@@@@YA?AW4__acrt_fenv_abstract_status@@W4__acrt_fenv_machine_sse_status@@0W40@1@Z 1004c6cc f i libucrt:_fenvutils.obj
 0001:0004b6e1       ??$__acrt_fenv_translate_bit@W4__acrt_fenv_abstract_status@@W4__acrt_fenv_machine_x87_status@@@@YA?AW4__acrt_fenv_abstract_status@@W4__acrt_fenv_machine_x87_status@@0W40@1@Z 1004c6e1 f i libucrt:_fenvutils.obj
 0001:0004b6f6       ??$__acrt_fenv_translate_bit@W4__acrt_fenv_machine_sse_control@@W4__acrt_fenv_abstract_control@@@@YA?AW4__acrt_fenv_machine_sse_control@@W4__acrt_fenv_abstract_control@@0W40@1@Z 1004c6f6 f i libucrt:_fenvutils.obj
 0001:0004b70d       ??$__acrt_fenv_translate_bit@W4__acrt_fenv_machine_sse_status@@W4__acrt_fenv_abstract_status@@@@YA?AW4__acrt_fenv_machine_sse_status@@W4__acrt_fenv_abstract_status@@0W40@1@Z 1004c70d f i libucrt:_fenvutils.obj
 0001:0004b722       ??$__acrt_fenv_translate_bit@W4__acrt_fenv_machine_x87_control@@W4__acrt_fenv_abstract_control@@@@YA?AW4__acrt_fenv_machine_x87_control@@W4__acrt_fenv_abstract_control@@0W40@1@Z 1004c722 f i libucrt:_fenvutils.obj
 0001:0004b739       ??$__acrt_fenv_translate_bit@W4__acrt_fenv_machine_x87_status@@W4__acrt_fenv_abstract_status@@@@YA?AW4__acrt_fenv_machine_x87_status@@W4__acrt_fenv_abstract_status@@0W40@1@Z 1004c739 f i libucrt:_fenvutils.obj
 0001:0004b74e       ??$__acrt_fenv_unshift_bits@W4__acrt_fenv_abstract_control@@@@YA?AW4__acrt_fenv_abstract_control@@W40@0I@Z 1004c74e f i libucrt:_fenvutils.obj
 0001:0004b760       ??$__acrt_fenv_unshift_bits@W4__acrt_fenv_abstract_status@@@@YA?AW4__acrt_fenv_abstract_status@@W40@0I@Z 1004c760 f i libucrt:_fenvutils.obj
 0001:0004bc51       ??I@YA?AW4__acrt_fenv_abstract_control@@W40@0@Z 1004cc51 f i libucrt:_fenvutils.obj
 0001:0004bc5e       ??I@YA?AW4__acrt_fenv_abstract_status@@W40@0@Z 1004cc5e f i libucrt:_fenvutils.obj
 0001:0004bc6b       ??I@YA?AW4__acrt_fenv_machine_sse_control@@W40@0@Z 1004cc6b f i libucrt:_fenvutils.obj
 0001:0004bc78       ??I@YA?AW4__acrt_fenv_machine_sse_status@@W40@0@Z 1004cc78 f i libucrt:_fenvutils.obj
 0001:0004bc85       ??I@YA?AW4__acrt_fenv_machine_x87_control@@W40@0@Z 1004cc85 f i libucrt:_fenvutils.obj
 0001:0004bc92       ??I@YA?AW4__acrt_fenv_machine_x87_status@@W40@0@Z 1004cc92 f i libucrt:_fenvutils.obj
 0001:0004bc9f       ??U@YA?AW4__acrt_fenv_abstract_control@@W40@0@Z 1004cc9f f i libucrt:_fenvutils.obj
 0001:0004bcac       ??U@YA?AW4__acrt_fenv_abstract_status@@W40@0@Z 1004ccac f i libucrt:_fenvutils.obj
 0001:0004bcb9       ??U@YA?AW4__acrt_fenv_machine_sse_control@@W40@0@Z 1004ccb9 f i libucrt:_fenvutils.obj
 0001:0004bcc6       ??U@YA?AW4__acrt_fenv_machine_x87_control@@W40@0@Z 1004ccc6 f i libucrt:_fenvutils.obj
 0001:0004bcd3       ??_5@YAAAW4__acrt_fenv_abstract_control@@AAW40@W40@@Z 1004ccd3 f i libucrt:_fenvutils.obj
 0001:0004bce2       ??_5@YAAAW4__acrt_fenv_abstract_status@@AAW40@W40@@Z 1004cce2 f i libucrt:_fenvutils.obj
 0001:0004bcf1       ??_5@YAAAW4__acrt_fenv_machine_sse_control@@AAW40@W40@@Z 1004ccf1 f i libucrt:_fenvutils.obj
 0001:0004bd02       ??_5@YAAAW4__acrt_fenv_machine_sse_status@@AAW40@W40@@Z 1004cd02 f i libucrt:_fenvutils.obj
 0001:0004bd11       ??_5@YAAAW4__acrt_fenv_machine_x87_control@@AAW40@W40@@Z 1004cd11 f i libucrt:_fenvutils.obj
 0001:0004bd22       ??_5@YAAAW4__acrt_fenv_machine_x87_status@@AAW40@W40@@Z 1004cd22 f i libucrt:_fenvutils.obj
 0001:0004bd31       ?__acrt_fenv_shift_abstract_sse_control@@YA?AW4__acrt_fenv_abstract_control@@W41@@Z 1004cd31 f i libucrt:_fenvutils.obj
 0001:0004bd4e       ?__acrt_fenv_shift_abstract_sse_status@@YA?AW4__acrt_fenv_abstract_status@@W41@@Z 1004cd4e f i libucrt:_fenvutils.obj
 0001:0004bd5e       ?__acrt_fenv_shift_abstract_x87_control@@YA?AW4__acrt_fenv_abstract_control@@W41@@Z 1004cd5e f i libucrt:_fenvutils.obj
 0001:0004bd7b       ?__acrt_fenv_shift_abstract_x87_status@@YA?AW4__acrt_fenv_abstract_status@@W41@@Z 1004cd7b f i libucrt:_fenvutils.obj
 0001:0004bd8b       ?__acrt_fenv_unshift_abstract_sse_control@@YA?AW4__acrt_fenv_abstract_control@@W41@@Z 1004cd8b f i libucrt:_fenvutils.obj
 0001:0004bdaa       ?__acrt_fenv_unshift_abstract_sse_status@@YA?AW4__acrt_fenv_abstract_status@@W41@@Z 1004cdaa f i libucrt:_fenvutils.obj
 0001:0004bdba       ?__acrt_fenv_unshift_abstract_x87_control@@YA?AW4__acrt_fenv_abstract_control@@W41@@Z 1004cdba f i libucrt:_fenvutils.obj
 0001:0004bdd9       ?__acrt_fenv_unshift_abstract_x87_status@@YA?AW4__acrt_fenv_abstract_status@@W41@@Z 1004cdd9 f i libucrt:_fenvutils.obj
 0001:0004c33c       ___acrt_fenv_expand_round_control 1004d33c f   libucrt:_fenvutils.obj
 0001:0004c372       ___acrt_fenv_get_common_round_control 1004d372 f   libucrt:_fenvutils.obj
 0001:0004c394       ___acrt_fenv_get_control   1004d394 f   libucrt:_fenvutils.obj
 0001:0004c416       ___acrt_fenv_get_fp_status_word_from_exception_mask 1004d416 f   libucrt:_fenvutils.obj
 0001:0004c430       ___acrt_fenv_get_status    1004d430 f   libucrt:_fenvutils.obj
 0001:0004c4f2       ___acrt_fenv_set_control   1004d4f2 f   libucrt:_fenvutils.obj
 0001:0004c55c       ___acrt_fenv_set_status    1004d55c f   libucrt:_fenvutils.obj
 0001:0004c79a       ___control87_2             1004d79a f   libucrt:ieee87.obj
 0001:0004cc3e       ___fpreset_sse2            1004dc3e f   libucrt:ieee87.obj
 0001:0004ce14       __clearfp                  1004de14 f   libucrt:ieee87.obj
 0001:0004cef4       __control87                1004def4 f   libucrt:ieee87.obj
 0001:0004d1f3       __controlfp                1004e1f3 f   libucrt:ieee87.obj
 0001:0004d20d       __fpreset                  1004e20d f   libucrt:ieee87.obj
 0001:0004d2dd       __set_controlfp            1004e2dd f   libucrt:ieee87.obj
 0001:0004d355       __statusfp                 1004e355 f   libucrt:ieee87.obj
 0001:0004d3f2       __statusfp2                1004e3f2 f   libucrt:ieee87.obj
 0001:0004d457       ___acrt_initialize_sse2    1004e457 f   libucrt:mathfcns.obj
 0001:0004d467       __set_SSE2_enable          1004e467 f   libucrt:mathfcns.obj
 0001:0004d490       __CIlog10_pentium4         1004e490 f   libucrt:log10_pentium4.obj
 0001:0004d4a8       __log10_pentium4           1004e4a8     libucrt:log10_pentium4.obj
 0001:0004d740       __fFEXP                    1004e740 f   libucrt:87tran.obj
 0001:0004d797       __rtinfpopse               1004e797     libucrt:87tran.obj
 0001:0004d799       __rtinfnpopse              1004e799     libucrt:87tran.obj
 0001:0004d7a9       __fFLN                     1004e7a9     libucrt:87tran.obj
 0001:0004d85e       __rtinfpop                 1004e85e     libucrt:87tran.obj
 0001:0004d860       __rtinfnpop                1004e860     libucrt:87tran.obj
 0001:0004d870       __rtforexpinf              1004e870 f   libucrt:87tran.obj
 0001:0004d87d       __ffexpm1                  1004e87d     libucrt:87tran.obj
 0001:0004d930       __trandisp1                1004e930 f   libucrt:87disp.obj
 0001:0004d9a5       __trandisp2                1004e9a5 f   libucrt:87disp.obj
 0001:0004da3f       __rttospopde               1004ea3f     libucrt:87disp.obj
 0001:0004da44       __rttospop                 1004ea44     libucrt:87disp.obj
 0001:0004da50       __rtnospop                 1004ea50 f   libucrt:87disp.obj
 0001:0004da60       __rttosnpop                1004ea60 f   libucrt:87disp.obj
 0001:0004da61       __rtnospopde               1004ea61     libucrt:87disp.obj
 0001:0004da68       __rtzeropop                1004ea68     libucrt:87disp.obj
 0001:0004da6a       __rtzeronpop               1004ea6a     libucrt:87disp.obj
 0001:0004da70       __rtzerospop               1004ea70 f   libucrt:87disp.obj
 0001:0004da7d       __rtonepop                 1004ea7d     libucrt:87disp.obj
 0001:0004da80       __rtonenpop                1004ea80 f   libucrt:87disp.obj
 0001:0004da90       __tosnan1                  1004ea90 f   libucrt:87disp.obj
 0001:0004dac0       __nosnan2                  1004eac0 f   libucrt:87disp.obj
 0001:0004dad0       __tosnan2                  1004ead0 f   libucrt:87disp.obj
 0001:0004db00       __nan2                     1004eb00 f   libucrt:87disp.obj
 0001:0004db40       __rtindfpop                1004eb40 f   libucrt:87disp.obj
 0001:0004db42       __rtindfnpop               1004eb42     libucrt:87disp.obj
 0001:0004db53       __rttosnpopde              1004eb53     libucrt:87disp.obj
 0001:0004db60       __rtatan2inf               1004eb60 f   libucrt:87disp.obj
 0001:0004db7d       __rtchsifneg               1004eb7d     libucrt:87disp.obj
 0001:0004db84       ___setfflag                1004eb84 f   libucrt:fp_flags.obj
 0001:0004dba0       __twoToTOS                 1004eba0 f   libucrt:common.obj
 0001:0004dbb5       __load_CW                  1004ebb5 f   libucrt:common.obj
 0001:0004dbcc       __convertTOStoQNaN         1004ebcc f   libucrt:common.obj
 0001:0004dbe5       __fload_withFB             1004ebe5 f   libucrt:common.obj
 0001:0004dc28       __checkTOS_withFB          1004ec28 f   libucrt:common.obj
 0001:0004dc3e       __fast_exit                1004ec3e f   libucrt:common.obj
 0001:0004dc4b       __math_exit                1004ec4b f   libucrt:common.obj
 0001:0004dc75       __check_overflow_exit      1004ec75 f   libucrt:common.obj
 0001:0004dc89       __check_range_exit         1004ec89 f   libucrt:common.obj
 0001:0004dd30       __startTwoArgErrorHandling 1004ed30 f   libucrt:genexcep.obj
 0001:0004dd47       __startOneArgErrorHandling 1004ed47 f   libucrt:genexcep.obj
 0001:0004dd83       ___libm_error_support      1004ed83 f   libucrt:libm_error.obj
 0001:0004df9b       ___libm_setusermatherr     1004ef9b f   libucrt:libm_error.obj
 0001:0004dfc2       __ceil_default             1004efc2 f   libucrt:ceil.obj
 0001:0004e07b       __controlfp_s              1004f07b f   libucrt:contrlfp.obj
 0001:0004e0da       ___clrfp_sse2              1004f0da f   libucrt:fpctrl.obj
 0001:0004e0fb       ___ctrlfp_sse2             1004f0fb f   libucrt:fpctrl.obj
 0001:0004e136       ___fclrf_sse2              1004f136 f   libucrt:fpctrl.obj
 0001:0004e155       ___get_fpsr_sse2           1004f155 f   libucrt:fpctrl.obj
 0001:0004e173       ___set_fpsr_sse2           1004f173 f   libucrt:fpctrl.obj
 0001:0004e1e9       ___set_statfp_sse2         1004f1e9 f   libucrt:fpctrl.obj
 0001:0004e204       ___statfp_sse2             1004f204 f   libucrt:fpctrl.obj
 0001:0004e219       __clrfp                    1004f219 f   libucrt:fpctrl.obj
 0001:0004e22c       __ctrlfp                   1004f22c f   libucrt:fpctrl.obj
 0001:0004e258       __set_statfp               1004f258 f   libucrt:fpctrl.obj
 0001:0004e2b3       __statfp                   1004f2b3 f   libucrt:fpctrl.obj
 0001:0004e2c5       __d_inttype                1004f2c5 f   libucrt:powhlp.obj
 0001:0004e32f       __powhlp                   1004f32f f   libucrt:powhlp.obj
 0001:0004e45a       __87except                 1004f45a f   libucrt:87except.obj
 0001:0004e564       __frnd                     1004f564 f   libucrt:frnd.obj
 0001:0004e57a       __errcode                  1004f57a f   libucrt:fpexcept.obj
 0001:0004e5ae       __except1                  1004f5ae f   libucrt:fpexcept.obj
 0001:0004e67c       __except2                  1004f67c f   libucrt:fpexcept.obj
 0001:0004e784       __handle_exc               1004f784 f   libucrt:fpexcept.obj
 0001:0004e971       __handle_qnan2             1004f971 f   libucrt:fpexcept.obj
 0001:0004e97e       __raise_exc                1004f97e f   libucrt:fpexcept.obj
 0001:0004e9a1       __raise_exc_ex             1004f9a1 f   libucrt:fpexcept.obj
 0001:0004ec97       __raise_excf               1004fc97 f   libucrt:fpexcept.obj
 0001:0004ecba       __set_errno_from_matherr   1004fcba f   libucrt:fpexcept.obj
 0001:0004ece9       __umatherr                 1004fce9 f   libucrt:fpexcept.obj
 0001:0004ed8b       __add_exp                  1004fd8b f   libucrt:util.obj
 0001:0004edba       __decomp                   1004fdba f   libucrt:util.obj
 0001:0004ee98       __get_exp                  1004fe98 f   libucrt:util.obj
 0001:0004eeb0       __set_bexp                 1004feb0 f   libucrt:util.obj
 0001:0004eed9       __set_exp                  1004fed9 f   libucrt:util.obj
 0001:0004ef08       __sptype                   1004ff08 f   libucrt:util.obj
 0001:0004ef66       __chgsign                  1004ff66 f   libucrt:ieeemisc.obj
 0001:0004ef95       __chgsignf                 1004ff95 f   libucrt:ieeemisc.obj
 0001:0004efb8       __copysign                 1004ffb8 f   libucrt:ieeemisc.obj
 0001:0004efe2       __copysignf                1004ffe2 f   libucrt:ieeemisc.obj
 0001:0004f000       __finite                   10050000 f   libucrt:ieeemisc.obj
 0001:0004f01a       __fpclass                  1005001a f   libucrt:ieeemisc.obj
 0001:0004f0be       __isnan                    100500be f   libucrt:ieeemisc.obj
 0001:0004f0f4       __logb                     100500f4 f   libucrt:ieeemisc.obj
 0001:0004f1c5       __nextafter                100501c5 f   libucrt:ieeemisc.obj
 0001:0004f1e4       __scalb                    100501e4 f   libucrt:ieeemisc.obj
 0001:0004f1fe       _ldexp                     100501fe f   libucrt:ldexp.obj
 0001:0004f3f9       _nextafter                 100503f9 f   libucrt:nextafter.obj
 0001:0004f418       _nexttoward                10050418 f   libucrt:nexttoward.obj
 0001:0004f5eb       __d_int                    100505eb f   libucrt:_test.obj
 0001:0004f6f3       __dtest                    100506f3 f   libucrt:_test.obj
 0001:0004f757       __fd_int                   10050757 f   libucrt:_test.obj
 0001:0004f826       __fdtest                   10050826 f   libucrt:_test.obj
 0001:0004f874       __fperrraise               10050874 f   libucrt:_test.obj
 0001:0004f897       __ld_int                   10050897 f   libucrt:_test.obj
 0001:0004f8a2       __ldtest                   100508a2 f   libucrt:_test.obj
 0001:0004f8ad       ??_4@YAAAW4__acrt_fenv_abstract_status@@AAW40@W40@@Z 100508ad f i libucrt:fegetexceptflag.obj
 0001:0004f8bc       _fegetexceptflag           100508bc f   libucrt:fegetexceptflag.obj
 0001:0004f8ed       ??S@YA?AW4__acrt_fenv_abstract_status@@W40@@Z 100508ed f i libucrt:fesetexceptflag.obj
 0001:0004f8f9       _fesetexceptflag           100508f9 f   libucrt:fesetexceptflag.obj
 0001:0004f952       _fetestexcept              10050952 f   libucrt:fetestexcept.obj
 0001:0004f974       _QueryPerformanceCounter@4 10050974 f   kernel32:KERNEL32.dll
 0001:0004f97a       _GetCurrentProcessId@0     1005097a f   kernel32:KERNEL32.dll
 0001:0004f980       _GetCurrentThreadId@0      10050980 f   kernel32:KERNEL32.dll
 0001:0004f986       _GetSystemTimeAsFileTime@4 10050986 f   kernel32:KERNEL32.dll
 0001:0004f98c       _InitializeSListHead@4     1005098c f   kernel32:KERNEL32.dll
 0001:0004f992       _IsDebuggerPresent@0       10050992 f   kernel32:KERNEL32.dll
 0001:0004f998       _UnhandledExceptionFilter@4 10050998 f   kernel32:KERNEL32.dll
 0001:0004f99e       _SetUnhandledExceptionFilter@4 1005099e f   kernel32:KERNEL32.dll
 0001:0004f9a4       _GetStartupInfoW@4         100509a4 f   kernel32:KERNEL32.dll
 0001:0004f9aa       _IsProcessorFeaturePresent@4 100509aa f   kernel32:KERNEL32.dll
 0001:0004f9b0       _GetModuleHandleW@4        100509b0 f   kernel32:KERNEL32.dll
 0001:0004f9b6       _GetCurrentProcess@0       100509b6 f   kernel32:KERNEL32.dll
 0001:0004f9bc       _TerminateProcess@8        100509bc f   kernel32:KERNEL32.dll
 0001:0004f9c2       _InterlockedPushEntrySList@8 100509c2 f   kernel32:KERNEL32.dll
 0001:0004f9c8       _InterlockedFlushSList@4   100509c8 f   kernel32:KERNEL32.dll
 0001:0004f9ce       _RtlUnwind@16              100509ce f   kernel32:KERNEL32.dll
 0001:0004f9d4       _SetLastError@4            100509d4 f   kernel32:KERNEL32.dll
 0001:0004f9da       _EnterCriticalSection@4    100509da f   kernel32:KERNEL32.dll
 0001:0004f9e0       _LeaveCriticalSection@4    100509e0 f   kernel32:KERNEL32.dll
 0001:0004f9e6       _DeleteCriticalSection@4   100509e6 f   kernel32:KERNEL32.dll
 0001:0004f9ec       _InitializeCriticalSectionAndSpinCount@8 100509ec f   kernel32:KERNEL32.dll
 0001:0004f9f2       _TlsAlloc@0                100509f2 f   kernel32:KERNEL32.dll
 0001:0004f9f8       _TlsGetValue@4             100509f8 f   kernel32:KERNEL32.dll
 0001:0004f9fe       _TlsSetValue@8             100509fe f   kernel32:KERNEL32.dll
 0001:0004fa04       _TlsFree@4                 10050a04 f   kernel32:KERNEL32.dll
 0001:0004fa0a       _FreeLibrary@4             10050a0a f   kernel32:KERNEL32.dll
 0001:0004fa10       _GetProcAddress@8          10050a10 f   kernel32:KERNEL32.dll
 0001:0004fa16       _LoadLibraryExW@12         10050a16 f   kernel32:KERNEL32.dll
 0001:0004fa1c       _EncodePointer@4           10050a1c f   kernel32:KERNEL32.dll
 0001:0004fa22       _RaiseException@16         10050a22 f   kernel32:KERNEL32.dll
 0001:0004fa28       _SetFilePointerEx@20       10050a28 f   kernel32:KERNEL32.dll
 0001:0004fa2e       _GetFileType@4             10050a2e f   kernel32:KERNEL32.dll
 0001:0004fa34       _GetConsoleMode@8          10050a34 f   kernel32:KERNEL32.dll
 0001:0004fa3a       _ReadConsoleW@20           10050a3a f   kernel32:KERNEL32.dll
 0001:0004fa40       _GetConsoleCP@0            10050a40 f   kernel32:KERNEL32.dll
 0001:0004fa46       _ExitProcess@4             10050a46 f   kernel32:KERNEL32.dll
 0001:0004fa4c       _GetModuleHandleExW@12     10050a4c f   kernel32:KERNEL32.dll
 0001:0004fa52       _GetModuleFileNameW@12     10050a52 f   kernel32:KERNEL32.dll
 0001:0004fa58       _SetStdHandle@8            10050a58 f   kernel32:KERNEL32.dll
 0001:0004fa5e       _GetStdHandle@4            10050a5e f   kernel32:KERNEL32.dll
 0001:0004fa64       _HeapFree@12               10050a64 f   kernel32:KERNEL32.dll
 0001:0004fa6a       _HeapAlloc@12              10050a6a f   kernel32:KERNEL32.dll
 0001:0004fa70       _MultiByteToWideChar@24    10050a70 f   kernel32:KERNEL32.dll
 0001:0004fa76       _GetCurrentThread@0        10050a76 f   kernel32:KERNEL32.dll
 0001:0004fa7c       _GetDateFormatW@24         10050a7c f   kernel32:KERNEL32.dll
 0001:0004fa82       _GetTimeFormatW@24         10050a82 f   kernel32:KERNEL32.dll
 0001:0004fa88       _CompareStringW@24         10050a88 f   kernel32:KERNEL32.dll
 0001:0004fa8e       _LCMapStringW@24           10050a8e f   kernel32:KERNEL32.dll
 0001:0004fa94       _GetLocaleInfoW@16         10050a94 f   kernel32:KERNEL32.dll
 0001:0004fa9a       _IsValidLocale@8           10050a9a f   kernel32:KERNEL32.dll
 0001:0004faa0       _GetUserDefaultLCID@0      10050aa0 f   kernel32:KERNEL32.dll
 0001:0004faa6       _EnumSystemLocalesW@8      10050aa6 f   kernel32:KERNEL32.dll
 0001:0004faac       _SetEndOfFile@4            10050aac f   kernel32:KERNEL32.dll
 0001:0004fab2       _WideCharToMultiByte@32    10050ab2 f   kernel32:KERNEL32.dll
 0001:0004fab8       _FindClose@4               10050ab8 f   kernel32:KERNEL32.dll
 0001:0004fabe       _FindFirstFileExW@24       10050abe f   kernel32:KERNEL32.dll
 0001:0004fac4       _FindNextFileW@8           10050ac4 f   kernel32:KERNEL32.dll
 0001:0004faca       _IsValidCodePage@4         10050aca f   kernel32:KERNEL32.dll
 0001:0004fad0       _GetACP@0                  10050ad0 f   kernel32:KERNEL32.dll
 0001:0004fad6       _GetOEMCP@0                10050ad6 f   kernel32:KERNEL32.dll
 0001:0004fadc       _GetCPInfo@8               10050adc f   kernel32:KERNEL32.dll
 0001:0004fae2       _GetCommandLineA@0         10050ae2 f   kernel32:KERNEL32.dll
 0001:0004fae8       _GetCommandLineW@0         10050ae8 f   kernel32:KERNEL32.dll
 0001:0004faee       _GetEnvironmentStringsW@0  10050aee f   kernel32:KERNEL32.dll
 0001:0004faf4       _FreeEnvironmentStringsW@4 10050af4 f   kernel32:KERNEL32.dll
 0001:0004fafa       _SetEnvironmentVariableW@8 10050afa f   kernel32:KERNEL32.dll
 0001:0004fb00       _GetProcessHeap@0          10050b00 f   kernel32:KERNEL32.dll
 0001:0004fb06       _SetConsoleCtrlHandler@8   10050b06 f   kernel32:KERNEL32.dll
 0001:0004fb0c       _GetStringTypeW@16         10050b0c f   kernel32:KERNEL32.dll
 0001:0004fb12       _WriteConsoleW@20          10050b12 f   kernel32:KERNEL32.dll
 0001:0004fb18       _FlushFileBuffers@4        10050b18 f   kernel32:KERNEL32.dll
 0001:0004fb1e       _HeapSize@12               10050b1e f   kernel32:KERNEL32.dll
 0001:0004fb24       _HeapReAlloc@16            10050b24 f   kernel32:KERNEL32.dll
 0001:0004fb2a       _OutputDebugStringW@4      10050b2a f   kernel32:KERNEL32.dll
 0001:0004fb30       _DecodePointer@4           10050b30 f   kernel32:KERNEL32.dll
 0001:0004fb40       __FindPESection            10050b40 f   LIBCMT:pesect.obj
 0001:0004fb90       __IsNonwritableInCurrentImage 10050b90 f   LIBCMT:pesect.obj
 0001:0004fc50       __ValidateImageBase        10050c50 f   LIBCMT:pesect.obj
 0001:0004fc83       __EH_epilog3               10050c83 f   LIBCMT:ehprolg3.obj
 0001:0004fc98       __EH_epilog3_GS            10050c98 f   LIBCMT:ehprolg3.obj
 0001:0004fca9       __EH_epilog3_catch_GS      10050ca9 f   LIBCMT:ehprolg3.obj
 0001:0004fcba       __EH_prolog3               10050cba f   LIBCMT:ehprolg3.obj
 0001:0004fcee       __EH_prolog3_GS            10050cee f   LIBCMT:ehprolg3.obj
 0001:0004fd25       __EH_prolog3_catch         10050d25 f   LIBCMT:ehprolg3.obj
 0001:0004fd5c       __EH_prolog3_catch_GS      10050d5c f   LIBCMT:ehprolg3.obj
 0001:0004fda0       __aulldvrm                 10050da0 f   LIBCMT:ulldvrm.obj
 0001:0004fe35       ??1type_info@@UAE@XZ       10050e35 f   LIBCMT:std_type_info_static.obj
 0001:0004fe3c       ??_Gtype_info@@UAEPAXI@Z   10050e3c f i LIBCMT:std_type_info_static.obj
 0001:0004fe3c       ??_Etype_info@@UAEPAXI@Z   10050e3c f i LIBCMT:std_type_info_static.obj
 0001:0004fe5f       ??3@YAXPAXI@Z              10050e5f f   LIBCMT:delete_scalar_size.obj
 0001:0004fe70       __alloca_probe             10050e70 f   LIBCMT:chkstk.obj
 0001:0004fe70       __chkstk                   10050e70 f   LIBCMT:chkstk.obj
 0001:0004fea0       __alldiv                   10050ea0 f   LIBCMT:lldiv.obj
 0001:0004ff50       __alldvrm                  10050f50 f   LIBCMT:lldvrm.obj
 0001:00050030       __SEH_prolog4_GS           10051030 f   LIBCMT:_sehprolg4gs_.obj
 0001:00050079       __SEH_epilog4_GS           10051079 f   LIBCMT:_sehprolg4gs_.obj
 0001:00050090       __allmul                   10051090 f   LIBCMT:llmul.obj
 0001:000500d0       __aullshr                  100510d0 f   LIBCMT:ullshr.obj
 0001:000500f0       __alloca_probe_16          100510f0 f   LIBCMT:alloca16.obj
 0001:00050106       __alloca_probe_8           10051106     LIBCMT:alloca16.obj
 0001:00050120       __allshl                   10051120 f   LIBCMT:llshl.obj
 0001:00050140       __ftol2_sse                10051140 f   LIBCMT:_ftol2_.obj
 0001:00050149       __ftol2_pentium4           10051149 f   LIBCMT:_ftol2_.obj
 0001:0005015c       __ftol2_sse_excpt          1005115c f   LIBCMT:_ftol2_.obj
 0001:00050180       __ftol2                    10051180 f   LIBCMT:_ftol2_.obj
 0001:000501f5       __initialize_default_precision 100511f5 f   LIBCMT:default_precision.obj
 0001:00050216       ??3@YAXPAX@Z               10051216 f   LIBCMT:delete_scalar.obj
 0001:00050310       _memcmp                    10051310 f   libvcruntime:_memcmp_.obj
 0001:000520a0       _strrchr                   100530a0 f   libvcruntime:strrchr.obj
 0001:000521e0       _strchr                    100531e0 f   libvcruntime:strchr.obj
 0001:0005224e       ___from_strstr_to_strchr   1005324e     libvcruntime:strchr.obj
 0001:0005230b       _wcschr                    1005330b f   libvcruntime:wcschr.obj
 0001:000523e0       _memchr                    100533e0 f   libvcruntime:memchr.obj
 0002:00000000       __imp__ReadFile@20         10054000     kernel32:KERNEL32.dll
 0002:00000004       __imp__WriteFile@20        10054004     kernel32:KERNEL32.dll
 0002:00000008       __imp__SetFilePointer@16   10054008     kernel32:KERNEL32.dll
 0002:0000000c       __imp__CreateFileW@28      1005400c     kernel32:KERNEL32.dll
 0002:00000010       __imp__GetLastError@0      10054010     kernel32:KERNEL32.dll
 0002:00000014       __imp__CreateFileA@28      10054014     kernel32:KERNEL32.dll
 0002:00000018       __imp__CloseHandle@4       10054018     kernel32:KERNEL32.dll
 0002:0000001c       __imp__OutputDebugStringW@4 1005401c     kernel32:KERNEL32.dll
 0002:00000020       __imp__QueryPerformanceCounter@4 10054020     kernel32:KERNEL32.dll
 0002:00000024       __imp__GetCurrentProcessId@0 10054024     kernel32:KERNEL32.dll
 0002:00000028       __imp__GetCurrentThreadId@0 10054028     kernel32:KERNEL32.dll
 0002:0000002c       __imp__GetSystemTimeAsFileTime@4 1005402c     kernel32:KERNEL32.dll
 0002:00000030       __imp__InitializeSListHead@4 10054030     kernel32:KERNEL32.dll
 0002:00000034       __imp__IsDebuggerPresent@0 10054034     kernel32:KERNEL32.dll
 0002:00000038       __imp__UnhandledExceptionFilter@4 10054038     kernel32:KERNEL32.dll
 0002:0000003c       __imp__SetUnhandledExceptionFilter@4 1005403c     kernel32:KERNEL32.dll
 0002:00000040       __imp__GetStartupInfoW@4   10054040     kernel32:KERNEL32.dll
 0002:00000044       __imp__IsProcessorFeaturePresent@4 10054044     kernel32:KERNEL32.dll
 0002:00000048       __imp__GetModuleHandleW@4  10054048     kernel32:KERNEL32.dll
 0002:0000004c       __imp__GetCurrentProcess@0 1005404c     kernel32:KERNEL32.dll
 0002:00000050       __imp__TerminateProcess@8  10054050     kernel32:KERNEL32.dll
 0002:00000054       __imp__InterlockedPushEntrySList@8 10054054     kernel32:KERNEL32.dll
 0002:00000058       __imp__InterlockedFlushSList@4 10054058     kernel32:KERNEL32.dll
 0002:0000005c       __imp__RtlUnwind@16        1005405c     kernel32:KERNEL32.dll
 0002:00000060       __imp__SetLastError@4      10054060     kernel32:KERNEL32.dll
 0002:00000064       __imp__EnterCriticalSection@4 10054064     kernel32:KERNEL32.dll
 0002:00000068       __imp__LeaveCriticalSection@4 10054068     kernel32:KERNEL32.dll
 0002:0000006c       __imp__DeleteCriticalSection@4 1005406c     kernel32:KERNEL32.dll
 0002:00000070       __imp__InitializeCriticalSectionAndSpinCount@8 10054070     kernel32:KERNEL32.dll
 0002:00000074       __imp__TlsAlloc@0          10054074     kernel32:KERNEL32.dll
 0002:00000078       __imp__TlsGetValue@4       10054078     kernel32:KERNEL32.dll
 0002:0000007c       __imp__TlsSetValue@8       1005407c     kernel32:KERNEL32.dll
 0002:00000080       __imp__TlsFree@4           10054080     kernel32:KERNEL32.dll
 0002:00000084       __imp__FreeLibrary@4       10054084     kernel32:KERNEL32.dll
 0002:00000088       __imp__GetProcAddress@8    10054088     kernel32:KERNEL32.dll
 0002:0000008c       __imp__LoadLibraryExW@12   1005408c     kernel32:KERNEL32.dll
 0002:00000090       __imp__EncodePointer@4     10054090     kernel32:KERNEL32.dll
 0002:00000094       __imp__RaiseException@16   10054094     kernel32:KERNEL32.dll
 0002:00000098       __imp__SetFilePointerEx@20 10054098     kernel32:KERNEL32.dll
 0002:0000009c       __imp__GetFileType@4       1005409c     kernel32:KERNEL32.dll
 0002:000000a0       __imp__GetConsoleMode@8    100540a0     kernel32:KERNEL32.dll
 0002:000000a4       __imp__ReadConsoleW@20     100540a4     kernel32:KERNEL32.dll
 0002:000000a8       __imp__GetConsoleCP@0      100540a8     kernel32:KERNEL32.dll
 0002:000000ac       __imp__ExitProcess@4       100540ac     kernel32:KERNEL32.dll
 0002:000000b0       __imp__GetModuleHandleExW@12 100540b0     kernel32:KERNEL32.dll
 0002:000000b4       __imp__GetModuleFileNameW@12 100540b4     kernel32:KERNEL32.dll
 0002:000000b8       __imp__SetStdHandle@8      100540b8     kernel32:KERNEL32.dll
 0002:000000bc       __imp__GetStdHandle@4      100540bc     kernel32:KERNEL32.dll
 0002:000000c0       __imp__HeapFree@12         100540c0     kernel32:KERNEL32.dll
 0002:000000c4       __imp__HeapAlloc@12        100540c4     kernel32:KERNEL32.dll
 0002:000000c8       __imp__MultiByteToWideChar@24 100540c8     kernel32:KERNEL32.dll
 0002:000000cc       __imp__GetCurrentThread@0  100540cc     kernel32:KERNEL32.dll
 0002:000000d0       __imp__GetDateFormatW@24   100540d0     kernel32:KERNEL32.dll
 0002:000000d4       __imp__GetTimeFormatW@24   100540d4     kernel32:KERNEL32.dll
 0002:000000d8       __imp__CompareStringW@24   100540d8     kernel32:KERNEL32.dll
 0002:000000dc       __imp__LCMapStringW@24     100540dc     kernel32:KERNEL32.dll
 0002:000000e0       __imp__GetLocaleInfoW@16   100540e0     kernel32:KERNEL32.dll
 0002:000000e4       __imp__IsValidLocale@8     100540e4     kernel32:KERNEL32.dll
 0002:000000e8       __imp__GetUserDefaultLCID@0 100540e8     kernel32:KERNEL32.dll
 0002:000000ec       __imp__EnumSystemLocalesW@8 100540ec     kernel32:KERNEL32.dll
 0002:000000f0       __imp__SetEndOfFile@4      100540f0     kernel32:KERNEL32.dll
 0002:000000f4       __imp__WideCharToMultiByte@32 100540f4     kernel32:KERNEL32.dll
 0002:000000f8       __imp__FindClose@4         100540f8     kernel32:KERNEL32.dll
 0002:000000fc       __imp__FindFirstFileExW@24 100540fc     kernel32:KERNEL32.dll
 0002:00000100       __imp__FindNextFileW@8     10054100     kernel32:KERNEL32.dll
 0002:00000104       __imp__IsValidCodePage@4   10054104     kernel32:KERNEL32.dll
 0002:00000108       __imp__GetACP@0            10054108     kernel32:KERNEL32.dll
 0002:0000010c       __imp__GetOEMCP@0          1005410c     kernel32:KERNEL32.dll
 0002:00000110       __imp__GetCPInfo@8         10054110     kernel32:KERNEL32.dll
 0002:00000114       __imp__GetCommandLineA@0   10054114     kernel32:KERNEL32.dll
 0002:00000118       __imp__GetCommandLineW@0   10054118     kernel32:KERNEL32.dll
 0002:0000011c       __imp__GetEnvironmentStringsW@0 1005411c     kernel32:KERNEL32.dll
 0002:00000120       __imp__FreeEnvironmentStringsW@4 10054120     kernel32:KERNEL32.dll
 0002:00000124       __imp__SetEnvironmentVariableW@8 10054124     kernel32:KERNEL32.dll
 0002:00000128       __imp__GetProcessHeap@0    10054128     kernel32:KERNEL32.dll
 0002:0000012c       __imp__SetConsoleCtrlHandler@8 1005412c     kernel32:KERNEL32.dll
 0002:00000130       __imp__GetStringTypeW@16   10054130     kernel32:KERNEL32.dll
 0002:00000134       __imp__WriteConsoleW@20    10054134     kernel32:KERNEL32.dll
 0002:00000138       __imp__FlushFileBuffers@4  10054138     kernel32:KERNEL32.dll
 0002:0000013c       __imp__HeapSize@12         1005413c     kernel32:KERNEL32.dll
 0002:00000140       __imp__HeapReAlloc@16      10054140     kernel32:KERNEL32.dll
 0002:00000144       __imp__DecodePointer@4     10054144     kernel32:KERNEL32.dll
 0002:00000148       \177KERNEL32_NULL_THUNK_DATA 10054148     kernel32:KERNEL32.dll
 0002:0000014c       ___guard_check_icall_fptr  1005414c     LIBCMT:guard_support.obj
 0002:00000150       ___xc_a                    10054150     LIBCMT:initializers.obj
 0002:00000154       ___xc_z                    10054154     LIBCMT:initializers.obj
 0002:00000158       ___xi_a                    10054158     LIBCMT:initializers.obj
 0002:0000015c       ___acrt_stdio_initializer  1005415c     libucrt:stdio_initializer.obj
 0002:00000160       ___acrt_multibyte_initializer 10054160     libucrt:multibyte_initializer.obj
 0002:00000164       ___acrt_tran_sse2_initializer 10054164     libucrt:sse2_initializer.obj
 0002:00000168       ___xi_z                    10054168     LIBCMT:initializers.obj
 0002:0000016c       ___xp_a                    1005416c     LIBCMT:initializers.obj
 0002:00000170       ___acrt_locale_terminator  10054170     libucrt:locale_initializer.obj
 0002:00000174       ___dcrt_console_output_terminator 10054174     libucrt:console_output_initializer.obj
 0002:00000178       ___acrt_stdio_terminator   10054178     libucrt:stdio_initializer.obj
 0002:0000017c       ___xp_z                    1005417c     LIBCMT:initializers.obj
 0002:00000180       ___xt_a                    10054180     LIBCMT:initializers.obj
 0002:00000184       ___xt_z                    10054184     LIBCMT:initializers.obj
 0002:00000190       __pRawDllMain              10054190     LIBCMT:dll_dllmain.obj
 0002:00000190       __pDefaultRawDllMain       10054190     LIBCMT:dll_dllmain.obj
 0002:0000033c       ??_C@_08EHJDFFNH@__based?$CI@ 1005433c     libvcruntime:undname.obj
 0002:00000348       ??_C@_07KOLFKCDI@__cdecl@  10054348     libvcruntime:undname.obj
 0002:00000350       ??_C@_08GHMPAG@__pascal@   10054350     libvcruntime:undname.obj
 0002:0000035c       ??_C@_09IFJBGAPI@__stdcall@ 1005435c     libvcruntime:undname.obj
 0002:00000368       ??_C@_0L@NPHFGOKO@__thiscall@ 10054368     libvcruntime:undname.obj
 0002:00000374       ??_C@_0L@JMKHOMEK@__fastcall@ 10054374     libvcruntime:undname.obj
 0002:00000380       ??_C@_0N@BCKKPABJ@__vectorcall@ 10054380     libvcruntime:undname.obj
 0002:00000390       ??_C@_09HIJEGCPM@__clrcall@ 10054390     libvcruntime:undname.obj
 0002:0000039c       ??_C@_06GHPCKEAG@__eabi@   1005439c     libvcruntime:undname.obj
 0002:000003a4       ??_C@_09IOPIDJLG@__swift_1@ 100543a4     libvcruntime:undname.obj
 0002:000003b0       ??_C@_09KFNFGKHF@__swift_2@ 100543b0     libvcruntime:undname.obj
 0002:000003bc       ??_C@_07JOMMBBKO@__ptr64@  100543bc     libvcruntime:undname.obj
 0002:000003c4       ??_C@_0L@PILCLIHE@__restrict@ 100543c4     libvcruntime:undname.obj
 0002:000003d0       ??_C@_0M@GFIIJFMG@__unaligned@ 100543d0     libvcruntime:undname.obj
 0002:000003dc       ??_C@_09DHDLOLLB@restrict?$CI@ 100543dc     libvcruntime:undname.obj
 0002:000003e8       ??_C@_04NIHEBCM@?5new@     100543e8     libvcruntime:undname.obj
 0002:000003f0       ??_C@_07FPCDHGMM@?5delete@ 100543f0     libvcruntime:undname.obj
 0002:000003f8       ??_C@_01NEMOKFLO@?$DN@     100543f8     libvcruntime:undname.obj
 0002:000003fc       ??_C@_02GPIOPFAK@?$DO?$DO@ 100543fc     libvcruntime:undname.obj
 0002:00000400       ??_C@_02FODMEDOG@?$DM?$DM@ 10054400     libvcruntime:undname.obj
 0002:00000404       ??_C@_01DCLJPIOD@?$CB@     10054404     libvcruntime:undname.obj
 0002:00000408       ??_C@_02EGOFBIJA@?$DN?$DN@ 10054408     libvcruntime:undname.obj
 0002:0000040c       ??_C@_02FDNJECIE@?$CB?$DN@ 1005440c     libvcruntime:undname.obj
 0002:00000410       ??_C@_02GPECMEKF@?$FL?$FN@ 10054410     libvcruntime:undname.obj
 0002:00000414       ??_C@_08LHJFAFGD@operator@ 10054414     libvcruntime:undname.obj
 0002:00000420       ??_C@_02HBOOOICD@?9?$DO@   10054420     libvcruntime:undname.obj
 0002:00000424       ??_C@_01NBENCBCI@?$CK@     10054424     libvcruntime:undname.obj
 0002:00000428       ??_C@_02ECNGHCIF@?$CL?$CL@ 10054428     libvcruntime:undname.obj
 0002:0000042c       ??_C@_02BAABKJLB@?9?9@     1005442c     libvcruntime:undname.obj
 0002:00000430       ??_C@_01MIFGBAGJ@?$CL@     10054430     libvcruntime:undname.obj
 0002:00000434       ??_C@_01HNPIGOCE@?$CG@     10054434     libvcruntime:undname.obj
 0002:00000438       ??_C@_03MNHNFDLC@?9?$DO?$CK@ 10054438     libvcruntime:undname.obj
 0002:0000043c       ??_C@_01KMDKNFGN@?1@       1005443c     libvcruntime:undname.obj
 0002:00000440       ??_C@_01FGNFDNOH@?$CF@     10054440     libvcruntime:undname.obj
 0002:00000444       ??_C@_01MNNFJEPP@?$DM@     10054444     libvcruntime:undname.obj
 0002:00000448       ??_C@_02EHCHHCKH@?$DM?$DN@ 10054448     libvcruntime:undname.obj
 0002:0000044c       ??_C@_01PPODPGHN@?$DO@     1005444c     libvcruntime:undname.obj
 0002:00000450       ??_C@_02EEKDKGMJ@?$DO?$DN@ 10054450     libvcruntime:undname.obj
 0002:00000454       ??_C@_01IHBHIGKO@?0@       10054454     libvcruntime:undname.obj
 0002:00000458       ??_C@_02HCKGKOFO@?$CI?$CJ@ 10054458     libvcruntime:undname.obj
 0002:0000045c       ??_C@_01PJKLJHI@?$HO@      1005445c     libvcruntime:undname.obj
 0002:00000460       ??_C@_01JKBOJNNK@?$FO@     10054460     libvcruntime:undname.obj
 0002:00000464       ??_C@_01DNKMNLPK@?$HM@     10054464     libvcruntime:undname.obj
 0002:00000468       ??_C@_02PPKAJPJL@?$CG?$CG@ 10054468     libvcruntime:undname.obj
 0002:0000046c       ??_C@_02NONPIBCD@?$HM?$HM@ 1005446c     libvcruntime:undname.obj
 0002:00000470       ??_C@_02FPIMKNGF@?$CK?$DN@ 10054470     libvcruntime:undname.obj
 0002:00000474       ??_C@_02FOEOMHFC@?$CL?$DN@ 10054474     libvcruntime:undname.obj
 0002:00000478       ??_C@_02FKMDLLOA@?9?$DN@   10054478     libvcruntime:undname.obj
 0002:0000047c       ??_C@_02FJEHGPIO@?1?$DN@   1005447c     libvcruntime:undname.obj
 0002:00000480       ??_C@_02FENAOKFI@?$CF?$DN@ 10054480     libvcruntime:undname.obj
 0002:00000484       ??_C@_03IKFCCPFF@?$DO?$DO?$DN@ 10054484     libvcruntime:undname.obj
 0002:00000488       ??_C@_03CDNPDDLA@?$DM?$DM?$DN@ 10054488     libvcruntime:undname.obj
 0002:0000048c       ??_C@_02FGJGFEAB@?$CG?$DN@ 1005448c     libvcruntime:undname.obj
 0002:00000490       ??_C@_02DHLNPPGH@?$HM?$DN@ 10054490     libvcruntime:undname.obj
 0002:00000494       ??_C@_02MHEGNOJ@?$FO?$DN@  10054494     libvcruntime:undname.obj
 0002:00000498       ??_C@_09IFPLHPGF@?$GAvftable?8@ 10054498     libvcruntime:undname.obj
 0002:000004a4       ??_C@_09BLBHBJP@?$GAvbtable?8@ 100544a4     libvcruntime:undname.obj
 0002:000004b0       ??_C@_07FEEIOKP@?$GAvcall?8@ 100544b0     libvcruntime:undname.obj
 0002:000004b8       ??_C@_08LLFFHHDJ@?$GAtypeof?8@ 100544b8     libvcruntime:undname.obj
 0002:000004c4       ??_C@_0BF@KDPPACIK@?$GAlocal?5static?5guard?8@ 100544c4     libvcruntime:undname.obj
 0002:000004dc       ??_C@_08OBABFOLI@?$GAstring?8@ 100544dc     libvcruntime:undname.obj
 0002:000004e8       ??_C@_0BD@JDLKDPAB@?$GAvbase?5destructor?8@ 100544e8     libvcruntime:undname.obj
 0002:000004fc       ??_C@_0BN@DEGPLNFK@?$GAvector?5deleting?5destructor?8@ 100544fc     libvcruntime:undname.obj
 0002:0000051c       ??_C@_0BO@OBMKPJIG@?$GAdefault?5constructor?5closure?8@ 1005451c     libvcruntime:undname.obj
 0002:0000053c       ??_C@_0BN@IMDCHIKM@?$GAscalar?5deleting?5destructor?8@ 1005453c     libvcruntime:undname.obj
 0002:0000055c       ??_C@_0BO@PFGOCPJJ@?$GAvector?5constructor?5iterator?8@ 1005455c     libvcruntime:undname.obj
 0002:0000057c       ??_C@_0BN@LFPFMEDL@?$GAvector?5destructor?5iterator?8@ 1005457c     libvcruntime:undname.obj
 0002:0000059c       ??_C@_0CE@IKBNEHA@?$GAvector?5vbase?5constructor?5itera@ 1005459c     libvcruntime:undname.obj
 0002:000005c0       ??_C@_0BL@NILFHHPC@?$GAvirtual?5displacement?5map?8@ 100545c0     libvcruntime:undname.obj
 0002:000005dc       ??_C@_0CB@JONCMFFK@?$GAeh?5vector?5constructor?5iterator@ 100545dc     libvcruntime:undname.obj
 0002:00000600       ??_C@_0CA@GCEOPDGL@?$GAeh?5vector?5destructor?5iterator?8@ 10054600     libvcruntime:undname.obj
 0002:00000620       ??_C@_0CH@OOJPLCPH@?$GAeh?5vector?5vbase?5constructor?5it@ 10054620     libvcruntime:undname.obj
 0002:00000648       ??_C@_0BL@LLKPOHJI@?$GAcopy?5constructor?5closure?8@ 10054648     libvcruntime:undname.obj
 0002:00000664       ??_C@_0BA@KBCDOMBN@?$GAudt?5returning?8@ 10054664     libvcruntime:undname.obj
 0002:00000674       ??_C@_03KLGMFNMG@?$GAEH@   10054674     libvcruntime:undname.obj
 0002:00000678       ??_C@_05KHLCHHI@?$GARTTI@  10054678     libvcruntime:undname.obj
 0002:00000680       ??_C@_0BA@KKLDJDLB@?$GAlocal?5vftable?8@ 10054680     libvcruntime:undname.obj
 0002:00000690       ??_C@_0CE@IIHCMGGL@?$GAlocal?5vftable?5constructor?5clos@ 10054690     libvcruntime:undname.obj
 0002:000006b4       ??_C@_06FHBGPFGH@?5new?$FL?$FN@ 100546b4     libvcruntime:undname.obj
 0002:000006bc       ??_C@_09LBNFPBCA@?5delete?$FL?$FN@ 100546bc     libvcruntime:undname.obj
 0002:000006c8       ??_C@_0P@HJKNJFNN@?$GAomni?5callsig?8@ 100546c8     libvcruntime:undname.obj
 0002:000006d8       ??_C@_0BL@CNOONJFP@?$GAplacement?5delete?5closure?8@ 100546d8     libvcruntime:undname.obj
 0002:000006f4       ??_C@_0BN@CKNJLHMB@?$GAplacement?5delete?$FL?$FN?5closure?8@ 100546f4     libvcruntime:undname.obj
 0002:00000714       ??_C@_0CG@CFDHKGGD@?$GAmanaged?5vector?5constructor?5ite@ 10054714     libvcruntime:undname.obj
 0002:0000073c       ??_C@_0CF@IMGKMJNO@?$GAmanaged?5vector?5destructor?5iter@ 1005473c     libvcruntime:undname.obj
 0002:00000764       ??_C@_0CG@HLDDJMAG@?$GAeh?5vector?5copy?5constructor?5ite@ 10054764     libvcruntime:undname.obj
 0002:0000078c       ??_C@_0CM@FCBBDIGB@?$GAeh?5vector?5vbase?5copy?5construct@ 1005478c     libvcruntime:undname.obj
 0002:000007b8       ??_C@_0BL@CLIPGLGB@?$GAdynamic?5initializer?5for?5?8@ 100547b8     libvcruntime:undname.obj
 0002:000007d4       ??_C@_0CB@PDBIFEP@?$GAdynamic?5atexit?5destructor?5for?5@ 100547d4     libvcruntime:undname.obj
 0002:000007f8       ??_C@_0CD@CGAJBKEJ@?$GAvector?5copy?5constructor?5iterat@ 100547f8     libvcruntime:undname.obj
 0002:0000081c       ??_C@_0CJ@GJELGAMM@?$GAvector?5vbase?5copy?5constructor?5@ 1005481c     libvcruntime:undname.obj
 0002:00000848       ??_C@_0CL@FGIJHLCE@?$GAmanaged?5vector?5copy?5constructo@ 10054848     libvcruntime:undname.obj
 0002:00000874       ??_C@_0BM@PMGGMLDN@?$GAlocal?5static?5thread?5guard?8@ 10054874     libvcruntime:undname.obj
 0002:00000890       ??_C@_0N@BDNMDMOL@operator?5?$CC?$CC?5@ 10054890     libvcruntime:undname.obj
 0002:000008a0       ??_C@_0BC@GGEBGALA@operator?5co_await@ 100548a0     libvcruntime:undname.obj
 0002:000008b4       ??_C@_0BC@DAFEJGAK@?5Type?5Descriptor?8@ 100548b4     libvcruntime:undname.obj
 0002:000008c8       ??_C@_0BM@LDKODKLH@?5Base?5Class?5Descriptor?5at?5?$CI@ 100548c8     libvcruntime:undname.obj
 0002:000008e4       ??_C@_0BD@LGICGFMM@?5Base?5Class?5Array?8@ 100548e4     libvcruntime:undname.obj
 0002:000008f8       ??_C@_0BN@MECKDCOJ@?5Class?5Hierarchy?5Descriptor?8@ 100548f8     libvcruntime:undname.obj
 0002:00000918       ??_C@_0BK@CFCOFLF@?5Complete?5Object?5Locator?8@ 10054918     libvcruntime:undname.obj
 0002:00000934       ??_C@_04HEJADOOB@CV?3?5@   10054934     libvcruntime:undname.obj
 0002:0000093c       ??_C@_02MOLJINC@?3?3@      1005493c     libvcruntime:undname.obj
 0002:00000940       ??_C@_0BE@JAEOCHPE@template?9parameter?9@ 10054940     libvcruntime:undname.obj
 0002:00000954       ??_C@_0O@KHGCOMHP@generic?9type?9@ 10054954     libvcruntime:undname.obj
 0002:00000964       ??_C@_01NLNLIGKH@?$GA@     10054964     libvcruntime:undname.obj
 0002:00000968       ??_C@_01GEODFPGF@?8@       10054968     libvcruntime:undname.obj
 0002:0000096c       ??_C@_0BG@JNJLAMPM@?$GAanonymous?5namespace?8@ 1005496c     libvcruntime:undname.obj
 0002:00000984       ??_C@_02OHHJMEON@?8?8@     10054984     libvcruntime:undname.obj
 0002:00000988       ??_C@_0BN@IBLMMFAP@?$GAnon?9type?9template?9parameter@ 10054988     libvcruntime:undname.obj
 0002:000009a8       ??_C@_04GKJNKENE@void@     100549a8     libvcruntime:undname.obj
 0002:000009b0       ??_C@_0BE@EODMJLIF@?$GAtemplate?9parameter@ 100549b0     libvcruntime:undname.obj
 0002:000009c4       ??_C@_03KHICJKCI@?4?4?4@   100549c4     libvcruntime:undname.obj
 0002:000009c8       ??_C@_04HIBGFPH@NULL@      100549c8     libvcruntime:undname.obj
 0002:000009d0       ??_C@_02DPKJAMEF@?$CFd@    100549d0     libvcruntime:undname.obj
 0002:000009d4       ??_C@_0BK@IHCCFNEL@?$GAtemplate?9type?9parameter?9@ 100549d4     libvcruntime:undname.obj
 0002:000009f0       ??_C@_0BK@OFCNNNKO@?$GAgeneric?9class?9parameter?9@ 100549f0     libvcruntime:undname.obj
 0002:00000a0c       ??_C@_0BL@NGJBLFIL@?$GAgeneric?9method?9parameter?9@ 10054a0c     libvcruntime:undname.obj
 0002:00000a28       ??_C@_03OPGICMGF@?$HN?8?5@ 10054a28     libvcruntime:undname.obj
 0002:00000a2c       ??_C@_02IGFCGPIL@?$HN?8@   10054a2c     libvcruntime:undname.obj
 0002:00000a30       ??_C@_01CLKCMJKC@?5@       10054a30     libvcruntime:undname.obj
 0002:00000a34       ??_C@_0N@CBHHHENL@?$GAvtordispex?$HL@ 10054a34     libvcruntime:undname.obj
 0002:00000a44       ??_C@_0L@GHPFDFH@?$GAvtordisp?$HL@ 10054a44     libvcruntime:undname.obj
 0002:00000a50       ??_C@_0L@HNGCOGAE@?$GAadjustor?$HL@ 10054a50     libvcruntime:undname.obj
 0002:00000a5c       ??_C@_0CB@KJDOOODE@?$GAlocal?5static?5destructor?5helper@ 10054a5c     libvcruntime:undname.obj
 0002:00000a80       ??_C@_0DB@ILEFOCIJ@?$GAtemplate?5static?5data?5member?5co@ 10054a80     libvcruntime:undname.obj
 0002:00000ab4       ??_C@_0DA@HGFJFBBE@?$GAtemplate?5static?5data?5member?5de@ 10054ab4     libvcruntime:undname.obj
 0002:00000ae4       ??_C@_07PGOEDBHP@static?5@ 10054ae4     libvcruntime:undname.obj
 0002:00000aec       ??_C@_08NIEOINHE@virtual?5@ 10054aec     libvcruntime:undname.obj
 0002:00000af8       ??_C@_09LAPHOOG@private?3?5@ 10054af8     libvcruntime:undname.obj
 0002:00000b04       ??_C@_0M@GAIFPFIP@protected?3?5@ 10054b04     libvcruntime:undname.obj
 0002:00000b10       ??_C@_08GPDDCMKI@public?3?5@ 10054b10     libvcruntime:undname.obj
 0002:00000b1c       ??_C@_08KJLFOPNE@?$FLthunk?$FN?3@ 10054b1c     libvcruntime:undname.obj
 0002:00000b28       ??_C@_0M@DHNBOJMP@extern?5?$CCC?$CC?5@ 10054b28     libvcruntime:undname.obj
 0002:00000b34       ??_C@_02KCKGHPCA@?$CJ?5@   10054b34     libvcruntime:undname.obj
 0002:00000b38       ??_C@_05CIHEBHNO@char?5@   10054b38     libvcruntime:undname.obj
 0002:00000b40       ??_C@_06EHJMALKF@short?5@  10054b40     libvcruntime:undname.obj
 0002:00000b48       ??_C@_04LAHKHJMA@int?5@    10054b48     libvcruntime:undname.obj
 0002:00000b50       ??_C@_05CJIMAING@long?5@   10054b50     libvcruntime:undname.obj
 0002:00000b58       ??_C@_09EBBEKKIH@unsigned?5@ 10054b58     libvcruntime:undname.obj
 0002:00000b64       ??_C@_05BEFAKPML@void?5@   10054b64     libvcruntime:undname.obj
 0002:00000b6c       ??_C@_08PABEKFH@volatile@  10054b6c     libvcruntime:undname.obj
 0002:00000b78       ??_C@_0BA@LKIJLKPP@std?3?3nullptr_t?5@ 10054b78     libvcruntime:undname.obj
 0002:00000b88       ??_C@_0P@GCOCNKDM@std?3?3nullptr_t@ 10054b88     libvcruntime:undname.obj
 0002:00000b98       ??_C@_0L@EGPHHEKN@?$DMellipsis?$DO@ 10054b98     libvcruntime:undname.obj
 0002:00000ba4       ??_C@_04EENFHACM@?0?4?4?4@ 10054ba4     libvcruntime:undname.obj
 0002:00000bac       ??_C@_0M@ELJOJFFH@?0?$DMellipsis?$DO@ 10054bac     libvcruntime:undname.obj
 0002:00000bb8       ??_C@_09DNHFEOJI@?5noexcept@ 10054bb8     libvcruntime:undname.obj
 0002:00000bc4       ??_C@_03PBJBJNON@cpu@      10054bc4     libvcruntime:undname.obj
 0002:00000bc8       ??_C@_03DCBBJBAA@amp@      10054bc8     libvcruntime:undname.obj
 0002:00000bcc       ??_C@_02KEGNLNML@?0?5@     10054bcc     libvcruntime:undname.obj
 0002:00000bd0       ??_C@_04ENMBGAPA@char@     10054bd0     libvcruntime:undname.obj
 0002:00000bd8       ??_C@_05BFKKPKCG@short@    10054bd8     libvcruntime:undname.obj
 0002:00000be0       ??_C@_03JBIPMCLC@int@      10054be0     libvcruntime:undname.obj
 0002:00000be4       ??_C@_04GOKPGOLB@long@     10054be4     libvcruntime:undname.obj
 0002:00000bec       ??_C@_05KNFBNCOH@float@    10054bec     libvcruntime:undname.obj
 0002:00000bf4       ??_C@_06BNJCAIGJ@double@   10054bf4     libvcruntime:undname.obj
 0002:00000bfc       ??_C@_04DDKJGDCM@bool@     10054bfc     libvcruntime:undname.obj
 0002:00000c04       ??_C@_06EBGKOKIG@__int8@   10054c04     libvcruntime:undname.obj
 0002:00000c0c       ??_C@_07ICFHOGAF@__int16@  10054c0c     libvcruntime:undname.obj
 0002:00000c14       ??_C@_07OFLPPHGP@__int32@  10054c14     libvcruntime:undname.obj
 0002:00000c1c       ??_C@_07LFCOJCAC@__int64@  10054c1c     libvcruntime:undname.obj
 0002:00000c24       ??_C@_08GAHOLHEO@__int128@ 10054c24     libvcruntime:undname.obj
 0002:00000c30       ??_C@_09EEKGDCPH@?$DMunknown?$DO@ 10054c30     libvcruntime:undname.obj
 0002:00000c3c       ??_C@_08HBIPOFJB@char16_t@ 10054c3c     libvcruntime:undname.obj
 0002:00000c48       ??_C@_08IECNCBKG@char32_t@ 10054c48     libvcruntime:undname.obj
 0002:00000c54       ??_C@_07CLGGIAMF@wchar_t@  10054c54     libvcruntime:undname.obj
 0002:00000c5c       ??_C@_06GCICPBLB@__w64?5@  10054c5c     libvcruntime:undname.obj
 0002:00000c64       ??_C@_07NFANNNEC@UNKNOWN@  10054c64     libvcruntime:undname.obj
 0002:00000c6c       ??_C@_07EDHNAJHC@signed?5@ 10054c6c     libvcruntime:undname.obj
 0002:00000c74       ??_C@_05BNCCCJPP@const@    10054c74     libvcruntime:undname.obj
 0002:00000c7c       ??_C@_09EFNPDFFP@?5volatile@ 10054c7c     libvcruntime:undname.obj
 0002:00000c88       ??_C@_0P@GCIFDJCJ@?$GAunknown?5ecsu?8@ 10054c88     libvcruntime:undname.obj
 0002:00000c98       ??_C@_06MOJHIBMG@union?5@  10054c98     libvcruntime:undname.obj
 0002:00000ca0       ??_C@_07DIBCDNGL@struct?5@ 10054ca0     libvcruntime:undname.obj
 0002:00000ca8       ??_C@_06LJBABKPM@class?5@  10054ca8     libvcruntime:undname.obj
 0002:00000cb0       ??_C@_08KOFANOFK@coclass?5@ 10054cb0     libvcruntime:undname.obj
 0002:00000cbc       ??_C@_0N@DLIEFKNA@cointerface?5@ 10054cbc     libvcruntime:undname.obj
 0002:00000ccc       ??_C@_05LJGMCFOG@enum?5@   10054ccc     libvcruntime:undname.obj
 0002:00000cd4       ??_C@_09GAIEOBLP@volatile?5@ 10054cd4     libvcruntime:undname.obj
 0002:00000ce0       ??_C@_06LIJLOJAG@const?5@  10054ce0     libvcruntime:undname.obj
 0002:00000ce8       ??_C@_02KJPKDIBN@?$CG?5@   10054ce8     libvcruntime:undname.obj
 0002:00000cec       ??_C@_03PCKGMOPB@?$CG?$CG?5@ 10054cec     libvcruntime:undname.obj
 0002:00000cf0       ??_C@_0M@EALIELKG@cli?3?3array?$DM@ 10054cf0     libvcruntime:undname.obj
 0002:00000cfc       ??_C@_0O@GKABPPIF@cli?3?3pin_ptr?$DM@ 10054cfc     libvcruntime:undname.obj
 0002:00000d0c       ??_C@_02GOGNNPBN@?$CJ?$FL@ 10054d0c     libvcruntime:undname.obj
 0002:00000d10       ??_C@_06EEGAIFAK@?$HLflat?$HN@ 10054d10     libvcruntime:undname.obj
 0002:00000d18       ??_C@_05JIBOFOHK@?$HLfor?5@ 10054d18     libvcruntime:undname.obj
 0002:00000d20       ??_C@_02MDINNEEG@s?5@      10054d20     libvcruntime:undname.obj
 0002:00000d28       ??_7DNameNode@@6B@         10054d28     libvcruntime:undname.obj
 0002:00000d38       ??_7charNode@@6B@          10054d38     libvcruntime:undname.obj
 0002:00000d48       ??_7pcharNode@@6B@         10054d48     libvcruntime:undname.obj
 0002:00000d58       ??_7pDNameNode@@6B@        10054d58     libvcruntime:undname.obj
 0002:00000d68       ??_7DNameStatusNode@@6B@   10054d68     libvcruntime:undname.obj
 0002:00000d78       ??_7pairNode@@6B@          10054d78     libvcruntime:undname.obj
 0002:00000d84       ??_C@_04OKOHEJBO@?5?$DP?$DP?5@ 10054d84     libvcruntime:undname.obj
 0002:00000d8c       ?nodes@?1??make@DNameStatusNode@@SAPBV2@W4DNameStatus@@@Z@4QBV2@B 10054d8c     libvcruntime:undname.obj
 0002:00000dc8       ??_C@_1DM@KHCHBNEB@?$AAa?$AAp?$AAi?$AA?9?$AAm?$AAs?$AA?9?$AAw?$AAi?$AAn?$AA?9?$AAc?$AAo?$AAr?$AAe@ 10054dc8     libvcruntime:winapi_downlevel.obj
 0002:00000e04       ??_C@_1DK@LPPGFMPP@?$AAa?$AAp?$AAi?$AA?9?$AAm?$AAs?$AA?9?$AAw?$AAi?$AAn?$AA?9?$AAc?$AAo?$AAr?$AAe@ 10054e04     libvcruntime:winapi_downlevel.obj
 0002:00000e40       ??_C@_1BC@GDMECMAK@?$AAk?$AAe?$AAr?$AAn?$AAe?$AAl?$AA3?$AA2@ 10054e40     libvcruntime:winapi_downlevel.obj
 0002:00000e54       ??_C@_1BA@PFFKHIOG@?$AAa?$AAp?$AAi?$AA?9?$AAm?$AAs?$AA?9@ 10054e54     libvcruntime:winapi_downlevel.obj
 0002:00000e64       ??_C@_1BA@IAIFMGEF@?$AAe?$AAx?$AAt?$AA?9?$AAm?$AAs?$AA?9@ 10054e64     libvcruntime:winapi_downlevel.obj
 0002:00000e7c       ??_C@_08KNHFBNJ@FlsAlloc@  10054e7c     libvcruntime:winapi_downlevel.obj
 0002:00000e90       ??_C@_07PEJMOBNF@FlsFree@  10054e90     libvcruntime:winapi_downlevel.obj
 0002:00000ea0       ??_C@_0M@GDNOONDI@FlsGetValue@ 10054ea0     libvcruntime:winapi_downlevel.obj
 0002:00000eb4       ??_C@_0M@JCPCPOEF@FlsSetValue@ 10054eb4     libvcruntime:winapi_downlevel.obj
 0002:00000ec8       ??_C@_0BM@HCFOFFN@InitializeCriticalSectionEx@ 10054ec8     libvcruntime:winapi_downlevel.obj
 0002:00000ee8       ??_7exception@std@@6B@     10054ee8     libvcruntime:frame.obj
 0002:00000ef0       ??_C@_0BC@EOODALEL@Unknown?5exception@ 10054ef0     libvcruntime:frame.obj
 0002:00000f08       ??_7bad_exception@std@@6B@ 10054f08     libvcruntime:frame.obj
 0002:00000f10       ??_C@_0O@DPKOEFFH@bad?5exception@ 10054f10     libvcruntime:frame.obj
 0002:00000f20       __pDestructExceptionObject 10054f20     libvcruntime:ehhelpers.obj
 0002:00000f48       _standard_lookup_table     10054f48     libucrt:output.obj
 0002:00000fa8       _format_validation_lookup_table 10054fa8     libucrt:output.obj
 0002:00001004       ??_C@_1O@CEDCILHN@?$AA?$CI?$AAn?$AAu?$AAl?$AAl?$AA?$CJ?$AA?$AA@ 10055004     libucrt:output.obj
 0002:00001014       ??_C@_06OJHGLDPL@?$CInull?$CJ?$AA@ 10055014     libucrt:output.obj
 0002:00001180       ??_C@_0EA@FCLIIPNN@Visual?5C?$CL?$CL?5CRT?3?5Not?5enough?5memor@ 10055180     libucrt:strerror.obj
 0002:000011c0       ??_C@_1IA@JENHHBGD@?$AAV?$AAi?$AAs?$AAu?$AAa?$AAl?$AA?5?$AAC?$AA?$CL?$AA?$CL?$AA?5?$AAC?$AAR?$AAT?$AA?3?$AA?5?$AAN?$AAo?$AAt?$AA?5?$AAe?$AAn?$AAo?$AAu?$AAg?$AAh?$AA?5?$AAm?$AAe?$AAm?$AAo?$AAr@ 100551c0     libucrt:strerror.obj
 0002:00001240       ___acrt_exception_action_table 10055240     libucrt:exception_filter.obj
 0002:000012d0       ___acrt_signal_action_table_count 100552d0     libucrt:exception_filter.obj
 0002:000012d4       ___acrt_signal_action_table_size 100552d4     libucrt:exception_filter.obj
 0002:000012d8       ___acrt_signal_action_first_fpe_index 100552d8     libucrt:exception_filter.obj
 0002:000012dc       ___acrt_signal_action_fpe_count 100552dc     libucrt:exception_filter.obj
 0002:000012e0       _RtlNtPathSeperatorString  100552e0     libucrt:exit.obj
 0002:000012e8       ??_C@_13FPGAJAPJ@?$AA?2?$AA?$AA@ 100552e8     libucrt:exit.obj
 0002:000012ec       _RtlDosPathSeperatorsString 100552ec     libucrt:exit.obj
 0002:000012f4       ??_C@_15MNCACJLI@?$AA?2?$AA?1?$AA?$AA@ 100552f4     libucrt:exit.obj
 0002:000012fc       _RtlAlternateDosPathSeperatorString 100552fc     libucrt:exit.obj
 0002:00001304       ??_C@_13CGOKJPIL@?$AA?1?$AA?$AA@ 10055304     libucrt:exit.obj
 0002:00001308       ??_C@_1BI@BGOHAHKC@?$AAm?$AAs?$AAc?$AAo?$AAr?$AAe?$AAe?$AA?4?$AAd?$AAl?$AAl?$AA?$AA@ 10055308     libucrt:exit.obj
 0002:00001320       ??_C@_0P@MIGLKIOC@CorExitProcess?$AA@ 10055320     libucrt:exit.obj
 0002:000013b0       __Fenv1                    100553b0     libucrt:atox.obj
 0002:00001408       ??_C@_1EA@JGEFHKEI@?$AAa?$AAp?$AAi?$AA?9?$AAm?$AAs?$AA?9?$AAw?$AAi?$AAn?$AA?9?$AAc?$AAo?$AAr?$AAe?$AA?9?$AAd?$AAa?$AAt?$AAe?$AAt?$AAi?$AAm?$AAe?$AA?9?$AAl?$AA1?$AA?9?$AA1?$AA?9?$AA1?$AA?$AA@ 10055408     libucrt:winapi_thunks.obj
 0002:00001448       ??_C@_1DM@KHCHBNEB@?$AAa?$AAp?$AAi?$AA?9?$AAm?$AAs?$AA?9?$AAw?$AAi?$AAn?$AA?9?$AAc?$AAo?$AAr?$AAe?$AA?9?$AAf?$AAi?$AAb?$AAe?$AAr?$AAs?$AA?9?$AAl?$AA1?$AA?9?$AA1?$AA?9?$AA1?$AA?$AA@ 10055448     libucrt:winapi_thunks.obj
 0002:00001484       ??_C@_1DI@IJCEHOCB@?$AAa?$AAp?$AAi?$AA?9?$AAm?$AAs?$AA?9?$AAw?$AAi?$AAn?$AA?9?$AAc?$AAo?$AAr?$AAe?$AA?9?$AAf?$AAi?$AAl?$AAe?$AA?9?$AAl?$AA1?$AA?9?$AA2?$AA?9?$AA2?$AA?$AA@ 10055484     libucrt:winapi_thunks.obj
 0002:000014c0       ??_C@_1EI@MPIAOHOC@?$AAa?$AAp?$AAi?$AA?9?$AAm?$AAs?$AA?9?$AAw?$AAi?$AAn?$AA?9?$AAc?$AAo?$AAr?$AAe?$AA?9?$AAl?$AAo?$AAc?$AAa?$AAl?$AAi?$AAz?$AAa?$AAt?$AAi?$AAo?$AAn?$AA?9?$AAl?$AA1?$AA?9@ 100554c0     libucrt:winapi_thunks.obj
 0002:00001508       ??_C@_1FK@FPHCKFIE@?$AAa?$AAp?$AAi?$AA?9?$AAm?$AAs?$AA?9?$AAw?$AAi?$AAn?$AA?9?$AAc?$AAo?$AAr?$AAe?$AA?9?$AAl?$AAo?$AAc?$AAa?$AAl?$AAi?$AAz?$AAa?$AAt?$AAi?$AAo?$AAn?$AA?9?$AAo?$AAb?$AAs@ 10055508     libucrt:winapi_thunks.obj
 0002:00001568       ??_C@_1EM@DILCGIIO@?$AAa?$AAp?$AAi?$AA?9?$AAm?$AAs?$AA?9?$AAw?$AAi?$AAn?$AA?9?$AAc?$AAo?$AAr?$AAe?$AA?9?$AAp?$AAr?$AAo?$AAc?$AAe?$AAs?$AAs?$AAt?$AAh?$AAr?$AAe?$AAa?$AAd?$AAs?$AA?9?$AAl@ 10055568     libucrt:winapi_thunks.obj
 0002:000015b4       ??_C@_1DM@LNCGDDPN@?$AAa?$AAp?$AAi?$AA?9?$AAm?$AAs?$AA?9?$AAw?$AAi?$AAn?$AA?9?$AAc?$AAo?$AAr?$AAe?$AA?9?$AAs?$AAt?$AAr?$AAi?$AAn?$AAg?$AA?9?$AAl?$AA1?$AA?9?$AA1?$AA?9?$AA0?$AA?$AA@ 100555b4     libucrt:winapi_thunks.obj
 0002:000015f0       ??_C@_1DK@LPPGFMPP@?$AAa?$AAp?$AAi?$AA?9?$AAm?$AAs?$AA?9?$AAw?$AAi?$AAn?$AA?9?$AAc?$AAo?$AAr?$AAe?$AA?9?$AAs?$AAy?$AAn?$AAc?$AAh?$AA?9?$AAl?$AA1?$AA?9?$AA2?$AA?9?$AA0?$AA?$AA@ 100555f0     libucrt:winapi_thunks.obj
 0002:0000162c       ??_C@_1DO@FPAPJEMD@?$AAa?$AAp?$AAi?$AA?9?$AAm?$AAs?$AA?9?$AAw?$AAi?$AAn?$AA?9?$AAc?$AAo?$AAr?$AAe?$AA?9?$AAs?$AAy?$AAs?$AAi?$AAn?$AAf?$AAo?$AA?9?$AAl?$AA1?$AA?9?$AA2?$AA?9?$AA1?$AA?$AA@ 1005562c     libucrt:winapi_thunks.obj
 0002:0000166c       ??_C@_1DK@NDHNAHIO@?$AAa?$AAp?$AAi?$AA?9?$AAm?$AAs?$AA?9?$AAw?$AAi?$AAn?$AA?9?$AAc?$AAo?$AAr?$AAe?$AA?9?$AAw?$AAi?$AAn?$AAr?$AAt?$AA?9?$AAl?$AA1?$AA?9?$AA1?$AA?9?$AA0?$AA?$AA@ 1005566c     libucrt:winapi_thunks.obj
 0002:000016a8       ??_C@_1DM@KGHDGBCM@?$AAa?$AAp?$AAi?$AA?9?$AAm?$AAs?$AA?9?$AAw?$AAi?$AAn?$AA?9?$AAc?$AAo?$AAr?$AAe?$AA?9?$AAx?$AAs?$AAt?$AAa?$AAt?$AAe?$AA?9?$AAl?$AA2?$AA?9?$AA1?$AA?9?$AA0?$AA?$AA@ 100556a8     libucrt:winapi_thunks.obj
 0002:000016e8       ??_C@_1EO@IJIOEFOH@?$AAa?$AAp?$AAi?$AA?9?$AAm?$AAs?$AA?9?$AAw?$AAi?$AAn?$AA?9?$AAr?$AAt?$AAc?$AAo?$AAr?$AAe?$AA?9?$AAn?$AAt?$AAu?$AAs?$AAe?$AAr?$AA?9?$AAw?$AAi?$AAn?$AAd?$AAo?$AAw?$AA?9@ 100556e8     libucrt:winapi_thunks.obj
 0002:00001738       ??_C@_1FG@HHGEKANL@?$AAa?$AAp?$AAi?$AA?9?$AAm?$AAs?$AA?9?$AAw?$AAi?$AAn?$AA?9?$AAs?$AAe?$AAc?$AAu?$AAr?$AAi?$AAt?$AAy?$AA?9?$AAs?$AAy?$AAs?$AAt?$AAe?$AAm?$AAf?$AAu?$AAn?$AAc?$AAt?$AAi@ 10055738     libucrt:winapi_thunks.obj
 0002:00001790       ??_C@_1EG@DBIOJECG@?$AAe?$AAx?$AAt?$AA?9?$AAm?$AAs?$AA?9?$AAw?$AAi?$AAn?$AA?9?$AAn?$AAt?$AAu?$AAs?$AAe?$AAr?$AA?9?$AAd?$AAi?$AAa?$AAl?$AAo?$AAg?$AAb?$AAo?$AAx?$AA?9?$AAl?$AA1?$AA?9?$AA1@ 10055790     libucrt:winapi_thunks.obj
 0002:000017d8       ??_C@_1EO@FIHMJCLF@?$AAe?$AAx?$AAt?$AA?9?$AAm?$AAs?$AA?9?$AAw?$AAi?$AAn?$AA?9?$AAn?$AAt?$AAu?$AAs?$AAe?$AAr?$AA?9?$AAw?$AAi?$AAn?$AAd?$AAo?$AAw?$AAs?$AAt?$AAa?$AAt?$AAi?$AAo?$AAn?$AA?9@ 100557d8     libucrt:winapi_thunks.obj
 0002:00001828       ??_C@_1BC@DNHGCMLG@?$AAa?$AAd?$AAv?$AAa?$AAp?$AAi?$AA3?$AA2?$AA?$AA@ 10055828     libucrt:winapi_thunks.obj
 0002:0000183c       ??_C@_1BC@GDMECMAK@?$AAk?$AAe?$AAr?$AAn?$AAe?$AAl?$AA3?$AA2?$AA?$AA@ 1005583c     libucrt:winapi_thunks.obj
 0002:00001850       ??_C@_1M@OAIMIKLP@?$AAn?$AAt?$AAd?$AAl?$AAl?$AA?$AA@ 10055850     libucrt:winapi_thunks.obj
 0002:00001860       ??_C@_1EG@DPGNFKGC@?$AAa?$AAp?$AAi?$AA?9?$AAm?$AAs?$AA?9?$AAw?$AAi?$AAn?$AA?9?$AAa?$AAp?$AAp?$AAm?$AAo?$AAd?$AAe?$AAl?$AA?9?$AAr?$AAu?$AAn?$AAt?$AAi?$AAm?$AAe?$AA?9?$AAl?$AA1?$AA?9?$AA1@ 10055860     libucrt:winapi_thunks.obj
 0002:000018a8       ??_C@_1O@BCCLBEOE@?$AAu?$AAs?$AAe?$AAr?$AA3?$AA2?$AA?$AA@ 100558a8     libucrt:winapi_thunks.obj
 0002:000018b8       ??_C@_1BA@PFFKHIOG@?$AAa?$AAp?$AAi?$AA?9?$AAm?$AAs?$AA?9?$AA?$AA@ 100558b8     libucrt:winapi_thunks.obj
 0002:000018c8       ??_C@_1BA@IAIFMGEF@?$AAe?$AAx?$AAt?$AA?9?$AAm?$AAs?$AA?9?$AA?$AA@ 100558c8     libucrt:winapi_thunks.obj
 0002:000018dc       ??_C@_0BA@FHFNEAED@AreFileApisANSI?$AA@ 100558dc     libucrt:winapi_thunks.obj
 0002:000018f4       ??_C@_0BA@IHGNDAEB@CompareStringEx?$AA@ 100558f4     libucrt:winapi_thunks.obj
 0002:0000190c       ??_C@_0BE@LJANKFHF@EnumSystemLocalesEx?$AA@ 1005590c     libucrt:winapi_thunks.obj
 0002:00001928       ??_C@_08KNHFBNJ@FlsAlloc?$AA@ 10055928     libucrt:winapi_thunks.obj
 0002:0000193c       ??_C@_07PEJMOBNF@FlsFree?$AA@ 1005593c     libucrt:winapi_thunks.obj
 0002:0000194c       ??_C@_0M@GDNOONDI@FlsGetValue?$AA@ 1005594c     libucrt:winapi_thunks.obj
 0002:00001960       ??_C@_0M@JCPCPOEF@FlsSetValue?$AA@ 10055960     libucrt:winapi_thunks.obj
 0002:00001974       ??_C@_0BA@HNOPNCHB@GetActiveWindow?$AA@ 10055974     libucrt:winapi_thunks.obj
 0002:0000198c       ??_C@_0BA@EPCJIIPD@GetDateFormatEx?$AA@ 1005598c     libucrt:winapi_thunks.obj
 0002:000019a4       ??_C@_0BJ@DIBIJBHA@GetEnabledXStateFeatures?$AA@ 100559a4     libucrt:winapi_thunks.obj
 0002:000019c8       ??_C@_0BD@HHGDFDBJ@GetLastActivePopup?$AA@ 100559c8     libucrt:winapi_thunks.obj
 0002:000019e4       ??_C@_0BA@ONOKGCMP@GetLocaleInfoEx?$AA@ 100559e4     libucrt:winapi_thunks.obj
 0002:000019fc       ??_C@_0BI@DFKBFLJE@GetProcessWindowStation?$AA@ 100559fc     libucrt:winapi_thunks.obj
 0002:00001a18       ??_C@_0BP@FPNJPEJC@GetSystemTimePreciseAsFileTime?$AA@ 10055a18     libucrt:winapi_thunks.obj
 0002:00001a40       ??_C@_0BA@CIJJKCJJ@GetTimeFormatEx?$AA@ 10055a40     libucrt:winapi_thunks.obj
 0002:00001a58       ??_C@_0BJ@PBCCBIPI@GetUserDefaultLocaleName?$AA@ 10055a58     libucrt:winapi_thunks.obj
 0002:00001a7c       ??_C@_0BK@DEKFELLI@GetUserObjectInformationW?$AA@ 10055a7c     libucrt:winapi_thunks.obj
 0002:00001aa0       ??_C@_0BG@IKLDMBLM@GetXStateFeaturesMask?$AA@ 10055aa0     libucrt:winapi_thunks.obj
 0002:00001ac0       ??_C@_0BM@HCFOFFN@InitializeCriticalSectionEx?$AA@ 10055ac0     libucrt:winapi_thunks.obj
 0002:00001ae4       ??_C@_0BC@CELBKLLA@IsValidLocaleName?$AA@ 10055ae4     libucrt:winapi_thunks.obj
 0002:00001b00       ??_C@_0O@KKBNKAPF@LCMapStringEx?$AA@ 10055b00     libucrt:winapi_thunks.obj
 0002:00001b18       ??_C@_0BB@CDHDDLLP@LCIDToLocaleName?$AA@ 10055b18     libucrt:winapi_thunks.obj
 0002:00001b34       ??_C@_0BB@HBDEELFH@LocaleNameToLCID?$AA@ 10055b34     libucrt:winapi_thunks.obj
 0002:00001b50       ??_C@_0BE@KINNKFDA@LocateXStateFeature?$AA@ 10055b50     libucrt:winapi_thunks.obj
 0002:00001b6c       ??_C@_0M@CHKKJDAI@MessageBoxA?$AA@ 10055b6c     libucrt:winapi_thunks.obj
 0002:00001b80       ??_C@_0M@DLDCCGNP@MessageBoxW?$AA@ 10055b80     libucrt:winapi_thunks.obj
 0002:00001b90       ??_C@_0N@PPOMPGGK@RoInitialize?$AA@ 10055b90     libucrt:winapi_thunks.obj
 0002:00001ba4       ??_C@_0P@LLFHBIJD@RoUninitialize?$AA@ 10055ba4     libucrt:winapi_thunks.obj
 0002:00001bb8       ??_C@_0CF@OJOFEIGO@AppPolicyGetProcessTerminationMe@ 10055bb8     libucrt:winapi_thunks.obj
 0002:00001be4       ??_C@_0CF@NNDFDCOC@AppPolicyGetThreadInitialization@ 10055be4     libucrt:winapi_thunks.obj
 0002:00001c10       ??_C@_0CE@OICFMIKE@AppPolicyGetShowDeveloperDiagnos@ 10055c10     libucrt:winapi_thunks.obj
 0002:00001c38       ??_C@_0BL@ODDJNEDA@AppPolicyGetWindowingModel?$AA@ 10055c38     libucrt:winapi_thunks.obj
 0002:00001c5c       ??_C@_0BI@BKLFFAPO@SetThreadStackGuarantee?$AA@ 10055c5c     libucrt:winapi_thunks.obj
 0002:00001c7c       ??_C@_0BC@JEAENNKH@SystemFunction036?$AA@ 10055c7c     libucrt:winapi_thunks.obj
 0002:00001d10       ___lc_category             10055d10     libucrt:wsetlocale.obj
 0002:00001d58       ??_C@_1O@GIFLHMA@?$AAL?$AAC?$AA_?$AAA?$AAL?$AAL?$AA?$AA@ 10055d58     libucrt:wsetlocale.obj
 0002:00001d68       ??_C@_1BG@PPOMIBNJ@?$AAL?$AAC?$AA_?$AAC?$AAO?$AAL?$AAL?$AAA?$AAT?$AAE?$AA?$AA@ 10055d68     libucrt:wsetlocale.obj
 0002:00001d80       ??_C@_1BC@FFJGAPJM@?$AAL?$AAC?$AA_?$AAC?$AAT?$AAY?$AAP?$AAE?$AA?$AA@ 10055d80     libucrt:wsetlocale.obj
 0002:00001d94       ??_C@_1BI@PCKFNJFB@?$AAL?$AAC?$AA_?$AAM?$AAO?$AAN?$AAE?$AAT?$AAA?$AAR?$AAY?$AA?$AA@ 10055d94     libucrt:wsetlocale.obj
 0002:00001dac       ??_C@_1BG@ENIEDKID@?$AAL?$AAC?$AA_?$AAN?$AAU?$AAM?$AAE?$AAR?$AAI?$AAC?$AA?$AA@ 10055dac     libucrt:wsetlocale.obj
 0002:00001dc4       ??_C@_1BA@HAAOMIIG@?$AAL?$AAC?$AA_?$AAT?$AAI?$AAM?$AAE?$AA?$AA@ 10055dc4     libucrt:wsetlocale.obj
 0002:00001dd4       ??_C@_15NBPDDFIP@?$AA?$DN?$AA?$DL?$AA?$AA@ 10055dd4     libucrt:wsetlocale.obj
 0002:00001ddc       ??_C@_13PJJBFPED@?$AA?$DL?$AA?$AA@ 10055ddc     libucrt:wsetlocale.obj
 0002:00001de0       ??_C@_13NMPKAAJP@?$AA?$DN?$AA?$AA@ 10055de0     libucrt:wsetlocale.obj
 0002:00001de4       ??_C@_13FHBKNHDA@?$AAC?$AA?$AA@ 10055de4     libucrt:wsetlocale.obj
 0002:00001de8       ??_C@_19MPDNHKDG@?$AAu?$AAt?$AAf?$AA8?$AA?$AA@ 10055de8     libucrt:wsetlocale.obj
 0002:00001df4       ??_C@_1M@FPEIIFAM@?$AAu?$AAt?$AAf?$AA?9?$AA8?$AA?$AA@ 10055df4     libucrt:wsetlocale.obj
 0002:00001e00       ??_C@_17MBJJLFDM@?$AA_?$AA?4?$AA?0?$AA?$AA@ 10055e00     libucrt:wsetlocale.obj
 0002:00001e08       ??_C@_13ENNFDPBH@?$AA_?$AA?$AA@ 10055e08     libucrt:wsetlocale.obj
 0002:00001e0c       ??_C@_13JOFGPIOO@?$AA?4?$AA?$AA@ 10055e0c     libucrt:wsetlocale.obj
 0002:00001e10       ___lc_time_c               10055e10     libucrt:nlsdata.obj
 0002:00001f74       ??_C@_03KOEHGMDN@Sun?$AA@  10055f74     libucrt:nlsdata.obj
 0002:00001f78       ??_C@_03PDAGKDH@Mon?$AA@   10055f78     libucrt:nlsdata.obj
 0002:00001f7c       ??_C@_03NAGEINEP@Tue?$AA@  10055f7c     libucrt:nlsdata.obj
 0002:00001f80       ??_C@_03MHOMLAJA@Wed?$AA@  10055f80     libucrt:nlsdata.obj
 0002:00001f84       ??_C@_03IOFIKPDN@Thu?$AA@  10055f84     libucrt:nlsdata.obj
 0002:00001f88       ??_C@_03IDIOELNC@Fri?$AA@  10055f88     libucrt:nlsdata.obj
 0002:00001f8c       ??_C@_03FEFJNEK@Sat?$AA@   10055f8c     libucrt:nlsdata.obj
 0002:00001f90       ??_C@_06OOPIFAJ@Sunday?$AA@ 10055f90     libucrt:nlsdata.obj
 0002:00001f98       ??_C@_06JLEDEDGH@Monday?$AA@ 10055f98     libucrt:nlsdata.obj
 0002:00001fa0       ??_C@_07BAAGCFCM@Tuesday?$AA@ 10055fa0     libucrt:nlsdata.obj
 0002:00001fa8       ??_C@_09DLIGFAKA@Wednesday?$AA@ 10055fa8     libucrt:nlsdata.obj
 0002:00001fb4       ??_C@_08HACCIKIA@Thursday?$AA@ 10055fb4     libucrt:nlsdata.obj
 0002:00001fc0       ??_C@_06JECMNKMI@Friday?$AA@ 10055fc0     libucrt:nlsdata.obj
 0002:00001fc8       ??_C@_08INBOOONO@Saturday?$AA@ 10055fc8     libucrt:nlsdata.obj
 0002:00001fd4       ??_C@_03JIHJHPIE@Jan?$AA@  10055fd4     libucrt:nlsdata.obj
 0002:00001fd8       ??_C@_03HJBDCHOM@Feb?$AA@  10055fd8     libucrt:nlsdata.obj
 0002:00001fdc       ??_C@_03ODNJBKGA@Mar?$AA@  10055fdc     libucrt:nlsdata.obj
 0002:00001fe0       ??_C@_03LEOLGMJP@Apr?$AA@  10055fe0     libucrt:nlsdata.obj
 0002:00001fe4       ??_C@_03CNMDKL@May?$AA@    10055fe4     libucrt:nlsdata.obj
 0002:00001fe8       ??_C@_03IDFGHECI@Jun?$AA@  10055fe8     libucrt:nlsdata.obj
 0002:00001fec       ??_C@_03LBGABGKK@Jul?$AA@  10055fec     libucrt:nlsdata.obj
 0002:00001ff0       ??_C@_03IFJFEIGA@Aug?$AA@  10055ff0     libucrt:nlsdata.obj
 0002:00001ff4       ??_C@_03GGCAPAJC@Sep?$AA@  10055ff4     libucrt:nlsdata.obj
 0002:00001ff8       ??_C@_03BMAOKBAD@Oct?$AA@  10055ff8     libucrt:nlsdata.obj
 0002:00001ffc       ??_C@_03JPJOFNIA@Nov?$AA@  10055ffc     libucrt:nlsdata.obj
 0002:00002000       ??_C@_03MKABNOCG@Dec?$AA@  10056000     libucrt:nlsdata.obj
 0002:00002004       ??_C@_07CGJPFGJA@January?$AA@ 10056004     libucrt:nlsdata.obj
 0002:0000200c       ??_C@_08GNJGEPFN@February?$AA@ 1005600c     libucrt:nlsdata.obj
 0002:00002018       ??_C@_05HPCKOFNC@March?$AA@ 10056018     libucrt:nlsdata.obj
 0002:00002020       ??_C@_05DMJDNLEJ@April?$AA@ 10056020     libucrt:nlsdata.obj
 0002:00002028       ??_C@_04CNLMGBGM@June?$AA@ 10056028     libucrt:nlsdata.obj
 0002:00002030       ??_C@_04MIEPOIFP@July?$AA@ 10056030     libucrt:nlsdata.obj
 0002:00002038       ??_C@_06LBBHFDDG@August?$AA@ 10056038     libucrt:nlsdata.obj
 0002:00002040       ??_C@_09BHHEALKD@September?$AA@ 10056040     libucrt:nlsdata.obj
 0002:0000204c       ??_C@_07JJNFCEND@October?$AA@ 1005604c     libucrt:nlsdata.obj
 0002:00002054       ??_C@_08HCHEGEOA@November?$AA@ 10056054     libucrt:nlsdata.obj
 0002:00002060       ??_C@_08EDHMEBNP@December?$AA@ 10056060     libucrt:nlsdata.obj
 0002:0000206c       ??_C@_02DEDBPAFC@AM?$AA@   1005606c     libucrt:nlsdata.obj
 0002:00002070       ??_C@_02CJNFDJBF@PM?$AA@   10056070     libucrt:nlsdata.obj
 0002:00002074       ??_C@_08BPBNCDIB@MM?1dd?1yy?$AA@ 10056074     libucrt:nlsdata.obj
 0002:00002080       ??_C@_0BE@CKGJFCPC@dddd?0?5MMMM?5dd?0?5yyyy?$AA@ 10056080     libucrt:nlsdata.obj
 0002:00002094       ??_C@_08JCCMCCIL@HH?3mm?3ss?$AA@ 10056094     libucrt:nlsdata.obj
 0002:000020a0       ??_C@_17MBGCMIPB@?$AAS?$AAu?$AAn?$AA?$AA@ 100560a0     libucrt:nlsdata.obj
 0002:000020a8       ??_C@_17KBOMKBF@?$AAM?$AAo?$AAn?$AA?$AA@ 100560a8     libucrt:nlsdata.obj
 0002:000020b0       ??_C@_17BMKGEGOJ@?$AAT?$AAu?$AAe?$AA?$AA@ 100560b0     libucrt:nlsdata.obj
 0002:000020b8       ??_C@_17CJEDCEPE@?$AAW?$AAe?$AAd?$AA?$AA@ 100560b8     libucrt:nlsdata.obj
 0002:000020c0       ??_C@_17PDPHAADD@?$AAT?$AAh?$AAu?$AA?$AA@ 100560c0     libucrt:nlsdata.obj
 0002:000020c8       ??_C@_17HFOLPPLP@?$AAF?$AAr?$AAi?$AA?$AA@ 100560c8     libucrt:nlsdata.obj
 0002:000020d0       ??_C@_17GGIBDPIH@?$AAS?$AAa?$AAt?$AA?$AA@ 100560d0     libucrt:nlsdata.obj
 0002:000020d8       ??_C@_1O@IHNHDHPB@?$AAS?$AAu?$AAn?$AAd?$AAa?$AAy?$AA?$AA@ 100560d8     libucrt:nlsdata.obj
 0002:000020e8       ??_C@_1O@MMNBFLIA@?$AAM?$AAo?$AAn?$AAd?$AAa?$AAy?$AA?$AA@ 100560e8     libucrt:nlsdata.obj
 0002:000020f8       ??_C@_1BA@ENFBFFEK@?$AAT?$AAu?$AAe?$AAs?$AAd?$AAa?$AAy?$AA?$AA@ 100560f8     libucrt:nlsdata.obj
 0002:00002108       ??_C@_1BE@EBOGMDOH@?$AAW?$AAe?$AAd?$AAn?$AAe?$AAs?$AAd?$AAa?$AAy?$AA?$AA@ 10056108     libucrt:nlsdata.obj
 0002:0000211c       ??_C@_1BC@HHMNLIHE@?$AAT?$AAh?$AAu?$AAr?$AAs?$AAd?$AAa?$AAy?$AA?$AA@ 1005611c     libucrt:nlsdata.obj
 0002:00002130       ??_C@_1O@PDICJHAG@?$AAF?$AAr?$AAi?$AAd?$AAa?$AAy?$AA?$AA@ 10056130     libucrt:nlsdata.obj
 0002:00002140       ??_C@_1BC@ENMNNPAJ@?$AAS?$AAa?$AAt?$AAu?$AAr?$AAd?$AAa?$AAy?$AA?$AA@ 10056140     libucrt:nlsdata.obj
 0002:00002154       ??_C@_17DKNBKCHM@?$AAJ?$AAa?$AAn?$AA?$AA@ 10056154     libucrt:nlsdata.obj
 0002:0000215c       ??_C@_17LMDJEKJN@?$AAF?$AAe?$AAb?$AA?$AA@ 1005615c     libucrt:nlsdata.obj
 0002:00002164       ??_C@_17CKNLEDEC@?$AAM?$AAa?$AAr?$AA?$AA@ 10056164     libucrt:nlsdata.obj
 0002:0000216c       ??_C@_17LFPOIHDD@?$AAA?$AAp?$AAr?$AA?$AA@ 1005616c     libucrt:nlsdata.obj
 0002:00002174       ??_C@_17PNNKMEED@?$AAM?$AAa?$AAy?$AA?$AA@ 10056174     libucrt:nlsdata.obj
 0002:0000217c       ??_C@_17KCJGOCPB@?$AAJ?$AAu?$AAn?$AA?$AA@ 1005617c     libucrt:nlsdata.obj
 0002:00002184       ??_C@_17IJPCKHK@?$AAJ?$AAu?$AAl?$AA?$AA@ 10056184     libucrt:nlsdata.obj
 0002:0000218c       ??_C@_17ICPELBCN@?$AAA?$AAu?$AAg?$AA?$AA@ 1005618c     libucrt:nlsdata.obj
 0002:00002194       ??_C@_17HCHCOKMG@?$AAS?$AAe?$AAp?$AA?$AA@ 10056194     libucrt:nlsdata.obj
 0002:0000219c       ??_C@_17FNLKOI@?$AAO?$AAc?$AAt?$AA?$AA@ 1005619c     libucrt:nlsdata.obj
 0002:000021a4       ??_C@_17BBDMLCIG@?$AAN?$AAo?$AAv?$AA?$AA@ 100561a4     libucrt:nlsdata.obj
 0002:000021ac       ??_C@_17EGKACKIF@?$AAD?$AAe?$AAc?$AA?$AA@ 100561ac     libucrt:nlsdata.obj
 0002:000021b4       ??_C@_1BA@EFMEIEBA@?$AAJ?$AAa?$AAn?$AAu?$AAa?$AAr?$AAy?$AA?$AA@ 100561b4     libucrt:nlsdata.obj
 0002:000021c4       ??_C@_1BC@JGDDFFAM@?$AAF?$AAe?$AAb?$AAr?$AAu?$AAa?$AAr?$AAy?$AA?$AA@ 100561c4     libucrt:nlsdata.obj
 0002:000021d8       ??_C@_1M@IKEENEDF@?$AAM?$AAa?$AAr?$AAc?$AAh?$AA?$AA@ 100561d8     libucrt:nlsdata.obj
 0002:000021e4       ??_C@_1M@GJNLMHFD@?$AAA?$AAp?$AAr?$AAi?$AAl?$AA?$AA@ 100561e4     libucrt:nlsdata.obj
 0002:000021f0       ??_C@_19EPFLPGAP@?$AAJ?$AAu?$AAn?$AAe?$AA?$AA@ 100561f0     libucrt:nlsdata.obj
 0002:000021fc       ??_C@_19BIFMLPCD@?$AAJ?$AAu?$AAl?$AAy?$AA?$AA@ 100561fc     libucrt:nlsdata.obj
 0002:00002208       ??_C@_1O@PAHLKOAC@?$AAA?$AAu?$AAg?$AAu?$AAs?$AAt?$AA?$AA@ 10056208     libucrt:nlsdata.obj
 0002:00002218       ??_C@_1BE@DKAAMBJL@?$AAS?$AAe?$AAp?$AAt?$AAe?$AAm?$AAb?$AAe?$AAr?$AA?$AA@ 10056218     libucrt:nlsdata.obj
 0002:0000222c       ??_C@_1BA@EPANDLNG@?$AAO?$AAc?$AAt?$AAo?$AAb?$AAe?$AAr?$AA?$AA@ 1005622c     libucrt:nlsdata.obj
 0002:0000223c       ??_C@_1BC@BGLIFPF@?$AAN?$AAo?$AAv?$AAe?$AAm?$AAb?$AAe?$AAr?$AA?$AA@ 1005623c     libucrt:nlsdata.obj
 0002:00002250       ??_C@_1BC@FEMKIFH@?$AAD?$AAe?$AAc?$AAe?$AAm?$AAb?$AAe?$AAr?$AA?$AA@ 10056250     libucrt:nlsdata.obj
 0002:00002264       ??_C@_15ODEHAHHF@?$AAA?$AAM?$AA?$AA@ 10056264     libucrt:nlsdata.obj
 0002:0000226c       ??_C@_15CLMNNGEL@?$AAP?$AAM?$AA?$AA@ 1005626c     libucrt:nlsdata.obj
 0002:00002274       ??_C@_1BC@IEBCMHCM@?$AAM?$AAM?$AA?1?$AAd?$AAd?$AA?1?$AAy?$AAy?$AA?$AA@ 10056274     libucrt:nlsdata.obj
 0002:00002288       ??_C@_1CI@KNAKOEBC@?$AAd?$AAd?$AAd?$AAd?$AA?0?$AA?5?$AAM?$AAM?$AAM?$AAM?$AA?5?$AAd?$AAd?$AA?0?$AA?5?$AAy?$AAy?$AAy?$AAy?$AA?$AA@ 10056288     libucrt:nlsdata.obj
 0002:000022b0       ??_C@_1BC@GDGBMEMK@?$AAH?$AAH?$AA?3?$AAm?$AAm?$AA?3?$AAs?$AAs?$AA?$AA@ 100562b0     libucrt:nlsdata.obj
 0002:000022c4       ??_C@_1M@BMHNFIME@?$AAe?$AAn?$AA?9?$AAU?$AAS?$AA?$AA@ 100562c4     libucrt:nlsdata.obj
 0002:000022d0       ??_C@_03OEIAHPBN@INF?$AA@  100562d0     libucrt:cvt.obj
 0002:000022d4       ??_C@_03OJHLLCGB@inf?$AA@  100562d4     libucrt:cvt.obj
 0002:000022d8       ??_C@_03LKNCIKJB@NAN?$AA@  100562d8     libucrt:cvt.obj
 0002:000022dc       ??_C@_03LHCJEHON@nan?$AA@  100562dc     libucrt:cvt.obj
 0002:000022e0       ??_C@_09OFJJIMPC@NAN?$CISNAN?$CJ?$AA@ 100562e0     libucrt:cvt.obj
 0002:000022ec       ??_C@_09IPFBKMDL@nan?$CIsnan?$CJ?$AA@ 100562ec     libucrt:cvt.obj
 0002:000022f8       ??_C@_08IKHNHAJ@NAN?$CIIND?$CJ?$AA@ 100562f8     libucrt:cvt.obj
 0002:00002304       ??_C@_08OFCDMILK@nan?$CIind?$CJ?$AA@ 10056304     libucrt:cvt.obj
 0002:00002310       ??_C@_05KLBDPFGC@e?$CL000?$AA@ 10056310     libucrt:cvt.obj
 0002:00002318       __sys_errlist              10056318     libucrt:syserr.obj
 0002:000023c8       ??_C@_08INEPGKHH@No?5error?$AA@ 100563c8     libucrt:syserr.obj
 0002:000023d4       ??_C@_0BI@BJFCGOHL@Operation?5not?5permitted?$AA@ 100563d4     libucrt:syserr.obj
 0002:000023ec       ??_C@_0BK@FMDHKPNF@No?5such?5file?5or?5directory?$AA@ 100563ec     libucrt:syserr.obj
 0002:00002408       ??_C@_0BA@FKIAIBGA@No?5such?5process?$AA@ 10056408     libucrt:syserr.obj
 0002:00002418       ??_C@_0BK@FJBOAFDK@Interrupted?5function?5call?$AA@ 10056418     libucrt:syserr.obj
 0002:00002434       ??_C@_0BD@KKNFOBBD@Input?1output?5error?$AA@ 10056434     libucrt:syserr.obj
 0002:00002448       ??_C@_0BK@DPKMCKJ@No?5such?5device?5or?5address?$AA@ 10056448     libucrt:syserr.obj
 0002:00002464       ??_C@_0BC@MFFGCDFL@Arg?5list?5too?5long?$AA@ 10056464     libucrt:syserr.obj
 0002:00002478       ??_C@_0BC@HKPNECK@Exec?5format?5error?$AA@ 10056478     libucrt:syserr.obj
 0002:0000248c       ??_C@_0BE@NFGDDCEF@Bad?5file?5descriptor?$AA@ 1005648c     libucrt:syserr.obj
 0002:000024a0       ??_C@_0BD@LOHELEP@No?5child?5processes?$AA@ 100564a0     libucrt:syserr.obj
 0002:000024b4       ??_C@_0CB@EPFKGNAK@Resource?5temporarily?5unavailable@ 100564b4     libucrt:syserr.obj
 0002:000024d8       ??_C@_0BB@IMDKMPFB@Not?5enough?5space?$AA@ 100564d8     libucrt:syserr.obj
 0002:000024ec       ??_C@_0BC@HFNFNKAI@Permission?5denied?$AA@ 100564ec     libucrt:syserr.obj
 0002:00002500       ??_C@_0M@LOEHLCJD@Bad?5address?$AA@ 10056500     libucrt:syserr.obj
 0002:0000250c       ??_C@_0O@NIPGCINC@Unknown?5error?$AA@ 1005650c     libucrt:syserr.obj
 0002:0000251c       ??_C@_0BA@BIBLIOEK@Resource?5device?$AA@ 1005651c     libucrt:syserr.obj
 0002:0000252c       ??_C@_0M@NAAJNNGH@File?5exists?$AA@ 1005652c     libucrt:syserr.obj
 0002:00002538       ??_C@_0O@OAMDNOCP@Improper?5link?$AA@ 10056538     libucrt:syserr.obj
 0002:00002548       ??_C@_0P@NLEIANHE@No?5such?5device?$AA@ 10056548     libucrt:syserr.obj
 0002:00002558       ??_C@_0BA@CJBACOOL@Not?5a?5directory?$AA@ 10056558     libucrt:syserr.obj
 0002:00002568       ??_C@_0P@NDHGCGKE@Is?5a?5directory?$AA@ 10056568     libucrt:syserr.obj
 0002:00002578       ??_C@_0BB@HMGGCEBG@Invalid?5argument?$AA@ 10056578     libucrt:syserr.obj
 0002:0000258c       ??_C@_0BO@IIFBODJE@Too?5many?5open?5files?5in?5system?$AA@ 1005658c     libucrt:syserr.obj
 0002:000025ac       ??_C@_0BE@INBJMKGG@Too?5many?5open?5files?$AA@ 100565ac     libucrt:syserr.obj
 0002:000025c0       ??_C@_0CE@ONOKNLPF@Inappropriate?5I?1O?5control?5operat@ 100565c0     libucrt:syserr.obj
 0002:000025e4       ??_C@_0P@LFMMIPAE@File?5too?5large?$AA@ 100565e4     libucrt:syserr.obj
 0002:000025f4       ??_C@_0BI@FEALHKLD@No?5space?5left?5on?5device?$AA@ 100565f4     libucrt:syserr.obj
 0002:0000260c       ??_C@_0N@FEHLOILP@Invalid?5seek?$AA@ 1005660c     libucrt:syserr.obj
 0002:0000261c       ??_C@_0BG@DDBFNKBH@Read?9only?5file?5system?$AA@ 1005661c     libucrt:syserr.obj
 0002:00002634       ??_C@_0P@PKCJJLLM@Too?5many?5links?$AA@ 10056634     libucrt:syserr.obj
 0002:00002644       ??_C@_0M@LHEPIIOM@Broken?5pipe?$AA@ 10056644     libucrt:syserr.obj
 0002:00002650       ??_C@_0N@MMJPGLJK@Domain?5error?$AA@ 10056650     libucrt:syserr.obj
 0002:00002660       ??_C@_0BB@FCBJFCAJ@Result?5too?5large?$AA@ 10056660     libucrt:syserr.obj
 0002:00002674       ??_C@_0BK@JAEBMJJM@Resource?5deadlock?5avoided?$AA@ 10056674     libucrt:syserr.obj
 0002:00002690       ??_C@_0BC@BEDIHIDK@Filename?5too?5long?$AA@ 10056690     libucrt:syserr.obj
 0002:000026a4       ??_C@_0BD@CLHBCGPB@No?5locks?5available?$AA@ 100566a4     libucrt:syserr.obj
 0002:000026b8       ??_C@_0BJ@IHEHINLI@Function?5not?5implemented?$AA@ 100566b8     libucrt:syserr.obj
 0002:000026d4       ??_C@_0BE@ICMCHPHH@Directory?5not?5empty?$AA@ 100566d4     libucrt:syserr.obj
 0002:000026e8       ??_C@_0BG@KLEAJEFJ@Illegal?5byte?5sequence?$AA@ 100566e8     libucrt:syserr.obj
 0002:00002700       __sys_nerr                 10056700     libucrt:syserr.obj
 0002:00002708       ___newctype                10056708     libucrt:ctype.obj
 0002:00002a08       ___newclmap                10056a08     libucrt:ctype.obj
 0002:00002b88       ___newcumap                10056b88     libucrt:ctype.obj
 0002:00002d08       __wctype                   10056d08     libucrt:ctype.obj
 0002:00002f0c       ?ccs@?1???$__acrt_stdio_parse_mode@D@@YA?AU__acrt_stdio_stream_mode@@QBD@Z@4QBDB 10056f0c     libucrt:openfile.obj
 0002:00002f10       ?utf8_encoding@?1???$__acrt_stdio_parse_mode@D@@YA?AU__acrt_stdio_stream_mode@@QBD@Z@4QBDB 10056f10     libucrt:openfile.obj
 0002:00002f18       ?utf16_encoding@?1???$__acrt_stdio_parse_mode@D@@YA?AU__acrt_stdio_stream_mode@@QBD@Z@4QBDB 10056f18     libucrt:openfile.obj
 0002:00002f20       ?unicode_encoding@?1???$__acrt_stdio_parse_mode@D@@YA?AU__acrt_stdio_stream_mode@@QBD@Z@4QBDB 10056f20     libucrt:openfile.obj
 0002:00002f28       ?ccs@?1???$__acrt_stdio_parse_mode@_W@@YA?AU__acrt_stdio_stream_mode@@QB_W@Z@4QB_WB 10056f28     libucrt:openfile.obj
 0002:00002f30       ?utf8_encoding@?1???$__acrt_stdio_parse_mode@_W@@YA?AU__acrt_stdio_stream_mode@@QB_W@Z@4QB_WB 10056f30     libucrt:openfile.obj
 0002:00002f3c       ?utf16_encoding@?1???$__acrt_stdio_parse_mode@_W@@YA?AU__acrt_stdio_stream_mode@@QB_W@Z@4QB_WB 10056f3c     libucrt:openfile.obj
 0002:00002f4c       ?unicode_encoding@?1???$__acrt_stdio_parse_mode@_W@@YA?AU__acrt_stdio_stream_mode@@QB_W@Z@4QB_WB 10056f4c     libucrt:openfile.obj
 0002:00002f6c       ??_C@_1M@HPNHIDJI@?$AAj?$AAa?$AA?9?$AAJ?$AAP?$AA?$AA@ 10056f6c     libucrt:mbctype.obj
 0002:00002f78       ??_C@_1M@BIBDDEMK@?$AAz?$AAh?$AA?9?$AAC?$AAN?$AA?$AA@ 10056f78     libucrt:mbctype.obj
 0002:00002f84       ??_C@_1M@JLOOOEGK@?$AAk?$AAo?$AA?9?$AAK?$AAR?$AA?$AA@ 10056f84     libucrt:mbctype.obj
 0002:00002f90       ??_C@_1M@CLNBBOPM@?$AAz?$AAh?$AA?9?$AAT?$AAW?$AA?$AA@ 10056f90     libucrt:mbctype.obj
 0002:00002f9c       ??_C@_1DE@JNGNBFGO@?$AAR?$AAu?$AAn?$AAt?$AAi?$AAm?$AAe?$AA?5?$AAE?$AAr?$AAr?$AAo?$AAr?$AA?$CB?$AA?6?$AA?6?$AAP?$AAr?$AAo?$AAg?$AAr?$AAa?$AAm?$AA?3?$AA?5?$AA?$AA@ 10056f9c     libucrt:report_runtime_error.obj
 0002:00002fd0       ??_C@_1CO@EAEJAADC@?$AA?$DM?$AAp?$AAr?$AAo?$AAg?$AAr?$AAa?$AAm?$AA?5?$AAn?$AAa?$AAm?$AAe?$AA?5?$AAu?$AAn?$AAk?$AAn?$AAo?$AAw?$AAn?$AA?$DO?$AA?$AA@ 10056fd0     libucrt:report_runtime_error.obj
 0002:00003000       ??_C@_17LGKOMLJ@?$AA?4?$AA?4?$AA?4?$AA?$AA@ 10057000     libucrt:report_runtime_error.obj
 0002:00003008       ??_C@_15IABLJNFO@?$AA?6?$AA?6?$AA?$AA@ 10057008     libucrt:report_runtime_error.obj
 0002:00003010       ??_C@_1EK@MBDPDCGA@?$AAM?$AAi?$AAc?$AAr?$AAo?$AAs?$AAo?$AAf?$AAt?$AA?5?$AAV?$AAi?$AAs?$AAu?$AAa?$AAl?$AA?5?$AAC?$AA?$CL?$AA?$CL?$AA?5?$AAR?$AAu?$AAn?$AAt?$AAi?$AAm?$AAe?$AA?5?$AAL?$AAi?$AAb@ 10057010     libucrt:report_runtime_error.obj
 0002:00003780       ??_C@_15EMKDOKLE@?$AAa?$AAr?$AA?$AA@ 10057780     libucrt:lcidtoname_downlevel.obj
 0002:00003788       ??_C@_15KNPADPLH@?$AAb?$AAg?$AA?$AA@ 10057788     libucrt:lcidtoname_downlevel.obj
 0002:00003790       ??_C@_15EDMHLDMO@?$AAc?$AAa?$AA?$AA@ 10057790     libucrt:lcidtoname_downlevel.obj
 0002:00003798       ??_C@_1O@BPEAJADD@?$AAz?$AAh?$AA?9?$AAC?$AAH?$AAS?$AA?$AA@ 10057798     libucrt:lcidtoname_downlevel.obj
 0002:000037a8       ??_C@_15LJNHCMNK@?$AAc?$AAs?$AA?$AA@ 100577a8     libucrt:lcidtoname_downlevel.obj
 0002:000037b0       ??_C@_15FOMCIDHG@?$AAd?$AAa?$AA?$AA@ 100577b0     libucrt:lcidtoname_downlevel.obj
 0002:000037b8       ??_C@_15NBKABECB@?$AAd?$AAe?$AA?$AA@ 100577b8     libucrt:lcidtoname_downlevel.obj
 0002:000037c0       ??_C@_15GHPEIIAO@?$AAe?$AAl?$AA?$AA@ 100577c0     libucrt:lcidtoname_downlevel.obj
 0002:000037c8       ??_C@_15MNPNEAIF@?$AAe?$AAn?$AA?$AA@ 100577c8     libucrt:lcidtoname_downlevel.obj
 0002:000037d0       ??_C@_15GPIOMPMH@?$AAe?$AAs?$AA?$AA@ 100577d0     libucrt:lcidtoname_downlevel.obj
 0002:000037d8       ??_C@_15NGLOAKJC@?$AAf?$AAi?$AA?$AA@ 100577d8     libucrt:lcidtoname_downlevel.obj
 0002:000037e0       ??_C@_15FBKGNKAM@?$AAf?$AAr?$AA?$AA@ 100577e0     libucrt:lcidtoname_downlevel.obj
 0002:000037e8       ??_C@_15KGGCNEFK@?$AAh?$AAe?$AA?$AA@ 100577e8     libucrt:lcidtoname_downlevel.obj
 0002:000037f0       ??_C@_15PGHLIDMF@?$AAh?$AAu?$AA?$AA@ 100577f0     libucrt:lcidtoname_downlevel.obj
 0002:000037f8       ??_C@_15BIEMAPLM@?$AAi?$AAs?$AA?$AA@ 100577f8     libucrt:lcidtoname_downlevel.obj
 0002:00003800       ??_C@_15IFJLDHAF@?$AAi?$AAt?$AA?$AA@ 10057800     libucrt:lcidtoname_downlevel.obj
 0002:00003808       ??_C@_15GEMIOCAG@?$AAj?$AAa?$AA?$AA@ 10057808     libucrt:lcidtoname_downlevel.obj
 0002:00003810       ??_C@_15EPELEGJA@?$AAk?$AAo?$AA?$AA@ 10057810     libucrt:lcidtoname_downlevel.obj
 0002:00003818       ??_C@_15NDDHIMN@?$AAn?$AAl?$AA?$AA@ 10057818     libucrt:lcidtoname_downlevel.obj
 0002:00003820       ??_C@_15BPIGNHCD@?$AAn?$AAo?$AA?$AA@ 10057820     libucrt:lcidtoname_downlevel.obj
 0002:00003828       ??_C@_15DEOPBLCG@?$AAp?$AAl?$AA?$AA@ 10057828     libucrt:lcidtoname_downlevel.obj
 0002:00003830       ??_C@_15KBECGEFG@?$AAp?$AAt?$AA?$AA@ 10057830     libucrt:lcidtoname_downlevel.obj
 0002:00003838       ??_C@_15GLJCBFMD@?$AAr?$AAo?$AA?$AA@ 10057838     libucrt:lcidtoname_downlevel.obj
 0002:00003840       ??_C@_15FEDGKCDI@?$AAr?$AAu?$AA?$AA@ 10057840     libucrt:lcidtoname_downlevel.obj
 0002:00003848       ??_C@_15GLKMLLHM@?$AAh?$AAr?$AA?$AA@ 10057848     libucrt:lcidtoname_downlevel.obj
 0002:00003850       ??_C@_15CPKMFBDB@?$AAs?$AAk?$AA?$AA@ 10057850     libucrt:lcidtoname_downlevel.obj
 0002:00003858       ??_C@_15BAAIOGMK@?$AAs?$AAq?$AA?$AA@ 10057858     libucrt:lcidtoname_downlevel.obj
 0002:00003860       ??_C@_15INNPNOHD@?$AAs?$AAv?$AA?$AA@ 10057860     libucrt:lcidtoname_downlevel.obj
 0002:00003868       ??_C@_15CABMMOGH@?$AAt?$AAh?$AA?$AA@ 10057868     libucrt:lcidtoname_downlevel.obj
 0002:00003870       ??_C@_15BPLIHJJM@?$AAt?$AAr?$AA?$AA@ 10057870     libucrt:lcidtoname_downlevel.obj
 0002:00003878       ??_C@_15NEOEKKDJ@?$AAu?$AAr?$AA?$AA@ 10057878     libucrt:lcidtoname_downlevel.obj
 0002:00003880       ??_C@_15NFICGAJK@?$AAi?$AAd?$AA?$AA@ 10057880     libucrt:lcidtoname_downlevel.obj
 0002:00003888       ??_C@_15PJPFLCCM@?$AAu?$AAk?$AA?$AA@ 10057888     libucrt:lcidtoname_downlevel.obj
 0002:00003890       ??_C@_15HPJPHDM@?$AAb?$AAe?$AA?$AA@ 10057890     libucrt:lcidtoname_downlevel.obj
 0002:00003898       ??_C@_15LCHLGJII@?$AAs?$AAl?$AA?$AA@ 10057898     libucrt:lcidtoname_downlevel.obj
 0002:000038a0       ??_C@_15PCFJPHHO@?$AAe?$AAt?$AA?$AA@ 100578a0     libucrt:lcidtoname_downlevel.obj
 0002:000038a8       ??_C@_15HPFPGODN@?$AAl?$AAv?$AA?$AA@ 100578a8     libucrt:lcidtoname_downlevel.obj
 0002:000038b0       ??_C@_15NFFGKGLG@?$AAl?$AAt?$AA?$AA@ 100578b0     libucrt:lcidtoname_downlevel.obj
 0002:000038b8       ??_C@_15BDAKCCHN@?$AAf?$AAa?$AA?$AA@ 100578b8     libucrt:lcidtoname_downlevel.obj
 0002:000038c0       ??_C@_15NFGIAIAJ@?$AAv?$AAi?$AA?$AA@ 100578c0     libucrt:lcidtoname_downlevel.obj
 0002:000038c8       ??_C@_15LMKNDMHN@?$AAh?$AAy?$AA?$AA@ 100578c8     libucrt:lcidtoname_downlevel.obj
 0002:000038d0       ??_C@_15IJBHMCFL@?$AAa?$AAz?$AA?$AA@ 100578d0     libucrt:lcidtoname_downlevel.obj
 0002:000038d8       ??_C@_15EKOFJABL@?$AAe?$AAu?$AA?$AA@ 100578d8     libucrt:lcidtoname_downlevel.obj
 0002:000038e0       ??_C@_15BGHADCNK@?$AAm?$AAk?$AA?$AA@ 100578e0     libucrt:lcidtoname_downlevel.obj
 0002:000038e8       ??_C@_15JDNICKHM@?$AAa?$AAf?$AA?$AA@ 100578e8     libucrt:lcidtoname_downlevel.obj
 0002:000038f0       ??_C@_15KPJEDBKD@?$AAk?$AAa?$AA?$AA@ 100578f0     libucrt:lcidtoname_downlevel.obj
 0002:000038f8       ??_C@_15PDNFFFEO@?$AAf?$AAo?$AA?$AA@ 100578f8     libucrt:lcidtoname_downlevel.obj
 0002:00003900       ??_C@_15OMLEGLOC@?$AAh?$AAi?$AA?$AA@ 10057900     libucrt:lcidtoname_downlevel.obj
 0002:00003908       ??_C@_15IDNNENKK@?$AAm?$AAs?$AA?$AA@ 10057908     libucrt:lcidtoname_downlevel.obj
 0002:00003910       ??_C@_15MACJNBMH@?$AAk?$AAk?$AA?$AA@ 10057910     libucrt:lcidtoname_downlevel.obj
 0002:00003918       ??_C@_15DKDJEOND@?$AAk?$AAy?$AA?$AA@ 10057918     libucrt:lcidtoname_downlevel.obj
 0002:00003920       ??_C@_15DFGDLJBG@?$AAs?$AAw?$AA?$AA@ 10057920     libucrt:lcidtoname_downlevel.obj
 0002:00003928       ??_C@_15BBFAICNG@?$AAu?$AAz?$AA?$AA@ 10057928     libucrt:lcidtoname_downlevel.obj
 0002:00003930       ??_C@_15DKNDCGEA@?$AAt?$AAt?$AA?$AA@ 10057930     libucrt:lcidtoname_downlevel.obj
 0002:00003938       ??_C@_15MGIFMDPL@?$AAp?$AAa?$AA?$AA@ 10057938     libucrt:lcidtoname_downlevel.obj
 0002:00003940       ??_C@_15HCNDBBA@?$AAg?$AAu?$AA?$AA@ 10057940     libucrt:lcidtoname_downlevel.obj
 0002:00003948       ??_C@_15FNBEIBON@?$AAt?$AAa?$AA?$AA@ 10057948     libucrt:lcidtoname_downlevel.obj
 0002:00003950       ??_C@_15NCHGBGLK@?$AAt?$AAe?$AA?$AA@ 10057950     libucrt:lcidtoname_downlevel.obj
 0002:00003958       ??_C@_15PHPHCBPF@?$AAk?$AAn?$AA?$AA@ 10057958     libucrt:lcidtoname_downlevel.obj
 0002:00003960       ??_C@_15DLGBCKMP@?$AAm?$AAr?$AA?$AA@ 10057960     libucrt:lcidtoname_downlevel.obj
 0002:00003968       ??_C@_15EABBLBFF@?$AAs?$AAa?$AA?$AA@ 10057968     libucrt:lcidtoname_downlevel.obj
 0002:00003970       ??_C@_15CBKOMCOI@?$AAm?$AAn?$AA?$AA@ 10057970     libucrt:lcidtoname_downlevel.obj
 0002:00003978       ??_C@_15CKDMCJAF@?$AAg?$AAl?$AA?$AA@ 10057978     libucrt:lcidtoname_downlevel.obj
 0002:00003980       ??_C@_17CNJFBPG@?$AAk?$AAo?$AAk?$AA?$AA@ 10057980     libucrt:lcidtoname_downlevel.obj
 0002:00003988       ??_C@_17FFBJICPL@?$AAs?$AAy?$AAr?$AA?$AA@ 10057988     libucrt:lcidtoname_downlevel.obj
 0002:00003990       ??_C@_17KPNDCPAF@?$AAd?$AAi?$AAv?$AA?$AA@ 10057990     libucrt:lcidtoname_downlevel.obj
 0002:00003998       ??_C@_11LOCGONAA@?$AA?$AA@ 10057998     libucrt:lcidtoname_downlevel.obj
 0002:0000399c       ??_C@_1M@OKAHONE@?$AAa?$AAr?$AA?9?$AAS?$AAA?$AA?$AA@ 1005799c     libucrt:lcidtoname_downlevel.obj
 0002:000039a8       ??_C@_1M@FFFIGIGK@?$AAb?$AAg?$AA?9?$AAB?$AAG?$AA?$AA@ 100579a8     libucrt:lcidtoname_downlevel.obj
 0002:000039b4       ??_C@_1M@BJNKEDC@?$AAc?$AAa?$AA?9?$AAE?$AAS?$AA?$AA@ 100579b4     libucrt:lcidtoname_downlevel.obj
 0002:000039c0       ??_C@_1M@IJJHFJHA@?$AAc?$AAs?$AA?9?$AAC?$AAZ?$AA?$AA@ 100579c0     libucrt:lcidtoname_downlevel.obj
 0002:000039cc       ??_C@_1M@CLPEOBGI@?$AAd?$AAa?$AA?9?$AAD?$AAK?$AA?$AA@ 100579cc     libucrt:lcidtoname_downlevel.obj
 0002:000039d8       ??_C@_1M@MCMADGCB@?$AAd?$AAe?$AA?9?$AAD?$AAE?$AA?$AA@ 100579d8     libucrt:lcidtoname_downlevel.obj
 0002:000039e4       ??_C@_1M@OOCKEMAM@?$AAe?$AAl?$AA?9?$AAG?$AAR?$AA?$AA@ 100579e4     libucrt:lcidtoname_downlevel.obj
 0002:000039f0       ??_C@_1M@DDNJFGID@?$AAf?$AAi?$AA?9?$AAF?$AAI?$AA?$AA@ 100579f0     libucrt:lcidtoname_downlevel.obj
 0002:000039fc       ??_C@_1M@GLIPPMAC@?$AAf?$AAr?$AA?9?$AAF?$AAR?$AA?$AA@ 100579fc     libucrt:lcidtoname_downlevel.obj
 0002:00003a08       ??_C@_1M@GFMCHPE@?$AAh?$AAe?$AA?9?$AAI?$AAL?$AA?$AA@ 10057a08     libucrt:lcidtoname_downlevel.obj
 0002:00003a14       ??_C@_1M@MHLPGNKM@?$AAh?$AAu?$AA?9?$AAH?$AAU?$AA?$AA@ 10057a14     libucrt:lcidtoname_downlevel.obj
 0002:00003a20       ??_C@_1M@LPDDNNPN@?$AAi?$AAs?$AA?9?$AAI?$AAS?$AA?$AA@ 10057a20     libucrt:lcidtoname_downlevel.obj
 0002:00003a2c       ??_C@_1M@MADIPODN@?$AAi?$AAt?$AA?9?$AAI?$AAT?$AA?$AA@ 10057a2c     libucrt:lcidtoname_downlevel.obj
 0002:00003a38       ??_C@_1M@IHBJJGG@?$AAn?$AAl?$AA?9?$AAN?$AAL?$AA?$AA@ 10057a38     libucrt:lcidtoname_downlevel.obj
 0002:00003a44       ??_C@_1M@EANAGDL@?$AAn?$AAb?$AA?9?$AAN?$AAO?$AA?$AA@ 10057a44     libucrt:lcidtoname_downlevel.obj
 0002:00003a50       ??_C@_1M@NEIEMEGP@?$AAp?$AAl?$AA?9?$AAP?$AAL?$AA?$AA@ 10057a50     libucrt:lcidtoname_downlevel.obj
 0002:00003a5c       ??_C@_1M@BOCFIGEP@?$AAp?$AAt?$AA?9?$AAB?$AAR?$AA?$AA@ 10057a5c     libucrt:lcidtoname_downlevel.obj
 0002:00003a68       ??_C@_1M@IMPFOPBG@?$AAr?$AAo?$AA?9?$AAR?$AAO?$AA?$AA@ 10057a68     libucrt:lcidtoname_downlevel.obj
 0002:00003a74       ??_C@_1M@IDNNEJMM@?$AAr?$AAu?$AA?9?$AAR?$AAU?$AA?$AA@ 10057a74     libucrt:lcidtoname_downlevel.obj
 0002:00003a80       ??_C@_1M@LILEEOGM@?$AAh?$AAr?$AA?9?$AAH?$AAR?$AA?$AA@ 10057a80     libucrt:lcidtoname_downlevel.obj
 0002:00003a8c       ??_C@_1M@FKIFEHPB@?$AAs?$AAk?$AA?9?$AAS?$AAK?$AA?$AA@ 10057a8c     libucrt:lcidtoname_downlevel.obj
 0002:00003a98       ??_C@_1M@LJMAMNPJ@?$AAs?$AAq?$AA?9?$AAA?$AAL?$AA?$AA@ 10057a98     libucrt:lcidtoname_downlevel.obj
 0002:00003aa4       ??_C@_1M@GIAKDKJK@?$AAs?$AAv?$AA?9?$AAS?$AAE?$AA?$AA@ 10057aa4     libucrt:lcidtoname_downlevel.obj
 0002:00003ab0       ??_C@_1M@MKJKIKCL@?$AAt?$AAh?$AA?9?$AAT?$AAH?$AA?$AA@ 10057ab0     libucrt:lcidtoname_downlevel.obj
 0002:00003abc       ??_C@_1M@MFLCCMPB@?$AAt?$AAr?$AA?9?$AAT?$AAR?$AA?$AA@ 10057abc     libucrt:lcidtoname_downlevel.obj
 0002:00003ac8       ??_C@_1M@OIJHDKJN@?$AAu?$AAr?$AA?9?$AAP?$AAK?$AA?$AA@ 10057ac8     libucrt:lcidtoname_downlevel.obj
 0002:00003ad4       ??_C@_1M@LHIPCIEK@?$AAi?$AAd?$AA?9?$AAI?$AAD?$AA?$AA@ 10057ad4     libucrt:lcidtoname_downlevel.obj
 0002:00003ae0       ??_C@_1M@MFMOBGI@?$AAu?$AAk?$AA?9?$AAU?$AAA?$AA?$AA@ 10057ae0     libucrt:lcidtoname_downlevel.obj
 0002:00003aec       ??_C@_1M@OBGLJIPL@?$AAb?$AAe?$AA?9?$AAB?$AAY?$AA?$AA@ 10057aec     libucrt:lcidtoname_downlevel.obj
 0002:00003af8       ??_C@_1M@BCFAJEAD@?$AAs?$AAl?$AA?9?$AAS?$AAI?$AA?$AA@ 10057af8     libucrt:lcidtoname_downlevel.obj
 0002:00003b04       ??_C@_1M@FKFFEDDN@?$AAe?$AAt?$AA?9?$AAE?$AAE?$AA?$AA@ 10057b04     libucrt:lcidtoname_downlevel.obj
 0002:00003b10       ??_C@_1M@KGKKAACI@?$AAl?$AAv?$AA?9?$AAL?$AAV?$AA?$AA@ 10057b10     libucrt:lcidtoname_downlevel.obj
 0002:00003b1c       ??_C@_1M@IFGBIJO@?$AAl?$AAt?$AA?9?$AAL?$AAT?$AA?$AA@ 10057b1c     libucrt:lcidtoname_downlevel.obj
 0002:00003b28       ??_C@_1M@FGEAHEDM@?$AAf?$AAa?$AA?9?$AAI?$AAR?$AA?$AA@ 10057b28     libucrt:lcidtoname_downlevel.obj
 0002:00003b34       ??_C@_1M@KBMAIBFN@?$AAv?$AAi?$AA?9?$AAV?$AAN?$AA?$AA@ 10057b34     libucrt:lcidtoname_downlevel.obj
 0002:00003b40       ??_C@_1M@GPCBKDJK@?$AAh?$AAy?$AA?9?$AAA?$AAM?$AA?$AA@ 10057b40     libucrt:lcidtoname_downlevel.obj
 0002:00003b4c       ??_C@_1BG@BECMDDJB@?$AAa?$AAz?$AA?9?$AAA?$AAZ?$AA?9?$AAL?$AAa?$AAt?$AAn?$AA?$AA@ 10057b4c     libucrt:lcidtoname_downlevel.obj
 0002:00003b64       ??_C@_1M@MAOFCAEA@?$AAe?$AAu?$AA?9?$AAE?$AAS?$AA?$AA@ 10057b64     libucrt:lcidtoname_downlevel.obj
 0002:00003b70       ??_C@_1M@IGHABKPI@?$AAm?$AAk?$AA?9?$AAM?$AAK?$AA?$AA@ 10057b70     libucrt:lcidtoname_downlevel.obj
 0002:00003b7c       ??_C@_1M@IAIGNEJG@?$AAt?$AAn?$AA?9?$AAZ?$AAA?$AA?$AA@ 10057b7c     libucrt:lcidtoname_downlevel.obj
 0002:00003b88       ??_C@_1M@IIJCOJFA@?$AAx?$AAh?$AA?9?$AAZ?$AAA?$AA?$AA@ 10057b88     libucrt:lcidtoname_downlevel.obj
 0002:00003b94       ??_C@_1M@LGPJHNJH@?$AAz?$AAu?$AA?9?$AAZ?$AAA?$AA?$AA@ 10057b94     libucrt:lcidtoname_downlevel.obj
 0002:00003ba0       ??_C@_1M@HOKAOIO@?$AAa?$AAf?$AA?9?$AAZ?$AAA?$AA?$AA@ 10057ba0     libucrt:lcidtoname_downlevel.obj
 0002:00003bac       ??_C@_1M@DPCLHLIE@?$AAk?$AAa?$AA?9?$AAG?$AAE?$AA?$AA@ 10057bac     libucrt:lcidtoname_downlevel.obj
 0002:00003bb8       ??_C@_1M@BLKMHJBI@?$AAf?$AAo?$AA?9?$AAF?$AAO?$AA?$AA@ 10057bb8     libucrt:lcidtoname_downlevel.obj
 0002:00003bc4       ??_C@_1M@LGGJAPPB@?$AAh?$AAi?$AA?9?$AAI?$AAN?$AA?$AA@ 10057bc4     libucrt:lcidtoname_downlevel.obj
 0002:00003bd0       ??_C@_1M@FIKPIHFE@?$AAm?$AAt?$AA?9?$AAM?$AAT?$AA?$AA@ 10057bd0     libucrt:lcidtoname_downlevel.obj
 0002:00003bdc       ??_C@_1M@HEGGPBFA@?$AAs?$AAe?$AA?9?$AAN?$AAO?$AA?$AA@ 10057bdc     libucrt:lcidtoname_downlevel.obj
 0002:00003be8       ??_C@_1M@EIBJEEPA@?$AAm?$AAs?$AA?9?$AAM?$AAY?$AA?$AA@ 10057be8     libucrt:lcidtoname_downlevel.obj
 0002:00003bf4       ??_C@_1M@FHLBGMPP@?$AAk?$AAk?$AA?9?$AAK?$AAZ?$AA?$AA@ 10057bf4     libucrt:lcidtoname_downlevel.obj
 0002:00003c00       ??_C@_1M@NGJJLCGI@?$AAk?$AAy?$AA?9?$AAK?$AAG?$AA?$AA@ 10057c00     libucrt:lcidtoname_downlevel.obj
 0002:00003c0c       ??_C@_1M@GIENNBFC@?$AAs?$AAw?$AA?9?$AAK?$AAE?$AA?$AA@ 10057c0c     libucrt:lcidtoname_downlevel.obj
 0002:00003c18       ??_C@_1BG@NDGMJIMJ@?$AAu?$AAz?$AA?9?$AAU?$AAZ?$AA?9?$AAL?$AAa?$AAt?$AAn?$AA?$AA@ 10057c18     libucrt:lcidtoname_downlevel.obj
 0002:00003c30       ??_C@_1M@IDCCIHBC@?$AAt?$AAt?$AA?9?$AAR?$AAU?$AA?$AA@ 10057c30     libucrt:lcidtoname_downlevel.obj
 0002:00003c3c       ??_C@_1M@LOICPMOJ@?$AAb?$AAn?$AA?9?$AAI?$AAN?$AA?$AA@ 10057c3c     libucrt:lcidtoname_downlevel.obj
 0002:00003c48       ??_C@_1M@KPKKNEAH@?$AAp?$AAa?$AA?9?$AAI?$AAN?$AA?$AA@ 10057c48     libucrt:lcidtoname_downlevel.obj
 0002:00003c54       ??_C@_1M@PJGPPBOG@?$AAg?$AAu?$AA?9?$AAI?$AAN?$AA?$AA@ 10057c54     libucrt:lcidtoname_downlevel.obj
 0002:00003c60       ??_C@_1M@KMKMOPHI@?$AAt?$AAa?$AA?9?$AAI?$AAN?$AA?$AA@ 10057c60     libucrt:lcidtoname_downlevel.obj
 0002:00003c6c       ??_C@_1M@KFEHEPAC@?$AAt?$AAe?$AA?9?$AAI?$AAN?$AA?$AA@ 10057c6c     libucrt:lcidtoname_downlevel.obj
 0002:00003c78       ??_C@_1M@CDCLMGHI@?$AAk?$AAn?$AA?9?$AAI?$AAN?$AA?$AA@ 10057c78     libucrt:lcidtoname_downlevel.obj
 0002:00003c84       ??_C@_1M@MIODLDKF@?$AAm?$AAl?$AA?9?$AAI?$AAN?$AA?$AA@ 10057c84     libucrt:lcidtoname_downlevel.obj
 0002:00003c90       ??_C@_1M@PBIEACPO@?$AAm?$AAr?$AA?9?$AAI?$AAN?$AA?$AA@ 10057c90     libucrt:lcidtoname_downlevel.obj
 0002:00003c9c       ??_C@_1M@NIDEAGPH@?$AAs?$AAa?$AA?9?$AAI?$AAN?$AA?$AA@ 10057c9c     libucrt:lcidtoname_downlevel.obj
 0002:00003ca8       ??_C@_1M@FHIHCBIO@?$AAm?$AAn?$AA?9?$AAM?$AAN?$AA?$AA@ 10057ca8     libucrt:lcidtoname_downlevel.obj
 0002:00003cb4       ??_C@_1M@JAIJPENP@?$AAc?$AAy?$AA?9?$AAG?$AAB?$AA?$AA@ 10057cb4     libucrt:lcidtoname_downlevel.obj
 0002:00003cc0       ??_C@_1M@PHGFBEPN@?$AAg?$AAl?$AA?9?$AAE?$AAS?$AA?$AA@ 10057cc0     libucrt:lcidtoname_downlevel.obj
 0002:00003ccc       ??_C@_1O@KPIPDNCP@?$AAk?$AAo?$AAk?$AA?9?$AAI?$AAN?$AA?$AA@ 10057ccc     libucrt:lcidtoname_downlevel.obj
 0002:00003cdc       ??_C@_1O@KNHJLDJA@?$AAs?$AAy?$AAr?$AA?9?$AAS?$AAY?$AA?$AA@ 10057cdc     libucrt:lcidtoname_downlevel.obj
 0002:00003cec       ??_C@_1O@MKEKBLAH@?$AAd?$AAi?$AAv?$AA?9?$AAM?$AAV?$AA?$AA@ 10057cec     libucrt:lcidtoname_downlevel.obj
 0002:00003cfc       ??_C@_1O@OHDCKDDF@?$AAq?$AAu?$AAz?$AA?9?$AAB?$AAO?$AA?$AA@ 10057cfc     libucrt:lcidtoname_downlevel.obj
 0002:00003d0c       ??_C@_1M@LEPJNLFD@?$AAn?$AAs?$AA?9?$AAZ?$AAA?$AA?$AA@ 10057d0c     libucrt:lcidtoname_downlevel.obj
 0002:00003d18       ??_C@_1M@OMLEIIJB@?$AAm?$AAi?$AA?9?$AAN?$AAZ?$AA?$AA@ 10057d18     libucrt:lcidtoname_downlevel.obj
 0002:00003d24       ??_C@_1M@PMPEAILG@?$AAa?$AAr?$AA?9?$AAI?$AAQ?$AA?$AA@ 10057d24     libucrt:lcidtoname_downlevel.obj
 0002:00003d30       ??_C@_1M@CNKPNOEE@?$AAd?$AAe?$AA?9?$AAC?$AAH?$AA?$AA@ 10057d30     libucrt:lcidtoname_downlevel.obj
 0002:00003d3c       ??_C@_1M@LKMGMLKO@?$AAe?$AAn?$AA?9?$AAG?$AAB?$AA?$AA@ 10057d3c     libucrt:lcidtoname_downlevel.obj
 0002:00003d48       ??_C@_1M@PGKJFFGL@?$AAe?$AAs?$AA?9?$AAM?$AAX?$AA?$AA@ 10057d48     libucrt:lcidtoname_downlevel.obj
 0002:00003d54       ??_C@_1M@DNNANBDC@?$AAf?$AAr?$AA?9?$AAB?$AAE?$AA?$AA@ 10057d54     libucrt:lcidtoname_downlevel.obj
 0002:00003d60       ??_C@_1M@HLGMDFHM@?$AAi?$AAt?$AA?9?$AAC?$AAH?$AA?$AA@ 10057d60     libucrt:lcidtoname_downlevel.obj
 0002:00003d6c       ??_C@_1M@CLLBGJH@?$AAn?$AAl?$AA?9?$AAB?$AAE?$AA?$AA@ 10057d6c     libucrt:lcidtoname_downlevel.obj
 0002:00003d78       ??_C@_1M@BODBOGLF@?$AAn?$AAn?$AA?9?$AAN?$AAO?$AA?$AA@ 10057d78     libucrt:lcidtoname_downlevel.obj
 0002:00003d84       ??_C@_1M@HFFAHKAD@?$AAp?$AAt?$AA?9?$AAP?$AAT?$AA?$AA@ 10057d84     libucrt:lcidtoname_downlevel.obj
 0002:00003d90       ??_C@_1BG@LNOAKHIE@?$AAs?$AAr?$AA?9?$AAS?$AAP?$AA?9?$AAL?$AAa?$AAt?$AAn?$AA?$AA@ 10057d90     libucrt:lcidtoname_downlevel.obj
 0002:00003da8       ??_C@_1M@HBMHBGAK@?$AAs?$AAv?$AA?9?$AAF?$AAI?$AA?$AA@ 10057da8     libucrt:lcidtoname_downlevel.obj
 0002:00003db4       ??_C@_1BG@DGCJGJBE@?$AAa?$AAz?$AA?9?$AAA?$AAZ?$AA?9?$AAC?$AAy?$AAr?$AAl?$AA?$AA@ 10057db4     libucrt:lcidtoname_downlevel.obj
 0002:00003dcc       ??_C@_1M@KEJDAAHB@?$AAs?$AAe?$AA?9?$AAS?$AAE?$AA?$AA@ 10057dcc     libucrt:lcidtoname_downlevel.obj
 0002:00003dd8       ??_C@_1M@HEIBJJAD@?$AAm?$AAs?$AA?9?$AAB?$AAN?$AA?$AA@ 10057dd8     libucrt:lcidtoname_downlevel.obj
 0002:00003de4       ??_C@_1BG@PBGJMCEM@?$AAu?$AAz?$AA?9?$AAU?$AAZ?$AA?9?$AAC?$AAy?$AAr?$AAl?$AA?$AA@ 10057de4     libucrt:lcidtoname_downlevel.obj
 0002:00003dfc       ??_C@_1O@LAOBCMDF@?$AAq?$AAu?$AAz?$AA?9?$AAE?$AAC?$AA?$AA@ 10057dfc     libucrt:lcidtoname_downlevel.obj
 0002:00003e0c       ??_C@_1M@POEEMAIO@?$AAa?$AAr?$AA?9?$AAE?$AAG?$AA?$AA@ 10057e0c     libucrt:lcidtoname_downlevel.obj
 0002:00003e18       ??_C@_1M@EFAKDEDL@?$AAz?$AAh?$AA?9?$AAH?$AAK?$AA?$AA@ 10057e18     libucrt:lcidtoname_downlevel.obj
 0002:00003e24       ??_C@_1M@HKKIJHGI@?$AAd?$AAe?$AA?9?$AAA?$AAT?$AA?$AA@ 10057e24     libucrt:lcidtoname_downlevel.obj
 0002:00003e30       ??_C@_1M@KBFBEHJF@?$AAe?$AAn?$AA?9?$AAA?$AAU?$AA?$AA@ 10057e30     libucrt:lcidtoname_downlevel.obj
 0002:00003e3c       ??_C@_1M@MNPLFAAH@?$AAe?$AAs?$AA?9?$AAE?$AAS?$AA?$AA@ 10057e3c     libucrt:lcidtoname_downlevel.obj
 0002:00003e48       ??_C@_1M@HJOOJFMA@?$AAf?$AAr?$AA?9?$AAC?$AAA?$AA?$AA@ 10057e48     libucrt:lcidtoname_downlevel.obj
 0002:00003e54       ??_C@_1BG@JPOFPNAB@?$AAs?$AAr?$AA?9?$AAS?$AAP?$AA?9?$AAC?$AAy?$AAr?$AAl?$AA?$AA@ 10057e54     libucrt:lcidtoname_downlevel.obj
 0002:00003e6c       ??_C@_1M@LNFOCMOB@?$AAs?$AAe?$AA?9?$AAF?$AAI?$AA?$AA@ 10057e6c     libucrt:lcidtoname_downlevel.obj
 0002:00003e78       ??_C@_1O@MGJBOAMB@?$AAq?$AAu?$AAz?$AA?9?$AAP?$AAE?$AA?$AA@ 10057e78     libucrt:lcidtoname_downlevel.obj
 0002:00003e88       ??_C@_1M@GJINLBOK@?$AAa?$AAr?$AA?9?$AAL?$AAY?$AA?$AA@ 10057e88     libucrt:lcidtoname_downlevel.obj
 0002:00003e94       ??_C@_1M@GGMNHJNL@?$AAz?$AAh?$AA?9?$AAS?$AAG?$AA?$AA@ 10057e94     libucrt:lcidtoname_downlevel.obj
 0002:00003ea0       ??_C@_1M@HOIKODND@?$AAd?$AAe?$AA?9?$AAL?$AAU?$AA?$AA@ 10057ea0     libucrt:lcidtoname_downlevel.obj
 0002:00003eac       ??_C@_1M@DDOCCGFG@?$AAe?$AAn?$AA?9?$AAC?$AAA?$AA?$AA@ 10057eac     libucrt:lcidtoname_downlevel.obj
 0002:00003eb8       ??_C@_1M@BNOEMJLF@?$AAe?$AAs?$AA?9?$AAG?$AAT?$AA?$AA@ 10057eb8     libucrt:lcidtoname_downlevel.obj
 0002:00003ec4       ??_C@_1M@EOGNKEK@?$AAf?$AAr?$AA?9?$AAC?$AAH?$AA?$AA@ 10057ec4     libucrt:lcidtoname_downlevel.obj
 0002:00003ed0       ??_C@_1M@FLIDJFHL@?$AAh?$AAr?$AA?9?$AAB?$AAA?$AA?$AA@ 10057ed0     libucrt:lcidtoname_downlevel.obj
 0002:00003edc       ??_C@_1O@FMCELNAJ@?$AAs?$AAm?$AAj?$AA?9?$AAN?$AAO?$AA?$AA@ 10057edc     libucrt:lcidtoname_downlevel.obj
 0002:00003eec       ??_C@_1M@JHGLJMGJ@?$AAa?$AAr?$AA?9?$AAD?$AAZ?$AA?$AA@ 10057eec     libucrt:lcidtoname_downlevel.obj
 0002:00003ef8       ??_C@_1M@JKKFDCNP@?$AAz?$AAh?$AA?9?$AAM?$AAO?$AA?$AA@ 10057ef8     libucrt:lcidtoname_downlevel.obj
 0002:00003f04       ??_C@_1M@GEEFALPE@?$AAd?$AAe?$AA?9?$AAL?$AAI?$AA?$AA@ 10057f04     libucrt:lcidtoname_downlevel.obj
 0002:00003f10       ??_C@_1M@IGEOFBG@?$AAe?$AAn?$AA?9?$AAN?$AAZ?$AA?$AA@ 10057f10     libucrt:lcidtoname_downlevel.obj
 0002:00003f1c       ??_C@_1M@KDBONEHP@?$AAe?$AAs?$AA?9?$AAC?$AAR?$AA?$AA@ 10057f1c     libucrt:lcidtoname_downlevel.obj
 0002:00003f28       ??_C@_1M@FHMDOHNN@?$AAf?$AAr?$AA?9?$AAL?$AAU?$AA?$AA@ 10057f28     libucrt:lcidtoname_downlevel.obj
 0002:00003f34       ??_C@_1BG@NFKKMAFG@?$AAb?$AAs?$AA?9?$AAB?$AAA?$AA?9?$AAL?$AAa?$AAt?$AAn?$AA?$AA@ 10057f34     libucrt:lcidtoname_downlevel.obj
 0002:00003f4c       ??_C@_1O@IMNBEMCI@?$AAs?$AAm?$AAj?$AA?9?$AAS?$AAE?$AA?$AA@ 10057f4c     libucrt:lcidtoname_downlevel.obj
 0002:00003f5c       ??_C@_1M@DHHMBNDP@?$AAa?$AAr?$AA?9?$AAM?$AAA?$AA?$AA@ 10057f5c     libucrt:lcidtoname_downlevel.obj
 0002:00003f68       ??_C@_1M@BNBLJCGH@?$AAe?$AAn?$AA?9?$AAI?$AAE?$AA?$AA@ 10057f68     libucrt:lcidtoname_downlevel.obj
 0002:00003f74       ??_C@_1M@GEPAFMDL@?$AAe?$AAs?$AA?9?$AAP?$AAA?$AA?$AA@ 10057f74     libucrt:lcidtoname_downlevel.obj
 0002:00003f80       ??_C@_1M@OJONDMDL@?$AAf?$AAr?$AA?9?$AAM?$AAC?$AA?$AA@ 10057f80     libucrt:lcidtoname_downlevel.obj
 0002:00003f8c       ??_C@_1BG@OBCNFJB@?$AAs?$AAr?$AA?9?$AAB?$AAA?$AA?9?$AAL?$AAa?$AAt?$AAn?$AA?$AA@ 10057f8c     libucrt:lcidtoname_downlevel.obj
 0002:00003fa4       ??_C@_1O@KEMEEGPO@?$AAs?$AAm?$AAa?$AA?9?$AAN?$AAO?$AA?$AA@ 10057fa4     libucrt:lcidtoname_downlevel.obj
 0002:00003fb4       ??_C@_1M@ELMGFODK@?$AAa?$AAr?$AA?9?$AAT?$AAN?$AA?$AA@ 10057fb4     libucrt:lcidtoname_downlevel.obj
 0002:00003fc0       ??_C@_1M@BHDLHFAF@?$AAe?$AAn?$AA?9?$AAZ?$AAA?$AA?$AA@ 10057fc0     libucrt:lcidtoname_downlevel.obj
 0002:00003fcc       ??_C@_1M@BMGIGLIF@?$AAe?$AAs?$AA?9?$AAD?$AAO?$AA?$AA@ 10057fcc     libucrt:lcidtoname_downlevel.obj
 0002:00003fd8       ??_C@_1BG@CMBHIPBE@?$AAs?$AAr?$AA?9?$AAB?$AAA?$AA?9?$AAC?$AAy?$AAr?$AAl?$AA?$AA@ 10057fd8     libucrt:lcidtoname_downlevel.obj
 0002:00003ff0       ??_C@_1O@HEDBLHNP@?$AAs?$AAm?$AAa?$AA?9?$AAS?$AAE?$AA?$AA@ 10057ff0     libucrt:lcidtoname_downlevel.obj
 0002:00004000       ??_C@_1M@DAGCADIM@?$AAa?$AAr?$AA?9?$AAO?$AAM?$AA?$AA@ 10058000     libucrt:lcidtoname_downlevel.obj
 0002:0000400c       ??_C@_1M@FODLMICG@?$AAe?$AAn?$AA?9?$AAJ?$AAM?$AA?$AA@ 1005800c     libucrt:lcidtoname_downlevel.obj
 0002:00004018       ??_C@_1M@DNMLCIHB@?$AAe?$AAs?$AA?9?$AAV?$AAE?$AA?$AA@ 10058018     libucrt:lcidtoname_downlevel.obj
 0002:00004024       ??_C@_1O@EOKHMKJK@?$AAs?$AAm?$AAs?$AA?9?$AAF?$AAI?$AA?$AA@ 10058024     libucrt:lcidtoname_downlevel.obj
 0002:00004034       ??_C@_1M@CAFJMKOF@?$AAa?$AAr?$AA?9?$AAY?$AAE?$AA?$AA@ 10058034     libucrt:lcidtoname_downlevel.obj
 0002:00004040       ??_C@_1M@CBFHIJLI@?$AAe?$AAn?$AA?9?$AAC?$AAB?$AA?$AA@ 10058040     libucrt:lcidtoname_downlevel.obj
 0002:0000404c       ??_C@_1M@BGNFLDN@?$AAe?$AAs?$AA?9?$AAC?$AAO?$AA?$AA@ 1005804c     libucrt:lcidtoname_downlevel.obj
 0002:00004058       ??_C@_1O@JMPHMAMC@?$AAs?$AAm?$AAn?$AA?9?$AAF?$AAI?$AA?$AA@ 10058058     libucrt:lcidtoname_downlevel.obj
 0002:00004068       ??_C@_1M@JLANABKE@?$AAa?$AAr?$AA?9?$AAS?$AAY?$AA?$AA@ 10058068     libucrt:lcidtoname_downlevel.obj
 0002:00004074       ??_C@_1M@HPKGCFGN@?$AAe?$AAn?$AA?9?$AAB?$AAZ?$AA?$AA@ 10058074     libucrt:lcidtoname_downlevel.obj
 0002:00004080       ??_C@_1M@OLJCMLGM@?$AAe?$AAs?$AA?9?$AAP?$AAE?$AA?$AA@ 10058080     libucrt:lcidtoname_downlevel.obj
 0002:0000408c       ??_C@_1M@MKKGFKLE@?$AAa?$AAr?$AA?9?$AAJ?$AAO?$AA?$AA@ 1005808c     libucrt:lcidtoname_downlevel.obj
 0002:00004098       ??_C@_1M@EKPGLDNI@?$AAe?$AAn?$AA?9?$AAT?$AAT?$AA?$AA@ 10058098     libucrt:lcidtoname_downlevel.obj
 0002:000040a4       ??_C@_1M@OONGHFHE@?$AAe?$AAs?$AA?9?$AAA?$AAR?$AA?$AA@ 100580a4     libucrt:lcidtoname_downlevel.obj
 0002:000040b0       ??_C@_1M@OOJFGBHE@?$AAa?$AAr?$AA?9?$AAL?$AAB?$AA?$AA@ 100580b0     libucrt:lcidtoname_downlevel.obj
 0002:000040bc       ??_C@_1M@GCEJHNEG@?$AAe?$AAn?$AA?9?$AAZ?$AAW?$AA?$AA@ 100580bc     libucrt:lcidtoname_downlevel.obj
 0002:000040c8       ??_C@_1M@JNOCAHJI@?$AAe?$AAs?$AA?9?$AAE?$AAC?$AA?$AA@ 100580c8     libucrt:lcidtoname_downlevel.obj
 0002:000040d4       ??_C@_1M@JEFHPGGB@?$AAa?$AAr?$AA?9?$AAK?$AAW?$AA?$AA@ 100580d4     libucrt:lcidtoname_downlevel.obj
 0002:000040e0       ??_C@_1M@MLKIBJOJ@?$AAe?$AAn?$AA?9?$AAP?$AAH?$AA?$AA@ 100580e0     libucrt:lcidtoname_downlevel.obj
 0002:000040ec       ??_C@_1M@BDNIPEND@?$AAe?$AAs?$AA?9?$AAC?$AAL?$AA?$AA@ 100580ec     libucrt:lcidtoname_downlevel.obj
 0002:000040f8       ??_C@_1M@MPNMEKBD@?$AAa?$AAr?$AA?9?$AAA?$AAE?$AA?$AA@ 100580f8     libucrt:lcidtoname_downlevel.obj
 0002:00004104       ??_C@_1M@KBJALCPI@?$AAe?$AAs?$AA?9?$AAU?$AAY?$AA?$AA@ 10058104     libucrt:lcidtoname_downlevel.obj
 0002:00004110       ??_C@_1M@LLCCOAGA@?$AAa?$AAr?$AA?9?$AAB?$AAH?$AA?$AA@ 10058110     libucrt:lcidtoname_downlevel.obj
 0002:0000411c       ??_C@_1M@PBFNCDEL@?$AAe?$AAs?$AA?9?$AAP?$AAY?$AA?$AA@ 1005811c     libucrt:lcidtoname_downlevel.obj
 0002:00004128       ??_C@_1M@EDGINPNP@?$AAa?$AAr?$AA?9?$AAQ?$AAA?$AA?$AA@ 10058128     libucrt:lcidtoname_downlevel.obj
 0002:00004134       ??_C@_1M@MKDBIIJI@?$AAe?$AAs?$AA?9?$AAB?$AAO?$AA?$AA@ 10058134     libucrt:lcidtoname_downlevel.obj
 0002:00004140       ??_C@_1M@CPKKEBLD@?$AAe?$AAs?$AA?9?$AAS?$AAV?$AA?$AA@ 10058140     libucrt:lcidtoname_downlevel.obj
 0002:0000414c       ??_C@_1M@NDBGMMJL@?$AAe?$AAs?$AA?9?$AAH?$AAN?$AA?$AA@ 1005814c     libucrt:lcidtoname_downlevel.obj
 0002:00004158       ??_C@_1M@JIJIBHDP@?$AAe?$AAs?$AA?9?$AAN?$AAI?$AA?$AA@ 10058158     libucrt:lcidtoname_downlevel.obj
 0002:00004164       ??_C@_1M@CGFMKEEK@?$AAe?$AAs?$AA?9?$AAP?$AAR?$AA?$AA@ 10058164     libucrt:lcidtoname_downlevel.obj
 0002:00004170       ??_C@_1O@ICJHKIIK@?$AAz?$AAh?$AA?9?$AAC?$AAH?$AAT?$AA?$AA@ 10058170     libucrt:lcidtoname_downlevel.obj
 0002:00004180       ??_C@_15CLNEJCE@?$AAs?$AAr?$AA?$AA@ 10058180     libucrt:lcidtoname_downlevel.obj
 0002:000048a8       ??_C@_1M@KAHEKEIG@?$AAa?$AAf?$AA?9?$AAz?$AAa?$AA?$AA@ 100588a8     libucrt:lcidtoname_downlevel.obj
 0002:000048b4       ??_C@_1M@GIECOABL@?$AAa?$AAr?$AA?9?$AAa?$AAe?$AA?$AA@ 100588b4     libucrt:lcidtoname_downlevel.obj
 0002:000048c0       ??_C@_1M@BMLMEKGI@?$AAa?$AAr?$AA?9?$AAb?$AAh?$AA?$AA@ 100588c0     libucrt:lcidtoname_downlevel.obj
 0002:000048cc       ??_C@_1M@DAPFDGGB@?$AAa?$AAr?$AA?9?$AAd?$AAz?$AA?$AA@ 100588cc     libucrt:lcidtoname_downlevel.obj
 0002:000048d8       ??_C@_1M@FJNKGKIG@?$AAa?$AAr?$AA?9?$AAe?$AAg?$AA?$AA@ 100588d8     libucrt:lcidtoname_downlevel.obj
 0002:000048e4       ??_C@_1M@FLGKKCLO@?$AAa?$AAr?$AA?9?$AAi?$AAq?$AA?$AA@ 100588e4     libucrt:lcidtoname_downlevel.obj
 0002:000048f0       ??_C@_1M@GNDIPALM@?$AAa?$AAr?$AA?9?$AAj?$AAo?$AA?$AA@ 100588f0     libucrt:lcidtoname_downlevel.obj
 0002:000048fc       ??_C@_1M@DDMJFMGJ@?$AAa?$AAr?$AA?9?$AAk?$AAw?$AA?$AA@ 100588fc     libucrt:lcidtoname_downlevel.obj
 0002:00004908       ??_C@_1M@EJALMLHM@?$AAa?$AAr?$AA?9?$AAl?$AAb?$AA?$AA@ 10058908     libucrt:lcidtoname_downlevel.obj
 0002:00004914       ??_C@_1M@MOBDBLOC@?$AAa?$AAr?$AA?9?$AAl?$AAy?$AA?$AA@ 10058914     libucrt:lcidtoname_downlevel.obj
 0002:00004920       ??_C@_1M@JAOCLHDH@?$AAa?$AAr?$AA?9?$AAm?$AAa?$AA?$AA@ 10058920     libucrt:lcidtoname_downlevel.obj
 0002:0000492c       ??_C@_1M@JHPMKJIE@?$AAa?$AAr?$AA?9?$AAo?$AAm?$AA?$AA@ 1005892c     libucrt:lcidtoname_downlevel.obj
 0002:00004938       ??_C@_1M@OEPGHFNH@?$AAa?$AAr?$AA?9?$AAq?$AAa?$AA?$AA@ 10058938     libucrt:lcidtoname_downlevel.obj
 0002:00004944       ??_C@_1M@KJDONENM@?$AAa?$AAr?$AA?9?$AAs?$AAa?$AA?$AA@ 10058944     libucrt:lcidtoname_downlevel.obj
 0002:00004950       ??_C@_1M@DMJDKLKM@?$AAa?$AAr?$AA?9?$AAs?$AAy?$AA?$AA@ 10058950     libucrt:lcidtoname_downlevel.obj
 0002:0000495c       ??_C@_1M@OMFIPEDC@?$AAa?$AAr?$AA?9?$AAt?$AAn?$AA?$AA@ 1005895c     libucrt:lcidtoname_downlevel.obj
 0002:00004968       ??_C@_1M@IHMHGAON@?$AAa?$AAr?$AA?9?$AAy?$AAe?$AA?$AA@ 10058968     libucrt:lcidtoname_downlevel.obj
 0002:00004974       ??_C@_1BG@KDCPGJGB@?$AAa?$AAz?$AA?9?$AAa?$AAz?$AA?9?$AAc?$AAy?$AAr?$AAl?$AA?$AA@ 10058974     libucrt:lcidtoname_downlevel.obj
 0002:0000498c       ??_C@_1BG@IBCKDDOE@?$AAa?$AAz?$AA?9?$AAa?$AAz?$AA?9?$AAl?$AAa?$AAt?$AAn?$AA?$AA@ 1005898c     libucrt:lcidtoname_downlevel.obj
 0002:000049a4       ??_C@_1M@EGPFDCPD@?$AAb?$AAe?$AA?9?$AAb?$AAy?$AA?$AA@ 100589a4     libucrt:lcidtoname_downlevel.obj
 0002:000049b0       ??_C@_1M@PCMGMCGC@?$AAb?$AAg?$AA?9?$AAb?$AAg?$AA?$AA@ 100589b0     libucrt:lcidtoname_downlevel.obj
 0002:000049bc       ??_C@_1M@BJBMFGOB@?$AAb?$AAn?$AA?9?$AAi?$AAn?$AA?$AA@ 100589bc     libucrt:lcidtoname_downlevel.obj
 0002:000049c8       ??_C@_1BG@EAKMMACD@?$AAb?$AAs?$AA?9?$AAb?$AAa?$AA?9?$AAl?$AAa?$AAt?$AAn?$AA?$AA@ 100589c8     libucrt:lcidtoname_downlevel.obj
 0002:000049e0       ??_C@_1M@KGADAODK@?$AAc?$AAa?$AA?9?$AAe?$AAs?$AA?$AA@ 100589e0     libucrt:lcidtoname_downlevel.obj
 0002:000049ec       ??_C@_1M@COAJPDHI@?$AAc?$AAs?$AA?9?$AAc?$AAz?$AA?$AA@ 100589ec     libucrt:lcidtoname_downlevel.obj
 0002:000049f8       ??_C@_1M@DHBHFONH@?$AAc?$AAy?$AA?9?$AAg?$AAb?$AA?$AA@ 100589f8     libucrt:lcidtoname_downlevel.obj
 0002:00004a04       ??_C@_1M@IMGKELGA@?$AAd?$AAa?$AA?9?$AAd?$AAk?$AA?$AA@ 10058a04     libucrt:lcidtoname_downlevel.obj
 0002:00004a10       ??_C@_1M@NNDGDNGA@?$AAd?$AAe?$AA?9?$AAa?$AAt?$AA?$AA@ 10058a10     libucrt:lcidtoname_downlevel.obj
 0002:00004a1c       ??_C@_1M@IKDBHEEM@?$AAd?$AAe?$AA?9?$AAc?$AAh?$AA?$AA@ 10058a1c     libucrt:lcidtoname_downlevel.obj
 0002:00004a28       ??_C@_1M@GFFOJMCJ@?$AAd?$AAe?$AA?9?$AAd?$AAe?$AA?$AA@ 10058a28     libucrt:lcidtoname_downlevel.obj
 0002:00004a34       ??_C@_1M@MDNLKBPM@?$AAd?$AAe?$AA?9?$AAl?$AAi?$AA?$AA@ 10058a34     libucrt:lcidtoname_downlevel.obj
 0002:00004a40       ??_C@_1M@NJBEEJNL@?$AAd?$AAe?$AA?9?$AAl?$AAu?$AA?$AA@ 10058a40     libucrt:lcidtoname_downlevel.obj
 0002:00004a4c       ??_C@_1O@GNNELBAP@?$AAd?$AAi?$AAv?$AA?9?$AAm?$AAv?$AA?$AA@ 10058a4c     libucrt:lcidtoname_downlevel.obj
 0002:00004a5c       ??_C@_1M@EJLEOGAE@?$AAe?$AAl?$AA?9?$AAg?$AAr?$AA?$AA@ 10058a5c     libucrt:lcidtoname_downlevel.obj
 0002:00004a68       ??_C@_1M@GMPONJN@?$AAe?$AAn?$AA?9?$AAa?$AAu?$AA?$AA@ 10058a68     libucrt:lcidtoname_downlevel.obj
 0002:00004a74       ??_C@_1M@NIDIIPGF@?$AAe?$AAn?$AA?9?$AAb?$AAz?$AA?$AA@ 10058a74     libucrt:lcidtoname_downlevel.obj
 0002:00004a80       ??_C@_1M@JEHMIMFO@?$AAe?$AAn?$AA?9?$AAc?$AAa?$AA?$AA@ 10058a80     libucrt:lcidtoname_downlevel.obj
 0002:00004a8c       ??_C@_1M@IGMJCDLA@?$AAe?$AAn?$AA?9?$AAc?$AAb?$AA?$AA@ 10058a8c     libucrt:lcidtoname_downlevel.obj
 0002:00004a98       ??_C@_1M@BNFIGBKG@?$AAe?$AAn?$AA?9?$AAg?$AAb?$AA?$AA@ 10058a98     libucrt:lcidtoname_downlevel.obj
 0002:00004aa4       ??_C@_1M@LKIFDIGP@?$AAe?$AAn?$AA?9?$AAi?$AAe?$AA?$AA@ 10058aa4     libucrt:lcidtoname_downlevel.obj
 0002:00004ab0       ??_C@_1M@PJKFGCCO@?$AAe?$AAn?$AA?9?$AAj?$AAm?$AA?$AA@ 10058ab0     libucrt:lcidtoname_downlevel.obj
 0002:00004abc       ??_C@_1M@KPPKEPBO@?$AAe?$AAn?$AA?9?$AAn?$AAz?$AA?$AA@ 10058abc     libucrt:lcidtoname_downlevel.obj
 0002:00004ac8       ??_C@_1M@GMDGLDOB@?$AAe?$AAn?$AA?9?$AAp?$AAh?$AA?$AA@ 10058ac8     libucrt:lcidtoname_downlevel.obj
 0002:00004ad4       ??_C@_1M@ONGIBJNA@?$AAe?$AAn?$AA?9?$AAt?$AAt?$AA?$AA@ 10058ad4     libucrt:lcidtoname_downlevel.obj
 0002:00004ae0       ??_C@_1M@LLODPCMM@?$AAe?$AAn?$AA?9?$AAu?$AAs?$AA?$AA@ 10058ae0     libucrt:lcidtoname_downlevel.obj
 0002:00004aec       ??_C@_1M@LAKFNPAN@?$AAe?$AAn?$AA?9?$AAz?$AAa?$AA?$AA@ 10058aec     libucrt:lcidtoname_downlevel.obj
 0002:00004af8       ??_C@_1M@MFNHNHEO@?$AAe?$AAn?$AA?9?$AAz?$AAw?$AA?$AA@ 10058af8     libucrt:lcidtoname_downlevel.obj
 0002:00004b04       ??_C@_1M@EJEINPHM@?$AAe?$AAs?$AA?9?$AAa?$AAr?$AA?$AA@ 10058b04     libucrt:lcidtoname_downlevel.obj
 0002:00004b10       ??_C@_1M@GNKPCCJA@?$AAe?$AAs?$AA?9?$AAb?$AAo?$AA?$AA@ 10058b10     libucrt:lcidtoname_downlevel.obj
 0002:00004b1c       ??_C@_1M@LEEGFONL@?$AAe?$AAs?$AA?9?$AAc?$AAl?$AA?$AA@ 10058b1c     libucrt:lcidtoname_downlevel.obj
 0002:00004b28       ??_C@_1M@KGPDPBDF@?$AAe?$AAs?$AA?9?$AAc?$AAo?$AA?$AA@ 10058b28     libucrt:lcidtoname_downlevel.obj
 0002:00004b34       ??_C@_1M@EIAHOHH@?$AAe?$AAs?$AA?9?$AAc?$AAr?$AA?$AA@ 10058b34     libucrt:lcidtoname_downlevel.obj
 0002:00004b40       ??_C@_1M@LLPGMBIN@?$AAe?$AAs?$AA?9?$AAd?$AAo?$AA?$AA@ 10058b40     libucrt:lcidtoname_downlevel.obj
 0002:00004b4c       ??_C@_1M@DKHMKNJA@?$AAe?$AAs?$AA?9?$AAe?$AAc?$AA?$AA@ 10058b4c     libucrt:lcidtoname_downlevel.obj
 0002:00004b58       ??_C@_1M@GKGFPKAP@?$AAe?$AAs?$AA?9?$AAe?$AAs?$AA?$AA@ 10058b58     libucrt:lcidtoname_downlevel.obj
 0002:00004b64       ??_C@_1M@LKHKGDLN@?$AAe?$AAs?$AA?9?$AAg?$AAt?$AA?$AA@ 10058b64     libucrt:lcidtoname_downlevel.obj
 0002:00004b70       ??_C@_1M@HEIIGGJD@?$AAe?$AAs?$AA?9?$AAh?$AAn?$AA?$AA@ 10058b70     libucrt:lcidtoname_downlevel.obj
 0002:00004b7c       ??_C@_1M@FBDHPPGD@?$AAe?$AAs?$AA?9?$AAm?$AAx?$AA?$AA@ 10058b7c     libucrt:lcidtoname_downlevel.obj
 0002:00004b88       ??_C@_1M@DPAGLNDH@?$AAe?$AAs?$AA?9?$AAn?$AAi?$AA?$AA@ 10058b88     libucrt:lcidtoname_downlevel.obj
 0002:00004b94       ??_C@_1M@MDGOPGDD@?$AAe?$AAs?$AA?9?$AAp?$AAa?$AA?$AA@ 10058b94     libucrt:lcidtoname_downlevel.obj
 0002:00004ba0       ??_C@_1M@EMAMGBGE@?$AAe?$AAs?$AA?9?$AAp?$AAe?$AA?$AA@ 10058ba0     libucrt:lcidtoname_downlevel.obj
 0002:00004bac       ??_C@_1M@IBMCAOEC@?$AAe?$AAs?$AA?9?$AAp?$AAr?$AA?$AA@ 10058bac     libucrt:lcidtoname_downlevel.obj
 0002:00004bb8       ??_C@_1M@FGMDIJED@?$AAe?$AAs?$AA?9?$AAp?$AAy?$AA?$AA@ 10058bb8     libucrt:lcidtoname_downlevel.obj
 0002:00004bc4       ??_C@_1M@IIDEOLLL@?$AAe?$AAs?$AA?9?$AAs?$AAv?$AA?$AA@ 10058bc4     libucrt:lcidtoname_downlevel.obj
 0002:00004bd0       ??_C@_1M@GAOBIPA@?$AAe?$AAs?$AA?9?$AAu?$AAy?$AA?$AA@ 10058bd0     libucrt:lcidtoname_downlevel.obj
 0002:00004bdc       ??_C@_1M@JKFFICHJ@?$AAe?$AAs?$AA?9?$AAv?$AAe?$AA?$AA@ 10058bdc     libucrt:lcidtoname_downlevel.obj
 0002:00004be8       ??_C@_1M@PNMLOJDF@?$AAe?$AAt?$AA?9?$AAe?$AAe?$AA?$AA@ 10058be8     libucrt:lcidtoname_downlevel.obj
 0002:00004bf4       ??_C@_1M@GHHLIKEI@?$AAe?$AAu?$AA?9?$AAe?$AAs?$AA?$AA@ 10058bf4     libucrt:lcidtoname_downlevel.obj
 0002:00004c00       ??_C@_1M@PBNONODE@?$AAf?$AAa?$AA?9?$AAi?$AAr?$AA?$AA@ 10058c00     libucrt:lcidtoname_downlevel.obj
 0002:00004c0c       ??_C@_1M@JEEHPMIL@?$AAf?$AAi?$AA?9?$AAf?$AAi?$AA?$AA@ 10058c0c     libucrt:lcidtoname_downlevel.obj
 0002:00004c18       ??_C@_1M@LMDCNDBA@?$AAf?$AAo?$AA?9?$AAf?$AAo?$AA?$AA@ 10058c18     libucrt:lcidtoname_downlevel.obj
 0002:00004c24       ??_C@_1M@JKEOHLDK@?$AAf?$AAr?$AA?9?$AAb?$AAe?$AA?$AA@ 10058c24     libucrt:lcidtoname_downlevel.obj
 0002:00004c30       ??_C@_1M@NOHADPMI@?$AAf?$AAr?$AA?9?$AAc?$AAa?$AA?$AA@ 10058c30     libucrt:lcidtoname_downlevel.obj
 0002:00004c3c       ??_C@_1M@KDHIHAEC@?$AAf?$AAr?$AA?9?$AAc?$AAh?$AA?$AA@ 10058c3c     libucrt:lcidtoname_downlevel.obj
 0002:00004c48       ??_C@_1M@MMBBFGAK@?$AAf?$AAr?$AA?9?$AAf?$AAr?$AA?$AA@ 10058c48     libucrt:lcidtoname_downlevel.obj
 0002:00004c54       ??_C@_1M@PAFNENNF@?$AAf?$AAr?$AA?9?$AAl?$AAu?$AA?$AA@ 10058c54     libucrt:lcidtoname_downlevel.obj
 0002:00004c60       ??_C@_1M@EOHDJGDD@?$AAf?$AAr?$AA?9?$AAm?$AAc?$AA?$AA@ 10058c60     libucrt:lcidtoname_downlevel.obj
 0002:00004c6c       ??_C@_1M@FAPLLOPF@?$AAg?$AAl?$AA?9?$AAe?$AAs?$AA?$AA@ 10058c6c     libucrt:lcidtoname_downlevel.obj
 0002:00004c78       ??_C@_1M@FOPBFLOO@?$AAg?$AAu?$AA?9?$AAi?$AAn?$AA?$AA@ 10058c78     libucrt:lcidtoname_downlevel.obj
 0002:00004c84       ??_C@_1M@KBMCINPM@?$AAh?$AAe?$AA?9?$AAi?$AAl?$AA?$AA@ 10058c84     libucrt:lcidtoname_downlevel.obj
 0002:00004c90       ??_C@_1M@BBPHKFPJ@?$AAh?$AAi?$AA?9?$AAi?$AAn?$AA?$AA@ 10058c90     libucrt:lcidtoname_downlevel.obj
 0002:00004c9c       ??_C@_1M@PMBNDPHD@?$AAh?$AAr?$AA?9?$AAb?$AAa?$AA?$AA@ 10058c9c     libucrt:lcidtoname_downlevel.obj
 0002:00004ca8       ??_C@_1M@BPCKOEGE@?$AAh?$AAr?$AA?9?$AAh?$AAr?$AA?$AA@ 10058ca8     libucrt:lcidtoname_downlevel.obj
 0002:00004cb4       ??_C@_1M@GACBMHKE@?$AAh?$AAu?$AA?9?$AAh?$AAu?$AA?$AA@ 10058cb4     libucrt:lcidtoname_downlevel.obj
 0002:00004cc0       ??_C@_1M@MILPAJJC@?$AAh?$AAy?$AA?9?$AAa?$AAm?$AA?$AA@ 10058cc0     libucrt:lcidtoname_downlevel.obj
 0002:00004ccc       ??_C@_1M@BABBICEC@?$AAi?$AAd?$AA?9?$AAi?$AAd?$AA?$AA@ 10058ccc     libucrt:lcidtoname_downlevel.obj
 0002:00004cd8       ??_C@_1M@BIKNHHPF@?$AAi?$AAs?$AA?9?$AAi?$AAs?$AA?$AA@ 10058cd8     libucrt:lcidtoname_downlevel.obj
 0002:00004ce4       ??_C@_1M@NMPCJPHE@?$AAi?$AAt?$AA?9?$AAc?$AAh?$AA?$AA@ 10058ce4     libucrt:lcidtoname_downlevel.obj
 0002:00004cf0       ??_C@_1M@GHKGFEDF@?$AAi?$AAt?$AA?9?$AAi?$AAt?$AA?$AA@ 10058cf0     libucrt:lcidtoname_downlevel.obj
 0002:00004cfc       ??_C@_1M@NIEJCJJA@?$AAj?$AAa?$AA?9?$AAj?$AAp?$AA?$AA@ 10058cfc     libucrt:lcidtoname_downlevel.obj
 0002:00004d08       ??_C@_1M@JILFNBIM@?$AAk?$AAa?$AA?9?$AAg?$AAe?$AA?$AA@ 10058d08     libucrt:lcidtoname_downlevel.obj
 0002:00004d14       ??_C@_1M@PACPMGPH@?$AAk?$AAk?$AA?9?$AAk?$AAz?$AA?$AA@ 10058d14     libucrt:lcidtoname_downlevel.obj
 0002:00004d20       ??_C@_1M@IELFGMHA@?$AAk?$AAn?$AA?9?$AAi?$AAn?$AA?$AA@ 10058d20     libucrt:lcidtoname_downlevel.obj
 0002:00004d2c       ??_C@_1O@IBBJHCH@?$AAk?$AAo?$AAk?$AA?9?$AAi?$AAn?$AA?$AA@ 10058d2c     libucrt:lcidtoname_downlevel.obj
 0002:00004d3c       ??_C@_1M@DMHAEOGC@?$AAk?$AAo?$AA?9?$AAk?$AAr?$AA?$AA@ 10058d3c     libucrt:lcidtoname_downlevel.obj
 0002:00004d48       ??_C@_1M@HBAHBIGA@?$AAk?$AAy?$AA?9?$AAk?$AAg?$AA?$AA@ 10058d48     libucrt:lcidtoname_downlevel.obj
 0002:00004d54       ??_C@_1M@KPMILCJG@?$AAl?$AAt?$AA?9?$AAl?$AAt?$AA?$AA@ 10058d54     libucrt:lcidtoname_downlevel.obj
 0002:00004d60       ??_C@_1M@BDEKKCA@?$AAl?$AAv?$AA?9?$AAl?$AAv?$AA?$AA@ 10058d60     libucrt:lcidtoname_downlevel.obj
 0002:00004d6c       ??_C@_1M@ELCKCCJJ@?$AAm?$AAi?$AA?9?$AAn?$AAz?$AA?$AA@ 10058d6c     libucrt:lcidtoname_downlevel.obj
 0002:00004d78       ??_C@_1M@CBOOLAPA@?$AAm?$AAk?$AA?9?$AAm?$AAk?$AA?$AA@ 10058d78     libucrt:lcidtoname_downlevel.obj
 0002:00004d84       ??_C@_1M@GPHNBJKN@?$AAm?$AAl?$AA?9?$AAi?$AAn?$AA?$AA@ 10058d84     libucrt:lcidtoname_downlevel.obj
 0002:00004d90       ??_C@_1M@PABJILIG@?$AAm?$AAn?$AA?9?$AAm?$AAn?$AA?$AA@ 10058d90     libucrt:lcidtoname_downlevel.obj
 0002:00004d9c       ??_C@_1M@FGBKKIPG@?$AAm?$AAr?$AA?9?$AAi?$AAn?$AA?$AA@ 10058d9c     libucrt:lcidtoname_downlevel.obj
 0002:00004da8       ??_C@_1M@NDBPDDAL@?$AAm?$AAs?$AA?9?$AAb?$AAn?$AA?$AA@ 10058da8     libucrt:lcidtoname_downlevel.obj
 0002:00004db4       ??_C@_1M@OPIHOOPI@?$AAm?$AAs?$AA?9?$AAm?$AAy?$AA?$AA@ 10058db4     libucrt:lcidtoname_downlevel.obj
 0002:00004dc0       ??_C@_1M@PPDBCNFM@?$AAm?$AAt?$AA?9?$AAm?$AAt?$AA?$AA@ 10058dc0     libucrt:lcidtoname_downlevel.obj
 0002:00004dcc       ??_C@_1M@KDJDKMDD@?$AAn?$AAb?$AA?9?$AAn?$AAo?$AA?$AA@ 10058dcc     libucrt:lcidtoname_downlevel.obj
 0002:00004dd8       ??_C@_1M@KFCFLMJP@?$AAn?$AAl?$AA?9?$AAb?$AAe?$AA?$AA@ 10058dd8     libucrt:lcidtoname_downlevel.obj
 0002:00004de4       ??_C@_1M@KPOPDDGO@?$AAn?$AAl?$AA?9?$AAn?$AAl?$AA?$AA@ 10058de4     libucrt:lcidtoname_downlevel.obj
 0002:00004df0       ??_C@_1M@LJKPEMLN@?$AAn?$AAn?$AA?9?$AAn?$AAo?$AA?$AA@ 10058df0     libucrt:lcidtoname_downlevel.obj
 0002:00004dfc       ??_C@_1M@BDGHHBFL@?$AAn?$AAs?$AA?9?$AAz?$AAa?$AA?$AA@ 10058dfc     libucrt:lcidtoname_downlevel.obj
 0002:00004e08       ??_C@_1M@IDEHOAP@?$AAp?$AAa?$AA?9?$AAi?$AAn?$AA?$AA@ 10058e08     libucrt:lcidtoname_downlevel.obj
 0002:00004e14       ??_C@_1M@HDBKGOGH@?$AAp?$AAl?$AA?9?$AAp?$AAl?$AA?$AA@ 10058e14     libucrt:lcidtoname_downlevel.obj
 0002:00004e20       ??_C@_1M@LJLLCMEH@?$AAp?$AAt?$AA?9?$AAb?$AAr?$AA?$AA@ 10058e20     libucrt:lcidtoname_downlevel.obj
 0002:00004e2c       ??_C@_1M@NCMONAAL@?$AAp?$AAt?$AA?9?$AAp?$AAt?$AA?$AA@ 10058e2c     libucrt:lcidtoname_downlevel.obj
 0002:00004e38       ??_C@_1O@EAKMAJDN@?$AAq?$AAu?$AAz?$AA?9?$AAb?$AAo?$AA?$AA@ 10058e38     libucrt:lcidtoname_downlevel.obj
 0002:00004e48       ??_C@_1O@BHHPIGDN@?$AAq?$AAu?$AAz?$AA?9?$AAe?$AAc?$AA?$AA@ 10058e48     libucrt:lcidtoname_downlevel.obj
 0002:00004e58       ??_C@_1O@GBAPEKMJ@?$AAq?$AAu?$AAz?$AA?9?$AAp?$AAe?$AA?$AA@ 10058e58     libucrt:lcidtoname_downlevel.obj
 0002:00004e68       ??_C@_1M@CLGLEFBO@?$AAr?$AAo?$AA?9?$AAr?$AAo?$AA?$AA@ 10058e68     libucrt:lcidtoname_downlevel.obj
 0002:00004e74       ??_C@_1M@CEEDODME@?$AAr?$AAu?$AA?9?$AAr?$AAu?$AA?$AA@ 10058e74     libucrt:lcidtoname_downlevel.obj
 0002:00004e80       ??_C@_1M@HPKKKMPP@?$AAs?$AAa?$AA?9?$AAi?$AAn?$AA?$AA@ 10058e80     libucrt:lcidtoname_downlevel.obj
 0002:00004e8c       ??_C@_1M@BKMAIGOJ@?$AAs?$AAe?$AA?9?$AAf?$AAi?$AA?$AA@ 10058e8c     libucrt:lcidtoname_downlevel.obj
 0002:00004e98       ??_C@_1M@NDPIFLFI@?$AAs?$AAe?$AA?9?$AAn?$AAo?$AA?$AA@ 10058e98     libucrt:lcidtoname_downlevel.obj
 0002:00004ea4       ??_C@_1M@DANKKHJ@?$AAs?$AAe?$AA?9?$AAs?$AAe?$AA?$AA@ 10058ea4     libucrt:lcidtoname_downlevel.obj
 0002:00004eb0       ??_C@_1M@PNBLONPJ@?$AAs?$AAk?$AA?9?$AAs?$AAk?$AA?$AA@ 10058eb0     libucrt:lcidtoname_downlevel.obj
 0002:00004ebc       ??_C@_1M@LFMODOAL@?$AAs?$AAl?$AA?9?$AAs?$AAi?$AA?$AA@ 10058ebc     libucrt:lcidtoname_downlevel.obj
 0002:00004ec8       ??_C@_1O@DFKOMPG@?$AAs?$AAm?$AAa?$AA?9?$AAn?$AAo?$AA?$AA@ 10058ec8     libucrt:lcidtoname_downlevel.obj
 0002:00004ed8       ??_C@_1O@NDKPBNNH@?$AAs?$AAm?$AAa?$AA?9?$AAs?$AAe?$AA?$AA@ 10058ed8     libucrt:lcidtoname_downlevel.obj
 0002:00004ee8       ??_C@_1O@PLLKBHAB@?$AAs?$AAm?$AAj?$AA?9?$AAn?$AAo?$AA?$AA@ 10058ee8     libucrt:lcidtoname_downlevel.obj
 0002:00004ef8       ??_C@_1O@CLEPOGCA@?$AAs?$AAm?$AAj?$AA?9?$AAs?$AAe?$AA?$AA@ 10058ef8     libucrt:lcidtoname_downlevel.obj
 0002:00004f08       ??_C@_1O@DLGJGKMK@?$AAs?$AAm?$AAn?$AA?9?$AAf?$AAi?$AA?$AA@ 10058f08     libucrt:lcidtoname_downlevel.obj
 0002:00004f18       ??_C@_1O@OJDJGAJC@?$AAs?$AAm?$AAs?$AA?9?$AAf?$AAi?$AA?$AA@ 10058f18     libucrt:lcidtoname_downlevel.obj
 0002:00004f28       ??_C@_1M@BOFOGHPB@?$AAs?$AAq?$AA?9?$AAa?$AAl?$AA?$AA@ 10058f28     libucrt:lcidtoname_downlevel.obj
 0002:00004f34       ??_C@_1BG@LJBBIPGB@?$AAs?$AAr?$AA?9?$AAb?$AAa?$AA?9?$AAc?$AAy?$AAr?$AAl?$AA?$AA@ 10058f34     libucrt:lcidtoname_downlevel.obj
 0002:00004f4c       ??_C@_1BG@JLBENFOE@?$AAs?$AAr?$AA?9?$AAb?$AAa?$AA?9?$AAl?$AAa?$AAt?$AAn?$AA?$AA@ 10058f4c     libucrt:lcidtoname_downlevel.obj
 0002:00004f64       ??_C@_1BG@KODPNHE@?$AAs?$AAr?$AA?9?$AAs?$AAp?$AA?9?$AAc?$AAy?$AAr?$AAl?$AA?$AA@ 10058f64     libucrt:lcidtoname_downlevel.obj
 0002:00004f7c       ??_C@_1BG@CIOGKHPB@?$AAs?$AAr?$AA?9?$AAs?$AAp?$AA?9?$AAl?$AAa?$AAt?$AAn?$AA?$AA@ 10058f7c     libucrt:lcidtoname_downlevel.obj
 0002:00004f94       ??_C@_1M@NGFJLMAC@?$AAs?$AAv?$AA?9?$AAf?$AAi?$AA?$AA@ 10058f94     libucrt:lcidtoname_downlevel.obj
 0002:00004fa0       ??_C@_1M@MPJEJAJC@?$AAs?$AAv?$AA?9?$AAs?$AAe?$AA?$AA@ 10058fa0     libucrt:lcidtoname_downlevel.obj
 0002:00004fac       ??_C@_1M@MPNDHLFK@?$AAs?$AAw?$AA?9?$AAk?$AAe?$AA?$AA@ 10058fac     libucrt:lcidtoname_downlevel.obj
 0002:00004fb8       ??_C@_1O@KOHBJJI@?$AAs?$AAy?$AAr?$AA?9?$AAs?$AAy?$AA?$AA@ 10058fb8     libucrt:lcidtoname_downlevel.obj
 0002:00004fc8       ??_C@_1M@LDCEFHA@?$AAt?$AAa?$AA?9?$AAi?$AAn?$AA?$AA@ 10058fc8     libucrt:lcidtoname_downlevel.obj
 0002:00004fd4       ??_C@_1M@CNJOFAK@?$AAt?$AAe?$AA?9?$AAi?$AAn?$AA?$AA@ 10058fd4     libucrt:lcidtoname_downlevel.obj
 0002:00004fe0       ??_C@_1M@GNAECACD@?$AAt?$AAh?$AA?9?$AAt?$AAh?$AA?$AA@ 10058fe0     libucrt:lcidtoname_downlevel.obj
 0002:00004fec       ??_C@_1M@CHBIHOJO@?$AAt?$AAn?$AA?9?$AAz?$AAa?$AA?$AA@ 10058fec     libucrt:lcidtoname_downlevel.obj
 0002:00004ff8       ??_C@_1M@GCCMIGPJ@?$AAt?$AAr?$AA?9?$AAt?$AAr?$AA?$AA@ 10058ff8     libucrt:lcidtoname_downlevel.obj
 0002:00005004       ??_C@_1M@CELMCNBK@?$AAt?$AAt?$AA?9?$AAr?$AAu?$AA?$AA@ 10059004     libucrt:lcidtoname_downlevel.obj
 0002:00005010       ??_C@_1M@KLMCELGA@?$AAu?$AAk?$AA?9?$AAu?$AAa?$AA?$AA@ 10059010     libucrt:lcidtoname_downlevel.obj
 0002:0000501c       ??_C@_1M@EPAJJAJF@?$AAu?$AAr?$AA?9?$AAp?$AAk?$AA?$AA@ 1005901c     libucrt:lcidtoname_downlevel.obj
 0002:00005028       ??_C@_1BG@GEGPMCDJ@?$AAu?$AAz?$AA?9?$AAu?$AAz?$AA?9?$AAc?$AAy?$AAr?$AAl?$AA?$AA@ 10059028     libucrt:lcidtoname_downlevel.obj
 0002:00005040       ??_C@_1BG@EGGKJILM@?$AAu?$AAz?$AA?9?$AAu?$AAz?$AA?9?$AAl?$AAa?$AAt?$AAn?$AA?$AA@ 10059040     libucrt:lcidtoname_downlevel.obj
 0002:00005058       ??_C@_1M@GFOCLFF@?$AAv?$AAi?$AA?9?$AAv?$AAn?$AA?$AA@ 10059058     libucrt:lcidtoname_downlevel.obj
 0002:00005064       ??_C@_1M@CPAMEDFI@?$AAx?$AAh?$AA?9?$AAz?$AAa?$AA?$AA@ 10059064     libucrt:lcidtoname_downlevel.obj
 0002:00005070       ??_C@_1O@EBKIFIGN@?$AAz?$AAh?$AA?9?$AAc?$AAh?$AAs?$AA?$AA@ 10059070     libucrt:lcidtoname_downlevel.obj
 0002:00005080       ??_C@_1O@NMHPGANE@?$AAz?$AAh?$AA?9?$AAc?$AAh?$AAt?$AA?$AA@ 10059080     libucrt:lcidtoname_downlevel.obj
 0002:00005090       ??_C@_1M@LPINJOMC@?$AAz?$AAh?$AA?9?$AAc?$AAn?$AA?$AA@ 10059090     libucrt:lcidtoname_downlevel.obj
 0002:0000509c       ??_C@_1M@OCJEJODD@?$AAz?$AAh?$AA?9?$AAh?$AAk?$AA?$AA@ 1005909c     libucrt:lcidtoname_downlevel.obj
 0002:000050a8       ??_C@_1M@DNDLJINH@?$AAz?$AAh?$AA?9?$AAm?$AAo?$AA?$AA@ 100590a8     libucrt:lcidtoname_downlevel.obj
 0002:000050b4       ??_C@_1M@MBFDNDND@?$AAz?$AAh?$AA?9?$AAs?$AAg?$AA?$AA@ 100590b4     libucrt:lcidtoname_downlevel.obj
 0002:000050c0       ??_C@_1M@IMEPLEPE@?$AAz?$AAh?$AA?9?$AAt?$AAw?$AA?$AA@ 100590c0     libucrt:lcidtoname_downlevel.obj
 0002:000050cc       ??_C@_1M@BBGHNHJP@?$AAz?$AAu?$AA?9?$AAz?$AAa?$AA?$AA@ 100590cc     libucrt:lcidtoname_downlevel.obj
 0002:000050d8       ___acrt_rg_language        100590d8     libucrt:get_qualified_locale.obj
 0002:000053e4       ___acrt_rg_language_count  100593e4     libucrt:get_qualified_locale.obj
 0002:000053e8       ___acrt_rg_country         100593e8     libucrt:get_qualified_locale.obj
 0002:000054fc       ___acrt_rg_country_count   100594fc     libucrt:get_qualified_locale.obj
 0002:00005500       ??_C@_1BC@LLOKLNP@?$AAa?$AAm?$AAe?$AAr?$AAi?$AAc?$AAa?$AAn?$AA?$AA@ 10059500     libucrt:get_qualified_locale.obj
 0002:00005514       ??_C@_1CC@HEIGCDGG@?$AAa?$AAm?$AAe?$AAr?$AAi?$AAc?$AAa?$AAn?$AA?5?$AAe?$AAn?$AAg?$AAl?$AAi?$AAs?$AAh?$AA?$AA@ 10059514     libucrt:get_qualified_locale.obj
 0002:00005538       ??_C@_1CC@IHCNOMIN@?$AAa?$AAm?$AAe?$AAr?$AAi?$AAc?$AAa?$AAn?$AA?9?$AAe?$AAn?$AAg?$AAl?$AAi?$AAs?$AAh?$AA?$AA@ 10059538     libucrt:get_qualified_locale.obj
 0002:0000555c       ??_C@_1BG@GKAGPCGG@?$AAa?$AAu?$AAs?$AAt?$AAr?$AAa?$AAl?$AAi?$AAa?$AAn?$AA?$AA@ 1005955c     libucrt:get_qualified_locale.obj
 0002:00005574       ??_C@_1BA@GMENCENF@?$AAb?$AAe?$AAl?$AAg?$AAi?$AAa?$AAn?$AA?$AA@ 10059574     libucrt:get_qualified_locale.obj
 0002:00005584       ??_C@_1BC@PJMIIAAN@?$AAc?$AAa?$AAn?$AAa?$AAd?$AAi?$AAa?$AAn?$AA?$AA@ 10059584     libucrt:get_qualified_locale.obj
 0002:00005598       ??_C@_17NOIMNFBF@?$AAc?$AAh?$AAh?$AA?$AA@ 10059598     libucrt:get_qualified_locale.obj
 0002:000055a0       ??_C@_17GGDALCHA@?$AAc?$AAh?$AAi?$AA?$AA@ 100595a0     libucrt:get_qualified_locale.obj
 0002:000055a8       ??_C@_1BA@NPNJKIBL@?$AAc?$AAh?$AAi?$AAn?$AAe?$AAs?$AAe?$AA?$AA@ 100595a8     libucrt:get_qualified_locale.obj
 0002:000055b8       ??_C@_1CC@DINBAMMJ@?$AAc?$AAh?$AAi?$AAn?$AAe?$AAs?$AAe?$AA?9?$AAh?$AAo?$AAn?$AAg?$AAk?$AAo?$AAn?$AAg?$AA?$AA@ 100595b8     libucrt:get_qualified_locale.obj
 0002:000055dc       ??_C@_1CG@IOBJPACO@?$AAc?$AAh?$AAi?$AAn?$AAe?$AAs?$AAe?$AA?9?$AAs?$AAi?$AAm?$AAp?$AAl?$AAi?$AAf?$AAi?$AAe?$AAd?$AA?$AA@ 100595dc     libucrt:get_qualified_locale.obj
 0002:00005604       ??_C@_1CE@GAJNDCKG@?$AAc?$AAh?$AAi?$AAn?$AAe?$AAs?$AAe?$AA?9?$AAs?$AAi?$AAn?$AAg?$AAa?$AAp?$AAo?$AAr?$AAe?$AA?$AA@ 10059604     libucrt:get_qualified_locale.obj
 0002:00005628       ??_C@_1CI@PAJPIOOD@?$AAc?$AAh?$AAi?$AAn?$AAe?$AAs?$AAe?$AA?9?$AAt?$AAr?$AAa?$AAd?$AAi?$AAt?$AAi?$AAo?$AAn?$AAa?$AAl?$AA?$AA@ 10059628     libucrt:get_qualified_locale.obj
 0002:00005650       ??_C@_1BM@NILJBMMD@?$AAd?$AAu?$AAt?$AAc?$AAh?$AA?9?$AAb?$AAe?$AAl?$AAg?$AAi?$AAa?$AAn?$AA?$AA@ 10059650     libucrt:get_qualified_locale.obj
 0002:0000566c       ??_C@_1CC@OOJPJNEJ@?$AAe?$AAn?$AAg?$AAl?$AAi?$AAs?$AAh?$AA?9?$AAa?$AAm?$AAe?$AAr?$AAi?$AAc?$AAa?$AAn?$AA?$AA@ 1005966c     libucrt:get_qualified_locale.obj
 0002:00005690       ??_C@_1BI@IOLFEEM@?$AAe?$AAn?$AAg?$AAl?$AAi?$AAs?$AAh?$AA?9?$AAa?$AAu?$AAs?$AA?$AA@ 10059690     libucrt:get_qualified_locale.obj
 0002:000056a8       ??_C@_1BO@HFFNLENJ@?$AAe?$AAn?$AAg?$AAl?$AAi?$AAs?$AAh?$AA?9?$AAb?$AAe?$AAl?$AAi?$AAz?$AAe?$AA?$AA@ 100596a8     libucrt:get_qualified_locale.obj
 0002:000056c8       ??_C@_1BI@HAPKJMPO@?$AAe?$AAn?$AAg?$AAl?$AAi?$AAs?$AAh?$AA?9?$AAc?$AAa?$AAn?$AA?$AA@ 100596c8     libucrt:get_qualified_locale.obj
 0002:000056e0       ??_C@_1CE@HLNDMIOJ@?$AAe?$AAn?$AAg?$AAl?$AAi?$AAs?$AAh?$AA?9?$AAc?$AAa?$AAr?$AAi?$AAb?$AAb?$AAe?$AAa?$AAn?$AA?$AA@ 100596e0     libucrt:get_qualified_locale.obj
 0002:00005704       ??_C@_1BI@LDHJHHAC@?$AAe?$AAn?$AAg?$AAl?$AAi?$AAs?$AAh?$AA?9?$AAi?$AAr?$AAe?$AA?$AA@ 10059704     libucrt:get_qualified_locale.obj
 0002:0000571c       ??_C@_1CA@NJMMCFOC@?$AAe?$AAn?$AAg?$AAl?$AAi?$AAs?$AAh?$AA?9?$AAj?$AAa?$AAm?$AAa?$AAi?$AAc?$AAa?$AA?$AA@ 1005971c     libucrt:get_qualified_locale.obj
 0002:0000573c       ??_C@_1BG@BHJEBBGG@?$AAe?$AAn?$AAg?$AAl?$AAi?$AAs?$AAh?$AA?9?$AAn?$AAz?$AA?$AA@ 1005973c     libucrt:get_qualified_locale.obj
 0002:00005754       ??_C@_1CK@FGOEJJCO@?$AAe?$AAn?$AAg?$AAl?$AAi?$AAs?$AAh?$AA?9?$AAs?$AAo?$AAu?$AAt?$AAh?$AA?5?$AAa?$AAf?$AAr?$AAi?$AAc?$AAa?$AA?$AA@ 10059754     libucrt:get_qualified_locale.obj
 0002:00005780       ??_C@_1DE@PDBJPCJ@?$AAe?$AAn?$AAg?$AAl?$AAi?$AAs?$AAh?$AA?9?$AAt?$AAr?$AAi?$AAn?$AAi?$AAd?$AAa?$AAd?$AA?5?$AAy?$AA?5?$AAt?$AAo?$AAb?$AAa?$AAg?$AAo?$AA?$AA@ 10059780     libucrt:get_qualified_locale.obj
 0002:000057b4       ??_C@_1BG@JGCANDME@?$AAe?$AAn?$AAg?$AAl?$AAi?$AAs?$AAh?$AA?9?$AAu?$AAk?$AA?$AA@ 100597b4     libucrt:get_qualified_locale.obj
 0002:000057cc       ??_C@_1BG@DINKMLE@?$AAe?$AAn?$AAg?$AAl?$AAi?$AAs?$AAh?$AA?9?$AAu?$AAs?$AA?$AA@ 100597cc     libucrt:get_qualified_locale.obj
 0002:000057e4       ??_C@_1BI@NMFDBHJE@?$AAe?$AAn?$AAg?$AAl?$AAi?$AAs?$AAh?$AA?9?$AAu?$AAs?$AAa?$AA?$AA@ 100597e4     libucrt:get_qualified_locale.obj
 0002:000057fc       ??_C@_1BO@OIHKJKII@?$AAf?$AAr?$AAe?$AAn?$AAc?$AAh?$AA?9?$AAb?$AAe?$AAl?$AAg?$AAi?$AAa?$AAn?$AA?$AA@ 100597fc     libucrt:get_qualified_locale.obj
 0002:0000581c       ??_C@_1CA@NKAELJKI@?$AAf?$AAr?$AAe?$AAn?$AAc?$AAh?$AA?9?$AAc?$AAa?$AAn?$AAa?$AAd?$AAi?$AAa?$AAn?$AA?$AA@ 1005981c     libucrt:get_qualified_locale.obj
 0002:0000583c       ??_C@_1CE@MGKCNLGN@?$AAf?$AAr?$AAe?$AAn?$AAc?$AAh?$AA?9?$AAl?$AAu?$AAx?$AAe?$AAm?$AAb?$AAo?$AAu?$AAr?$AAg?$AA?$AA@ 1005983c     libucrt:get_qualified_locale.obj
 0002:00005860       ??_C@_1BK@CEGEAILM@?$AAf?$AAr?$AAe?$AAn?$AAc?$AAh?$AA?9?$AAs?$AAw?$AAi?$AAs?$AAs?$AA?$AA@ 10059860     libucrt:get_qualified_locale.obj
 0002:0000587c       ??_C@_1CA@PAFKEOCC@?$AAg?$AAe?$AAr?$AAm?$AAa?$AAn?$AA?9?$AAa?$AAu?$AAs?$AAt?$AAr?$AAi?$AAa?$AAn?$AA?$AA@ 1005987c     libucrt:get_qualified_locale.obj
 0002:0000589c       ??_C@_1CI@HCFHGOFD@?$AAg?$AAe?$AAr?$AAm?$AAa?$AAn?$AA?9?$AAl?$AAi?$AAc?$AAh?$AAt?$AAe?$AAn?$AAs?$AAt?$AAe?$AAi?$AAn?$AA?$AA@ 1005989c     libucrt:get_qualified_locale.obj
 0002:000058c4       ??_C@_1CE@FEDDNPDG@?$AAg?$AAe?$AAr?$AAm?$AAa?$AAn?$AA?9?$AAl?$AAu?$AAx?$AAe?$AAm?$AAb?$AAo?$AAu?$AAr?$AAg?$AA?$AA@ 100598c4     libucrt:get_qualified_locale.obj
 0002:000058e8       ??_C@_1BK@LIMINNMN@?$AAg?$AAe?$AAr?$AAm?$AAa?$AAn?$AA?9?$AAs?$AAw?$AAi?$AAs?$AAs?$AA?$AA@ 100598e8     libucrt:get_qualified_locale.obj
 0002:00005904       ??_C@_1BM@LGMDBEPD@?$AAi?$AAr?$AAi?$AAs?$AAh?$AA?9?$AAe?$AAn?$AAg?$AAl?$AAi?$AAs?$AAh?$AA?$AA@ 10059904     libucrt:get_qualified_locale.obj
 0002:00005920       ??_C@_1BM@NNCFBAEE@?$AAi?$AAt?$AAa?$AAl?$AAi?$AAa?$AAn?$AA?9?$AAs?$AAw?$AAi?$AAs?$AAs?$AA?$AA@ 10059920     libucrt:get_qualified_locale.obj
 0002:0000593c       ??_C@_1BE@FEDJNPIB@?$AAn?$AAo?$AAr?$AAw?$AAe?$AAg?$AAi?$AAa?$AAn?$AA?$AA@ 1005993c     libucrt:get_qualified_locale.obj
 0002:00005950       ??_C@_1CC@CILKDEIE@?$AAn?$AAo?$AAr?$AAw?$AAe?$AAg?$AAi?$AAa?$AAn?$AA?9?$AAb?$AAo?$AAk?$AAm?$AAa?$AAl?$AA?$AA@ 10059950     libucrt:get_qualified_locale.obj
 0002:00005974       ??_C@_1CE@DHMMHEPL@?$AAn?$AAo?$AAr?$AAw?$AAe?$AAg?$AAi?$AAa?$AAn?$AA?9?$AAn?$AAy?$AAn?$AAo?$AAr?$AAs?$AAk?$AA?$AA@ 10059974     libucrt:get_qualified_locale.obj
 0002:00005998       ??_C@_1CK@OPNMHECD@?$AAp?$AAo?$AAr?$AAt?$AAu?$AAg?$AAu?$AAe?$AAs?$AAe?$AA?9?$AAb?$AAr?$AAa?$AAz?$AAi?$AAl?$AAi?$AAa?$AAn?$AA?$AA@ 10059998     libucrt:get_qualified_locale.obj
 0002:000059c4       ??_C@_1CE@KEEHCDB@?$AAs?$AAp?$AAa?$AAn?$AAi?$AAs?$AAh?$AA?9?$AAa?$AAr?$AAg?$AAe?$AAn?$AAt?$AAi?$AAn?$AAa?$AA?$AA@ 100599c4     libucrt:get_qualified_locale.obj
 0002:000059e8       ??_C@_1CA@GIAOLHJD@?$AAs?$AAp?$AAa?$AAn?$AAi?$AAs?$AAh?$AA?9?$AAb?$AAo?$AAl?$AAi?$AAv?$AAi?$AAa?$AA?$AA@ 100599e8     libucrt:get_qualified_locale.obj
 0002:00005a08       ??_C@_1BM@OJNDFNPD@?$AAs?$AAp?$AAa?$AAn?$AAi?$AAs?$AAh?$AA?9?$AAc?$AAh?$AAi?$AAl?$AAe?$AA?$AA@ 10059a08     libucrt:get_qualified_locale.obj
 0002:00005a24       ??_C@_1CC@OCOLPALL@?$AAs?$AAp?$AAa?$AAn?$AAi?$AAs?$AAh?$AA?9?$AAc?$AAo?$AAl?$AAo?$AAm?$AAb?$AAi?$AAa?$AA?$AA@ 10059a24     libucrt:get_qualified_locale.obj
 0002:00005a48       ??_C@_1CG@BPOFMKBB@?$AAs?$AAp?$AAa?$AAn?$AAi?$AAs?$AAh?$AA?9?$AAc?$AAo?$AAs?$AAt?$AAa?$AA?5?$AAr?$AAi?$AAc?$AAa?$AA?$AA@ 10059a48     libucrt:get_qualified_locale.obj
 0002:00005a70       ??_C@_1DG@IGOBAPBB@?$AAs?$AAp?$AAa?$AAn?$AAi?$AAs?$AAh?$AA?9?$AAd?$AAo?$AAm?$AAi?$AAn?$AAi?$AAc?$AAa?$AAn?$AA?5?$AAr?$AAe?$AAp?$AAu?$AAb?$AAl?$AAi?$AAc?$AA?$AA@ 10059a70     libucrt:get_qualified_locale.obj
 0002:00005aa8       ??_C@_1CA@JHAPGEGI@?$AAs?$AAp?$AAa?$AAn?$AAi?$AAs?$AAh?$AA?9?$AAe?$AAc?$AAu?$AAa?$AAd?$AAo?$AAr?$AA?$AA@ 10059aa8     libucrt:get_qualified_locale.obj
 0002:00005ac8       ??_C@_1CI@LAPALJPP@?$AAs?$AAp?$AAa?$AAn?$AAi?$AAs?$AAh?$AA?9?$AAe?$AAl?$AA?5?$AAs?$AAa?$AAl?$AAv?$AAa?$AAd?$AAo?$AAr?$AA?$AA@ 10059ac8     libucrt:get_qualified_locale.obj
 0002:00005af0       ??_C@_1CE@PDGBOFOM@?$AAs?$AAp?$AAa?$AAn?$AAi?$AAs?$AAh?$AA?9?$AAg?$AAu?$AAa?$AAt?$AAe?$AAm?$AAa?$AAl?$AAa?$AA?$AA@ 10059af0     libucrt:get_qualified_locale.obj
 0002:00005b14       ??_C@_1CC@NBEBAODI@?$AAs?$AAp?$AAa?$AAn?$AAi?$AAs?$AAh?$AA?9?$AAh?$AAo?$AAn?$AAd?$AAu?$AAr?$AAa?$AAs?$AA?$AA@ 10059b14     libucrt:get_qualified_locale.obj
 0002:00005b38       ??_C@_1CA@LLKGHBMF@?$AAs?$AAp?$AAa?$AAn?$AAi?$AAs?$AAh?$AA?9?$AAm?$AAe?$AAx?$AAi?$AAc?$AAa?$AAn?$AA?$AA@ 10059b38     libucrt:get_qualified_locale.obj
 0002:00005b58       ??_C@_1BO@LKNDOIGD@?$AAs?$AAp?$AAa?$AAn?$AAi?$AAs?$AAh?$AA?9?$AAm?$AAo?$AAd?$AAe?$AAr?$AAn?$AA?$AA@ 10059b58     libucrt:get_qualified_locale.obj
 0002:00005b78       ??_C@_1CE@NMDMOEEB@?$AAs?$AAp?$AAa?$AAn?$AAi?$AAs?$AAh?$AA?9?$AAn?$AAi?$AAc?$AAa?$AAr?$AAa?$AAg?$AAu?$AAa?$AA?$AA@ 10059b78     libucrt:get_qualified_locale.obj
 0002:00005b9c       ??_C@_1BO@LLCBEJGB@?$AAs?$AAp?$AAa?$AAn?$AAi?$AAs?$AAh?$AA?9?$AAp?$AAa?$AAn?$AAa?$AAm?$AAa?$AA?$AA@ 10059b9c     libucrt:get_qualified_locale.obj
 0002:00005bbc       ??_C@_1CC@FKPGGIHO@?$AAs?$AAp?$AAa?$AAn?$AAi?$AAs?$AAh?$AA?9?$AAp?$AAa?$AAr?$AAa?$AAg?$AAu?$AAa?$AAy?$AA?$AA@ 10059bbc     libucrt:get_qualified_locale.obj
 0002:00005be0       ??_C@_1BK@CDEIHOOP@?$AAs?$AAp?$AAa?$AAn?$AAi?$AAs?$AAh?$AA?9?$AAp?$AAe?$AAr?$AAu?$AA?$AA@ 10059be0     libucrt:get_qualified_locale.obj
 0002:00005bfc       ??_C@_1CI@GAHAKKGP@?$AAs?$AAp?$AAa?$AAn?$AAi?$AAs?$AAh?$AA?9?$AAp?$AAu?$AAe?$AAr?$AAt?$AAo?$AA?5?$AAr?$AAi?$AAc?$AAo?$AA?$AA@ 10059bfc     libucrt:get_qualified_locale.obj
 0002:00005c24       ??_C@_1CA@NKJBCAGP@?$AAs?$AAp?$AAa?$AAn?$AAi?$AAs?$AAh?$AA?9?$AAu?$AAr?$AAu?$AAg?$AAu?$AAa?$AAy?$AA?$AA@ 10059c24     libucrt:get_qualified_locale.obj
 0002:00005c44       ??_C@_1CE@ODILCONM@?$AAs?$AAp?$AAa?$AAn?$AAi?$AAs?$AAh?$AA?9?$AAv?$AAe?$AAn?$AAe?$AAz?$AAu?$AAe?$AAl?$AAa?$AA?$AA@ 10059c44     libucrt:get_qualified_locale.obj
 0002:00005c68       ??_C@_1CA@OBNMCGFO@?$AAs?$AAw?$AAe?$AAd?$AAi?$AAs?$AAh?$AA?9?$AAf?$AAi?$AAn?$AAl?$AAa?$AAn?$AAd?$AA?$AA@ 10059c68     libucrt:get_qualified_locale.obj
 0002:00005c88       ??_C@_1M@PIPDDPPI@?$AAs?$AAw?$AAi?$AAs?$AAs?$AA?$AA@ 10059c88     libucrt:get_qualified_locale.obj
 0002:00005c94       ??_C@_15GMFIMNFM@?$AAu?$AAs?$AA?$AA@ 10059c94     libucrt:get_qualified_locale.obj
 0002:00005c9c       ??_C@_17HAEBFAGL@?$AAu?$AAs?$AAa?$AA?$AA@ 10059c9c     libucrt:get_qualified_locale.obj
 0002:00005ca4       ??_C@_1BA@DPFJEPHB@?$AAa?$AAm?$AAe?$AAr?$AAi?$AAc?$AAa?$AA?$AA@ 10059ca4     libucrt:get_qualified_locale.obj
 0002:00005cb4       ??_C@_1BA@ELOGGFK@?$AAb?$AAr?$AAi?$AAt?$AAa?$AAi?$AAn?$AA?$AA@ 10059cb4     libucrt:get_qualified_locale.obj
 0002:00005cc4       ??_C@_1M@GHBGIGDA@?$AAc?$AAh?$AAi?$AAn?$AAa?$AA?$AA@ 10059cc4     libucrt:get_qualified_locale.obj
 0002:00005cd0       ??_C@_1M@NCHEJOPO@?$AAc?$AAz?$AAe?$AAc?$AAh?$AA?$AA@ 10059cd0     libucrt:get_qualified_locale.obj
 0002:00005cdc       ??_C@_1BA@BKPAPBLA@?$AAe?$AAn?$AAg?$AAl?$AAa?$AAn?$AAd?$AA?$AA@ 10059cdc     libucrt:get_qualified_locale.obj
 0002:00005cec       ??_C@_1BM@HKBCKIPC@?$AAg?$AAr?$AAe?$AAa?$AAt?$AA?5?$AAb?$AAr?$AAi?$AAt?$AAa?$AAi?$AAn?$AA?$AA@ 10059cec     libucrt:get_qualified_locale.obj
 0002:00005d08       ??_C@_1BA@PPCHPGJB@?$AAh?$AAo?$AAl?$AAl?$AAa?$AAn?$AAd?$AA?$AA@ 10059d08     libucrt:get_qualified_locale.obj
 0002:00005d18       ??_C@_1BE@JBMPEGDG@?$AAh?$AAo?$AAn?$AAg?$AA?9?$AAk?$AAo?$AAn?$AAg?$AA?$AA@ 10059d18     libucrt:get_qualified_locale.obj
 0002:00005d2c       ??_C@_1BI@KOELBBPJ@?$AAn?$AAe?$AAw?$AA?9?$AAz?$AAe?$AAa?$AAl?$AAa?$AAn?$AAd?$AA?$AA@ 10059d2c     libucrt:get_qualified_locale.obj
 0002:00005d44       ??_C@_15HIEBHAIO@?$AAn?$AAz?$AA?$AA@ 10059d44     libucrt:get_qualified_locale.obj
 0002:00005d4c       ??_C@_1BC@CHBCPFPI@?$AAp?$AAr?$AA?5?$AAc?$AAh?$AAi?$AAn?$AAa?$AA?$AA@ 10059d4c     libucrt:get_qualified_locale.obj
 0002:00005d60       ??_C@_1BC@JAOIIFKD@?$AAp?$AAr?$AA?9?$AAc?$AAh?$AAi?$AAn?$AAa?$AA?$AA@ 10059d60     libucrt:get_qualified_locale.obj
 0002:00005d74       ??_C@_1BI@BEHPPHKC@?$AAp?$AAu?$AAe?$AAr?$AAt?$AAo?$AA?9?$AAr?$AAi?$AAc?$AAo?$AA?$AA@ 10059d74     libucrt:get_qualified_locale.obj
 0002:00005d8c       ??_C@_1O@PAEOFKDI@?$AAs?$AAl?$AAo?$AAv?$AAa?$AAk?$AA?$AA@ 10059d8c     libucrt:get_qualified_locale.obj
 0002:00005d9c       ??_C@_1BK@FIHMCKAM@?$AAs?$AAo?$AAu?$AAt?$AAh?$AA?5?$AAa?$AAf?$AAr?$AAi?$AAc?$AAa?$AA?$AA@ 10059d9c     libucrt:get_qualified_locale.obj
 0002:00005db8       ??_C@_1BI@NAEOODKB@?$AAs?$AAo?$AAu?$AAt?$AAh?$AA?5?$AAk?$AAo?$AAr?$AAe?$AAa?$AA?$AA@ 10059db8     libucrt:get_qualified_locale.obj
 0002:00005dd0       ??_C@_1BK@FBDGGIFF@?$AAs?$AAo?$AAu?$AAt?$AAh?$AA?9?$AAa?$AAf?$AAr?$AAi?$AAc?$AAa?$AA?$AA@ 10059dd0     libucrt:get_qualified_locale.obj
 0002:00005dec       ??_C@_1BI@GHLEJDPK@?$AAs?$AAo?$AAu?$AAt?$AAh?$AA?9?$AAk?$AAo?$AAr?$AAe?$AAa?$AA?$AA@ 10059dec     libucrt:get_qualified_locale.obj
 0002:00005e04       ??_C@_1CE@PLHLOMJF@?$AAt?$AAr?$AAi?$AAn?$AAi?$AAd?$AAa?$AAd?$AA?5?$AA?$CG?$AA?5?$AAt?$AAo?$AAb?$AAa?$AAg?$AAo?$AA?$AA@ 10059e04     libucrt:get_qualified_locale.obj
 0002:00005e28       ??_C@_1BO@MODIMHHI@?$AAu?$AAn?$AAi?$AAt?$AAe?$AAd?$AA?9?$AAk?$AAi?$AAn?$AAg?$AAd?$AAo?$AAm?$AA?$AA@ 10059e28     libucrt:get_qualified_locale.obj
 0002:00005e48       ??_C@_1BM@FFHJONBJ@?$AAu?$AAn?$AAi?$AAt?$AAe?$AAd?$AA?9?$AAs?$AAt?$AAa?$AAt?$AAe?$AAs?$AA?$AA@ 10059e48     libucrt:get_qualified_locale.obj
 0002:00005e64       ??_C@_17DNCLJFIF@?$AAA?$AAC?$AAP?$AA?$AA@ 10059e64     libucrt:get_qualified_locale.obj
 0002:00005e6c       ??_C@_17CIKBIHLH@?$AAO?$AAC?$AAP?$AA?$AA@ 10059e6c     libucrt:get_qualified_locale.obj
 0002:00005e74       ___rglangidNotDefault      10059e74     libucrt:getqloc_downlevel.obj
 0002:00005e88       ??_C@_00CNPNBAHC@?$AA@     10059e88     libucrt:mbrtowc.obj
 0002:00005e90       ?large_power_data@?1??multiply_by_power_of_ten@__crt_strtox@@YA_NAAUbig_integer@2@I@Z@4QBIB 10059e90     libucrt:cfout.obj
 0002:00006798       ?large_power_indices@?1??multiply_by_power_of_ten@__crt_strtox@@YA_NAAUbig_integer@2@I@Z@4QBUunpack_index@?1??12@YA_N0I@Z@B 1005a798     libucrt:cfout.obj
 0002:00006830       ?small_powers_of_ten@?1??multiply_by_power_of_ten@__crt_strtox@@YA_NAAUbig_integer@2@I@Z@4QBIB 1005a830     libucrt:cfout.obj
 0002:00006854       ??_C@_01GBGANLPD@0?$AA@    1005a854     libucrt:cfout.obj
 0002:00006858       ??_C@_05DNEBIAHO@1?$CDINF?$AA@ 1005a858     libucrt:cfout.obj
 0002:00006860       ??_C@_06IMKFLFPG@1?$CDQNAN?$AA@ 1005a860     libucrt:cfout.obj
 0002:00006868       ??_C@_06PGGFOGJG@1?$CDSNAN?$AA@ 1005a868     libucrt:cfout.obj
 0002:00006870       ??_C@_05PHHOCPM@1?$CDIND?$AA@ 1005a870     libucrt:cfout.obj
 0002:00006878       ??_C@_1BA@BALFACEM@?$AAC?$AAO?$AAN?$AAO?$AAU?$AAT?$AA$?$AA?$AA@ 1005a878     libucrt:initcon.obj
 0002:000069f0       __infinity                 1005a9f0     libucrt:87tran.obj
 0002:000069fa       __minfinity                1005a9fa     libucrt:87tran.obj
 0002:00006a04       __logemax                  1005aa04     libucrt:87tran.obj
 0002:00006a2a       __OP_EXPjmptab             1005aa2a     libucrt:87tran.obj
 0002:00006a50       __indefinite               1005aa50     libucrt:87disp.obj
 0002:00006a5a       __piby2                    1005aa5a     libucrt:87disp.obj
 0002:00006a64       __piby4                    1005aa64     libucrt:87disp.obj
 0002:00006a98       __DEFAULT_CW_in_mem        1005aa98     libucrt:common.obj
 0002:00006a9a       __pi_by_2_to_61            1005aa9a     libucrt:common.obj
 0002:00006b40       ??_C@_03MGHMBJCF@log?$AA@  1005ab40     libucrt:libm_error.obj
 0002:00006b44       ??_C@_05HGHHAHAP@log10?$AA@ 1005ab44     libucrt:libm_error.obj
 0002:00006b4c       ??_C@_03KHJOGHMM@exp?$AA@  1005ab4c     libucrt:libm_error.obj
 0002:00006b50       ??_C@_03JGHBODFD@pow?$AA@  1005ab50     libucrt:libm_error.obj
 0002:00006b54       ??_C@_04FIHNOPOL@asin?$AA@ 1005ab54     libucrt:libm_error.obj
 0002:00006b5c       ??_C@_04PDIFKINK@acos?$AA@ 1005ab5c     libucrt:libm_error.obj
 0002:00006b64       ??_C@_04EIAKFFMI@sqrt?$AA@ 1005ab64     libucrt:libm_error.obj
 0002:00006b70       __real@3ff0000000000000    1005ab70     libucrt:libm_error.obj
 0002:00006ba0       ___acrt_log10_table_t      1005aba0     libucrt:log10_tables.obj
 0002:00006fb0       ___acrt_log10_table_cb     1005afb0     libucrt:log10_tables.obj
 0002:000073c0       __real@0000000000000000    1005b3c0     libucrt:powhlp.obj
 0002:000073c8       __real@3fe0000000000000    1005b3c8     libucrt:powhlp.obj
 0002:000074b8       ??_C@_04COOMCNPB@sinh?$AA@ 1005b4b8     libucrt:fpexcept.obj
 0002:000074c0       ??_C@_04HPJJNFIM@cosh?$AA@ 1005b4c0     libucrt:fpexcept.obj
 0002:000074c8       ??_C@_04FJHINJAO@tanh?$AA@ 1005b4c8     libucrt:fpexcept.obj
 0002:000074d0       ??_C@_04MLLJIGOK@atan?$AA@ 1005b4d0     libucrt:fpexcept.obj
 0002:000074d8       ??_C@_05KNGEOGJB@atan2?$AA@ 1005b4d8     libucrt:fpexcept.obj
 0002:000074e0       ??_C@_03BLEJJJBH@sin?$AA@  1005b4e0     libucrt:fpexcept.obj
 0002:000074e4       ??_C@_03LALBNOCG@cos?$AA@  1005b4e4     libucrt:fpexcept.obj
 0002:000074e8       ??_C@_03IIINPABG@tan?$AA@  1005b4e8     libucrt:fpexcept.obj
 0002:000074ec       ??_C@_04GFPJNGEK@ceil?$AA@ 1005b4ec     libucrt:fpexcept.obj
 0002:000074f4       ??_C@_05PBJFFIGL@floor?$AA@ 1005b4f4     libucrt:fpexcept.obj
 0002:000074fc       ??_C@_04ODHECPBC@fabs?$AA@ 1005b4fc     libucrt:fpexcept.obj
 0002:00007504       ??_C@_04EHEDPDJG@modf?$AA@ 1005b504     libucrt:fpexcept.obj
 0002:0000750c       ??_C@_05CEJMAHNP@ldexp?$AA@ 1005b50c     libucrt:fpexcept.obj
 0002:00007514       ??_C@_05KBKMEMPO@_cabs?$AA@ 1005b514     libucrt:fpexcept.obj
 0002:0000751c       ??_C@_06MEIMCGCF@_hypot?$AA@ 1005b51c     libucrt:fpexcept.obj
 0002:00007524       ??_C@_04KEPJIHGP@fmod?$AA@ 1005b524     libucrt:fpexcept.obj
 0002:0000752c       ??_C@_05GKKHEGJL@frexp?$AA@ 1005b52c     libucrt:fpexcept.obj
 0002:00007534       ??_C@_03MJLDFKDL@_y0?$AA@  1005b534     libucrt:fpexcept.obj
 0002:00007538       ??_C@_03NAKIGLHK@_y1?$AA@  1005b538     libucrt:fpexcept.obj
 0002:0000753c       ??_C@_03ONILCKOB@_yn?$AA@  1005b53c     libucrt:fpexcept.obj
 0002:00007540       ??_C@_05JGDBENOH@_logb?$AA@ 1005b540     libucrt:fpexcept.obj
 0002:00007548       ??_C@_0L@KDOEJCKC@_nextafter?$AA@ 1005b548     libucrt:fpexcept.obj
 0002:00007558       __d_inf                    1005b558     libucrt:util.obj
 0002:00007560       __d_ind                    1005b560     libucrt:util.obj
 0002:00007568       __d_max                    1005b568     libucrt:util.obj
 0002:00007570       __d_min                    1005b570     libucrt:util.obj
 0002:00007578       __d_mzero                  1005b578     libucrt:util.obj
 0002:000075dc       ??_7type_info@@6B@         1005b5dc     LIBCMT:std_type_info_static.obj
 0002:000075e0       ??_C@_06CJNJFBNP@1?42?411@ 1005b5e0     compress.obj
 0002:0000a8b8       __length_code              1005e8b8     trees.obj
 0002:0000a9b8       __dist_code                1005e9b8     trees.obj
 0002:0000b330       _unz_copyright             1005f330     unzip.obj
 0002:0000b384       _z_errmsg                  1005f384     zutil.obj
 0002:0000b3ac       ??_C@_02DKCKIIND@?$CFs@    1005f3ac     gzlib.obj
 0002:0000b3b0       ??_C@_07EBNKNFJN@?$DMfd?3?$CFd?$DO@ 1005f3b0     gzlib.obj
 0002:0000b3b8       ??_C@_0O@BNNCBLEN@out?5of?5memory@ 1005f3b8     gzlib.obj
 0002:0000b3c6       ??_C@_00CNPNBAHC@@         1005f3c6     gzlib.obj
 0002:0000b3c8       ??_C@_02LMMGGCAJ@?3?5@     1005f3c8     gzlib.obj
 0002:0000b3cc       ??_C@_06DIJPEION@?$CFs?$CFs?$CFs@ 1005f3cc     gzlib.obj
 0002:0000b3d4       ??_C@_0BH@CFIIDOJD@unexpected?5end?5of?5file@ 1005f3d4     gzread.obj
 0002:0000b3ec       ??_C@_0CH@CPOLIEKA@internal?5error?3?5inflate?5stream?5@ 1005f3ec     gzread.obj
 0002:0000b414       ??_C@_0BG@HCKBMIHF@compressed?5data?5error@ 1005f414     gzread.obj
 0002:0000b42c       ??_C@_0BP@HLDABFKK@request?5does?5not?5fit?5in?5an?5int@ 1005f42c     gzread.obj
 0002:0000b44c       ??_C@_0CB@EGGJDMIK@request?5does?5not?5fit?5in?5a?5size_@ 1005f44c     gzread.obj
 0002:0000b470       ??_C@_0BP@IIKIGMCC@out?5of?5room?5to?5push?5characters@ 1005f470     gzread.obj
 0002:0000b490       ??_C@_0CH@DEEGAHIB@internal?5error?3?5deflate?5stream?5@ 1005f490     gzwrite.obj
 0002:0000b4b8       ??_C@_0CF@MLPJFDMM@requested?5length?5does?5not?5fit?5i@ 1005f4b8     gzwrite.obj
 0002:0000b4e0       ??_C@_0BD@PJCBIDD@invalid?5block?5type@ 1005f4e0     infback.obj
 0002:0000b4f4       ??_C@_0BN@LGAADGOK@invalid?5stored?5block?5lengths@ 1005f4f4     infback.obj
 0002:0000b514       ??_C@_0CE@GMIGFPBB@too?5many?5length?5or?5distance?5sym@ 1005f514     infback.obj
 0002:0000b538       ??_C@_0BJ@HDEPPGOH@invalid?5code?5lengths?5set@ 1005f538     infback.obj
 0002:0000b554       ??_C@_0BK@BMMPFBBH@invalid?5bit?5length?5repeat@ 1005f554     infback.obj
 0002:0000b570       ??_C@_0CF@DGDMADCD@invalid?5code?5?9?9?5missing?5end?9of?9@ 1005f570     infback.obj
 0002:0000b598       ??_C@_0BM@IIMGAINC@invalid?5literal?1lengths?5set@ 1005f598     infback.obj
 0002:0000b5b4       ??_C@_0BG@GMDFCBGP@invalid?5distances?5set@ 1005f5b4     infback.obj
 0002:0000b5cc       ??_C@_0BM@FFFLPBBC@invalid?5literal?1length?5code@ 1005f5cc     infback.obj
 0002:0000b5e8       ??_C@_0BG@LBKINIKP@invalid?5distance?5code@ 1005f5e8     infback.obj
 0002:0000b600       ??_C@_0BO@ECPMAOGG@invalid?5distance?5too?5far?5back@ 1005f600     infback.obj
 0002:0000b620       ??_C@_0BH@LIBMMIGA@incorrect?5header?5check@ 1005f620     inflate.obj
 0002:0000b638       ??_C@_0BL@IHKGDAEE@unknown?5compression?5method@ 1005f638     inflate.obj
 0002:0000b654       ??_C@_0BE@EMOGCLGO@invalid?5window?5size@ 1005f654     inflate.obj
 0002:0000b668       ??_C@_0BJ@BLBBCOMO@unknown?5header?5flags?5set@ 1005f668     inflate.obj
 0002:0000b684       ??_C@_0BE@GONKLEPM@header?5crc?5mismatch@ 1005f684     inflate.obj
 0002:0000b698       ??_C@_0BF@MEIGEHBE@incorrect?5data?5check@ 1005f698     inflate.obj
 0002:0000b6b0       ??_C@_0BH@FGKKJGOC@incorrect?5length?5check@ 1005f6b0     inflate.obj
 0002:0000b6c8       ??_C@_02JDPG@rb@           1005f6c8     ioapi.obj
 0002:0000b6cc       ??_C@_03HMFOOINA@r?$CLb@   1005f6cc     ioapi.obj
 0002:0000b6d0       ??_C@_02GMLFBBN@wb@        1005f6d0     ioapi.obj
 0002:0000b6d4       ??_C@_01JOAMLHOP@?9@       1005f6d4     zip.obj
 0002:0000b6d8       ??_C@_0BA@MOKMMFOD@need?5dictionary@ 1005f6d8     zutil.obj
 0002:0000b6e8       ??_C@_0L@FNAOCBOG@stream?5end@ 1005f6e8     zutil.obj
 0002:0000b6f4       ??_C@_0L@KIJFAKBJ@file?5error@ 1005f6f4     zutil.obj
 0002:0000b700       ??_C@_0N@MKKNPMJD@stream?5error@ 1005f700     zutil.obj
 0002:0000b710       ??_C@_0L@HAHMBNLP@data?5error@ 1005f710     zutil.obj
 0002:0000b71c       ??_C@_0BE@OGGJBMCE@insufficient?5memory@ 1005f71c     zutil.obj
 0002:0000b730       ??_C@_0N@DFPGLBGC@buffer?5error@ 1005f730     zutil.obj
 0002:0000b740       ??_C@_0BF@CJFPCCEG@incompatible?5version@ 1005f740     zutil.obj
 0002:0000b7d0       __load_config_used         1005f7d0     LIBCMT:loadcfg.obj
 0002:0000b870       ??_R4DNameNode@@6B@        1005f870     libvcruntime:undname.obj
 0002:0000b884       ??_R3DNameNode@@8          1005f884     libvcruntime:undname.obj
 0002:0000b894       ??_R2DNameNode@@8          1005f894     libvcruntime:undname.obj
 0002:0000b89c       ??_R1A@?0A@EA@DNameNode@@8 1005f89c     libvcruntime:undname.obj
 0002:0000b8b8       ??_R4charNode@@6B@         1005f8b8     libvcruntime:undname.obj
 0002:0000b8cc       ??_R3charNode@@8           1005f8cc     libvcruntime:undname.obj
 0002:0000b8dc       ??_R2charNode@@8           1005f8dc     libvcruntime:undname.obj
 0002:0000b8e8       ??_R1A@?0A@EA@charNode@@8  1005f8e8     libvcruntime:undname.obj
 0002:0000b904       ??_R4pcharNode@@6B@        1005f904     libvcruntime:undname.obj
 0002:0000b918       ??_R3pcharNode@@8          1005f918     libvcruntime:undname.obj
 0002:0000b928       ??_R2pcharNode@@8          1005f928     libvcruntime:undname.obj
 0002:0000b934       ??_R1A@?0A@EA@pcharNode@@8 1005f934     libvcruntime:undname.obj
 0002:0000b950       ??_R4pDNameNode@@6B@       1005f950     libvcruntime:undname.obj
 0002:0000b964       ??_R3pDNameNode@@8         1005f964     libvcruntime:undname.obj
 0002:0000b974       ??_R2pDNameNode@@8         1005f974     libvcruntime:undname.obj
 0002:0000b980       ??_R1A@?0A@EA@pDNameNode@@8 1005f980     libvcruntime:undname.obj
 0002:0000b99c       ??_R4DNameStatusNode@@6B@  1005f99c     libvcruntime:undname.obj
 0002:0000b9b0       ??_R3DNameStatusNode@@8    1005f9b0     libvcruntime:undname.obj
 0002:0000b9c0       ??_R2DNameStatusNode@@8    1005f9c0     libvcruntime:undname.obj
 0002:0000b9cc       ??_R1A@?0A@EA@DNameStatusNode@@8 1005f9cc     libvcruntime:undname.obj
 0002:0000b9e8       ??_R4pairNode@@6B@         1005f9e8     libvcruntime:undname.obj
 0002:0000b9fc       ??_R3pairNode@@8           1005f9fc     libvcruntime:undname.obj
 0002:0000ba0c       ??_R2pairNode@@8           1005fa0c     libvcruntime:undname.obj
 0002:0000ba18       ??_R1A@?0A@EA@pairNode@@8  1005fa18     libvcruntime:undname.obj
 0002:0000ba34       ??_R4exception@std@@6B@    1005fa34     libvcruntime:frame.obj
 0002:0000ba48       ??_R3exception@std@@8      1005fa48     libvcruntime:frame.obj
 0002:0000ba58       ??_R2exception@std@@8      1005fa58     libvcruntime:frame.obj
 0002:0000ba60       ??_R1A@?0A@EA@exception@std@@8 1005fa60     libvcruntime:frame.obj
 0002:0000ba7c       ??_R4bad_exception@std@@6B@ 1005fa7c     libvcruntime:frame.obj
 0002:0000ba90       ??_R3bad_exception@std@@8  1005fa90     libvcruntime:frame.obj
 0002:0000baa0       ??_R2bad_exception@std@@8  1005faa0     libvcruntime:frame.obj
 0002:0000baac       ??_R1A@?0A@EA@bad_exception@std@@8 1005faac     libvcruntime:frame.obj
 0002:0000bac8       ??_R4type_info@@6B@        1005fac8     LIBCMT:std_type_info_static.obj
 0002:0000badc       ??_R3type_info@@8          1005fadc     LIBCMT:std_type_info_static.obj
 0002:0000baec       ??_R2type_info@@8          1005faec     LIBCMT:std_type_info_static.obj
 0002:0000baf4       ??_R1A@?0A@EA@type_info@@8 1005faf4     LIBCMT:std_type_info_static.obj
 0002:0000be40       ___rtc_iaa                 1005fe40     LIBCMT:_initsect_.obj
 0002:0000be44       ___rtc_izz                 1005fe44     LIBCMT:_initsect_.obj
 0002:0000be48       ___rtc_taa                 1005fe48     LIBCMT:_initsect_.obj
 0002:0000be4c       ___rtc_tzz                 1005fe4c     LIBCMT:_initsect_.obj
 0002:0000bffc       __TI2?AVbad_exception@std@@ 1005fffc     libvcruntime:frame.obj
 0002:0000c00c       __CTA2?AVbad_exception@std@@ 1006000c     libvcruntime:frame.obj
 0002:0000c018       __CT??_R0?AVbad_exception@std@@@8??0bad_exception@std@@QAE@ABV01@@Z12 10060018     libvcruntime:frame.obj
 0002:0000c034       __CT??_R0?AVexception@std@@@8??0exception@std@@QAE@ABV01@@Z12 10060034     libvcruntime:frame.obj
 0002:0000d5bc       __IMPORT_DESCRIPTOR_KERNEL32 100615bc     kernel32:KERNEL32.dll
 0002:0000d5d0       __NULL_IMPORT_DESCRIPTOR   100615d0     kernel32:KERNEL32.dll
 0003:00000000       ___scrt_native_dllmain_reason 10062000     LIBCMT:utility.obj
 0003:00000010       ___security_cookie_complement 10062010     LIBCMT:gs_cookie.obj
 0003:00000014       ___security_cookie         10062014     LIBCMT:gs_cookie.obj
 0003:00000018       ___isa_enabled             10062018     LIBCMT:_cpu_disp_.obj
 0003:00000030       __NLG_Destination          10062030     libvcruntime:_exsup_.obj
 0003:00000040       __lookuptrailbytes         10062040     libucrt:read.obj
 0003:00000150       ___abort_behavior          10062150     libucrt:abort.obj
 0003:00000158       ___badioinfo               10062158     libucrt:ioinit.obj
 0003:00000190       ___acrt_initial_locale_data 10062190     libucrt:nlsdata.obj
 0003:00000248       ___acrt_initial_locale_pointers 10062248     libucrt:nlsdata.obj
 0003:00000250       ___acrt_wide_c_locale_string 10062250     libucrt:nlsdata.obj
 0003:00000254       ___mb_cur_max              10062254     libucrt:nlsdata.obj
 0003:00000258       __iob                      10062258     libucrt:_file.obj
 0003:00000300       __pctype                   10062300     libucrt:ctype.obj
 0003:00000304       __pwctype                  10062304     libucrt:ctype.obj
 0003:00000308       ___acrt_initial_multibyte_data 10062308     libucrt:mbctype.obj
 0003:00000828       ___globallocalestatus      10062828     libucrt:glstatus.obj
 0003:00000830       ___acrt_lconv_c            10062830     libucrt:localeconv.obj
 0003:00000880       ___acrt_lconv              10062880     libucrt:localeconv.obj
 0003:00000884       ___acrt_lconv_static_decimal 10062884     libucrt:localeconv.obj
 0003:00000888       ___acrt_lconv_static_W_decimal 10062888     libucrt:localeconv.obj
 0003:000008a0       __fltused                  100628a0     LIBCMT:fltused.obj
 0003:000008b0       ??_R0?AVDNameNode@@@8      100628b0     libvcruntime:undname.obj
 0003:000008c8       ??_R0?AVcharNode@@@8       100628c8     libvcruntime:undname.obj
 0003:000008e0       ??_R0?AVpcharNode@@@8      100628e0     libvcruntime:undname.obj
 0003:000008f8       ??_R0?AVpDNameNode@@@8     100628f8     libvcruntime:undname.obj
 0003:00000914       ??_R0?AVDNameStatusNode@@@8 10062914     libvcruntime:undname.obj
 0003:00000934       ??_R0?AVpairNode@@@8       10062934     libvcruntime:undname.obj
 0003:0000094c       ??_R0?AVbad_exception@std@@@8 1006294c     libvcruntime:frame.obj
 0003:0000096c       ??_R0?AVexception@std@@@8  1006296c     libvcruntime:frame.obj
 0003:00000988       ??_R0?AVbad_alloc@std@@@8  10062988     libvcruntime:ehhelpers.obj
 0003:000009a4       ??_R0?AVtype_info@@@8      100629a4     LIBCMT:std_type_info_static.obj
 0003:000009c8       ?__type_info_root_node@@3U__type_info_node@@A 100629c8     LIBCMT:tncleanup.obj
 0003:000009d0       ?_OptionsStorage@?1??__local_stdio_printf_options@@9@4_KA 100629d0     LIBCMT:default_local_stdio_options.obj
 0003:000009d8       ?_OptionsStorage@?1??__local_stdio_scanf_options@@9@4_KA 100629d8     LIBCMT:default_local_stdio_options.obj
 0003:000009e0       ___scrt_current_native_startup_state 100629e0     LIBCMT:utility.obj
 0003:000009e4       ___scrt_native_startup_lock 100629e4     LIBCMT:utility.obj
 0003:00000a04       ___scrt_debugger_hook_flag 10062a04     LIBCMT:utility_desktop.obj
 0003:00000a08       ___isa_available           10062a08     LIBCMT:_cpu_disp_.obj
 0003:00000a0c       ___favor                   10062a0c     LIBCMT:_cpu_disp_.obj
 0003:00000d2c       ?pArgList@UnDecorator@@0PAVReplicator@@A 10062d2c     libvcruntime:undname.obj
 0003:00000d30       ?pZNameList@UnDecorator@@0PAVReplicator@@A 10062d30     libvcruntime:undname.obj
 0003:00000d34       ?pTemplateArgList@UnDecorator@@0PAVReplicator@@A 10062d34     libvcruntime:undname.obj
 0003:00000d38       ?gName@UnDecorator@@0PBDB  10062d38     libvcruntime:undname.obj
 0003:00000d3c       ?name@UnDecorator@@0PBDB   10062d3c     libvcruntime:undname.obj
 0003:00000d40       ?disableFlags@UnDecorator@@0KA 10062d40     libvcruntime:undname.obj
 0003:00000d44       ?fExplicitTemplateParams@UnDecorator@@0_NA 10062d44     libvcruntime:undname.obj
 0003:00000d45       ?fGetTemplateArgumentList@UnDecorator@@0_NA 10062d45     libvcruntime:undname.obj
 0003:00000d48       ?m_pGetParameter@UnDecorator@@0P6APADJ@ZA 10062d48     libvcruntime:undname.obj
 0003:00000d4c       ?m_CHPENameOffset@UnDecorator@@0KA 10062d4c     libvcruntime:undname.obj
 0003:00000d50       ?m_recursionLevel@UnDecorator@@0KA 10062d50     libvcruntime:undname.obj
 0003:00000dcc       ___pPurecall               10062dcc     libvcruntime:purevirt_data.obj
 0003:00000dd0       ?__WinRTOutOfMemoryExceptionCallback@@3P6GPAXXZA 10062dd0     libvcruntime:ehhelpers.obj
 0003:00000ddc       ?c_exit_complete@?1???R<lambda_6e4b09c48022b2350581041d5f6b0c4c>@@QBE@XZ@4_NA 10062ddc     libucrt:exit.obj
 0003:000010f4       __environ_table            100630f4     libucrt:environment_initialization.obj
 0003:000010f8       __wenviron_table           100630f8     libucrt:environment_initialization.obj
 0003:000010fc       ___dcrt_initial_wide_environment 100630fc     libucrt:environment_initialization.obj
 0003:00001100       ___dcrt_initial_narrow_environment 10063100     libucrt:environment_initialization.obj
 0003:00001104       ___acrt_atexit_table       10063104     libucrt:onexit.obj
 0003:00001110       ___acrt_at_quick_exit_table 10063110     libucrt:onexit.obj
 0003:00001120       ___pioinfo                 10063120     libucrt:ioinit.obj
 0003:00001320       __nhandle                  10063320     libucrt:ioinit.obj
 0003:00001404       ___acrt_locale_changed_data 10063404     libucrt:wsetlocale.obj
 0003:00001408       ___acrt_current_locale_data 10063408     libucrt:nlsdata.obj
 0003:0000140c       __umaskval                 1006340c     libucrt:umask.obj
 0003:00001418       __nstream                  10063418     libucrt:_file.obj
 0003:0000141c       ___piob                    1006341c     libucrt:_file.obj
 0003:00001420       __cflush                   10063420     libucrt:_file.obj
 0003:00001428       ___acrt_stdout_buffer      10063428     libucrt:_sftbuf.obj
 0003:0000142c       ___acrt_stderr_buffer      1006342c     libucrt:_sftbuf.obj
 0003:00001590       ___acrt_current_multibyte_data 10063590     libucrt:mbctype.obj
 0003:00001594       __mbctype                  10063594     libucrt:mbctype.obj
 0003:00001598       __mbcasemap                10063598     libucrt:mbctype.obj
 0003:000015a4       ___argc                    100635a4     libucrt:argv_data.obj
 0003:000015a8       ___argv                    100635a8     libucrt:argv_data.obj
 0003:000015ac       ___wargv                   100635ac     libucrt:argv_data.obj
 0003:000015b0       __acmdln                   100635b0     libucrt:argv_data.obj
 0003:000015b4       __wcmdln                   100635b4     libucrt:argv_data.obj
 0003:000015b8       __pgmptr                   100635b8     libucrt:argv_data.obj
 0003:000015bc       __wpgmptr                  100635bc     libucrt:argv_data.obj
 0003:000015c0       ___acrt_heap               100635c0     libucrt:heap_handle.obj
 0003:00001c14       __fmode                    10063c14     libucrt:txtmode.obj
 0003:00001c18       ___acrt_lconv_static_null  10063c18     libucrt:localeconv.obj
 0003:00001c1c       ___acrt_lconv_static_W_null 10063c1c     libucrt:localeconv.obj
 0003:00001c40       __commode                  10063c40     libucrt:ncommode.obj
 0003:00001c50       ___fastflag                10063c50     libucrt:fp_flags.obj
 0003:00001c5c       ___scrt_ucrt_dll_is_in_use 10063c5c     <common>
 0003:00001c60       ___dyn_tls_init_callback   10063c60     <common>
 0003:00001c64       __pmatherr                 10063c64     <common>
 0003:00001c68       ___use_sse2_mathfcns       10063c68     <common>
 0003:00001c70       ?_OptionsStorage@?1??__local_stdio_printf_options@@9@9 10063c70     <common>
 0003:00001c78       ?_OptionsStorage@?1??__local_stdio_scanf_options@@9@9 10063c78     <common>

 entry point at        0001:0000ffe8

 Static symbols

 0002:fffac000       __guard_fids__             10000000     libucrt:console_output_initializer.obj
 0000:fff98000       .debug$S                   10000000     kernel32:KERNEL32.dll
 0000:fff98000       .debug$S                   10000000     kernel32:KERNEL32.dll
 0002:fffac000       __guard_fids__             10000000     LIBCMT:std_type_info_static.obj
 0000:fff98000       .debug$S                   10000000     kernel32:KERNEL32.dll
 0000:fff98000       .debug$S                   10000000     kernel32:KERNEL32.dll
 0000:fff98000       .debug$S                   10000000     kernel32:KERNEL32.dll
 0000:fff98000       .debug$S                   10000000     kernel32:KERNEL32.dll
 0000:fff98000       .debug$S                   10000000     kernel32:KERNEL32.dll
 0000:fff98000       .debug$S                   10000000     kernel32:KERNEL32.dll
 0000:fff98000       .debug$S                   10000000     kernel32:KERNEL32.dll
 0000:fff98000       .debug$S                   10000000     kernel32:KERNEL32.dll
 0000:fff98000       .debug$S                   10000000     kernel32:KERNEL32.dll
 0000:fff98000       .debug$S                   10000000     kernel32:KERNEL32.dll
 0000:fff98000       .debug$S                   10000000     kernel32:KERNEL32.dll
 0000:fff98000       .debug$S                   10000000     kernel32:KERNEL32.dll
 0000:fff98000       .debug$S                   10000000     kernel32:KERNEL32.dll
 0000:fff98000       .debug$S                   10000000     kernel32:KERNEL32.dll
 0000:fff98000       .debug$S                   10000000     kernel32:KERNEL32.dll
 0000:fff98000       .debug$S                   10000000     kernel32:KERNEL32.dll
 0000:fff98000       .debug$S                   10000000     kernel32:KERNEL32.dll
 0000:fff98000       .debug$S                   10000000     kernel32:KERNEL32.dll
 0000:fff98000       .debug$S                   10000000     kernel32:KERNEL32.dll
 0000:fff98000       .debug$S                   10000000     kernel32:KERNEL32.dll
 0000:fff98000       .debug$S                   10000000     kernel32:KERNEL32.dll
 0000:fff98000       .debug$S                   10000000     kernel32:KERNEL32.dll
 0000:fff98000       .debug$S                   10000000     kernel32:KERNEL32.dll
 0000:fff98000       .debug$S                   10000000     kernel32:KERNEL32.dll
 0000:fff98000       .debug$S                   10000000     kernel32:KERNEL32.dll
 0000:fff98000       .debug$S                   10000000     kernel32:KERNEL32.dll
 0000:fff98000       .debug$S                   10000000     kernel32:KERNEL32.dll
 0000:fff98000       .debug$S                   10000000     kernel32:KERNEL32.dll
 0000:fff98000       .debug$S                   10000000     kernel32:KERNEL32.dll
 0000:fff98000       .debug$S                   10000000     kernel32:KERNEL32.dll
 0000:fff98000       .debug$S                   10000000     kernel32:KERNEL32.dll
 0000:fff98000       .debug$S                   10000000     kernel32:KERNEL32.dll
 0000:fff98000       .debug$S                   10000000     kernel32:KERNEL32.dll
 0000:fff98000       .debug$S                   10000000     kernel32:KERNEL32.dll
 0000:fff98000       .debug$S                   10000000     kernel32:KERNEL32.dll
 0000:fff98000       .debug$S                   10000000     kernel32:KERNEL32.dll
 0000:fff98000       .debug$S                   10000000     kernel32:KERNEL32.dll
 0000:fff98000       .debug$S                   10000000     kernel32:KERNEL32.dll
 0000:fff98000       .debug$S                   10000000     kernel32:KERNEL32.dll
 0000:fff98000       .debug$S                   10000000     kernel32:KERNEL32.dll
 0000:fff98000       .debug$S                   10000000     kernel32:KERNEL32.dll
 0002:fffac000       __guard_fids__             10000000     libvcruntime:ehhelpers.obj
 0002:fffac000       __guard_fids_?get_unexpected_or_default@@YAP6AXXZQBU__vcrt_ptd@@@Z 10000000     libvcruntime:unexpected.obj
 0002:fffac000       __guard_fids___get_unexpected 10000000     libvcruntime:unexpected.obj
 0002:fffac000       __guard_fids__set_unexpected 10000000     libvcruntime:unexpected.obj
 0000:fff98000       .debug$S                   10000000     kernel32:KERNEL32.dll
 0000:fff98000       .debug$S                   10000000     kernel32:KERNEL32.dll
 0002:fffac000       __guard_fids__             10000000     libvcruntime:frame.obj
 0002:fffac000       __guard_fids__             10000000     libvcruntime:frame.obj
 0002:fffac000       __guard_fids__             10000000     libvcruntime:frame.obj
 0002:fffac000       __guard_fids__             10000000     libvcruntime:frame.obj
 0002:fffac000       __guard_fids__             10000000     libvcruntime:frame.obj
 0000:fff98000       .debug$S                   10000000     kernel32:KERNEL32.dll
 0000:fff98000       .debug$S                   10000000     kernel32:KERNEL32.dll
 0000:fff98000       .debug$S                   10000000     kernel32:KERNEL32.dll
 0000:fff98000       .debug$S                   10000000     kernel32:KERNEL32.dll
 0000:fff98000       .debug$S                   10000000     kernel32:KERNEL32.dll
 0000:fff98000       .debug$S                   10000000     kernel32:KERNEL32.dll
 0000:fff98000       .debug$S                   10000000     kernel32:KERNEL32.dll
 0000:fff98000       .debug$S                   10000000     kernel32:KERNEL32.dll
 0000:fff98000       .debug$S                   10000000     kernel32:KERNEL32.dll
 0000:fff98000       .debug$S                   10000000     kernel32:KERNEL32.dll
 0000:fff98000       .debug$S                   10000000     kernel32:KERNEL32.dll
 0000:fff98000       .debug$S                   10000000     kernel32:KERNEL32.dll
 0000:fff98000       .debug$S                   10000000     kernel32:KERNEL32.dll
 0000:fff98000       .debug$S                   10000000     kernel32:KERNEL32.dll
 0000:fff98000       .debug$S                   10000000     kernel32:KERNEL32.dll
 0000:fff98000       .debug$S                   10000000     kernel32:KERNEL32.dll
 0000:fff98000       .debug$S                   10000000     kernel32:KERNEL32.dll
 0000:fff98000       .debug$S                   10000000     kernel32:KERNEL32.dll
 0000:fff98000       .debug$S                   10000000     kernel32:KERNEL32.dll
 0000:fff98000       .debug$S                   10000000     kernel32:KERNEL32.dll
 0000:fff98000       .debug$S                   10000000     kernel32:KERNEL32.dll
 0000:fff98000       .debug$S                   10000000     kernel32:KERNEL32.dll
 0000:fff98000       .debug$S                   10000000     kernel32:KERNEL32.dll
 0000:fff98000       .debug$S                   10000000     kernel32:KERNEL32.dll
 0000:fff98000       .debug$S                   10000000     kernel32:KERNEL32.dll
 0000:fff98000       .debug$S                   10000000     kernel32:KERNEL32.dll
 0000:fff98000       .debug$S                   10000000     kernel32:KERNEL32.dll
 0002:fffac000       __guard_fids____vcrt_initialize_ptd 10000000     libvcruntime:per_thread_data.obj
 0000:fff98000       .debug$S                   10000000     kernel32:KERNEL32.dll
 0000:fff98000       .debug$S                   10000000     kernel32:KERNEL32.dll
 0000:fff98000       .debug$S                   10000000     kernel32:KERNEL32.dll
 0002:fffac000       __guard_fids__             10000000     libvcruntime:undname.obj
 0002:fffac000       __guard_fids__             10000000     libvcruntime:undname.obj
 0002:fffac000       __guard_fids__             10000000     libvcruntime:undname.obj
 0002:fffac000       __guard_fids__             10000000     libvcruntime:undname.obj
 0002:fffac000       __guard_fids__             10000000     libvcruntime:undname.obj
 0002:fffac000       __guard_fids__             10000000     libvcruntime:undname.obj
 0000:fff98000       .debug$S                   10000000     kernel32:KERNEL32.dll
 0000:fff98000       .debug$S                   10000000     kernel32:KERNEL32.dll
 0002:fffac000       __guard_fids__             10000000     libucrt:sse2_initializer.obj
 0002:fffac000       __guard_fids____libm_error_support 10000000     libucrt:libm_error.obj
 0002:fffac000       __guard_fids__             10000000     libucrt:wsetlocale.obj
 0002:fffac000       __guard_fids_??R<lambda_1f3ce6bd48e0aa2e72a71c02eee379d3>@@QBEHXZ 10000000     libucrt:winapi_thunks.obj
 0002:fffac000       __guard_fids_??B<lambda_29d3c280b90b41c2ae070ffca879996a>@@QBEP6GHPA_W@ZXZ 10000000     libucrt:winapi_thunks.obj
 0002:fffac000       __guard_fids_?enum_system_locales_ex_nolock@@YAHQ6GHPA_WKJ@Z@Z 10000000     libucrt:winapi_thunks.obj
 0002:fffac000       __guard_fids_??$expand_argument_wildcards@D@@YAHQAD0AAV?$argument_list@D@?A0x5f5c8891@@@Z 10000000     libucrt:argv_wildcards.obj
 0002:fffac000       __guard_fids_??$expand_argument_wildcards@_W@@YAHQA_W0AAV?$argument_list@_W@?A0x5f5c8891@@@Z 10000000     libucrt:argv_wildcards.obj
 0002:fffac000       __guard_fids_??B<lambda_86056e3c024bff449830248dc1621ed2>@@QBEP6AHPBX0@ZXZ 10000000     libucrt:argv_wildcards.obj
 0002:fffac000       __guard_fids____except_validate_jump_buffer 10000000     libvcruntime:jbcxrval.obj
 0002:fffac000       __guard_fids____except_validate_jump_buffer_common 10000000     libvcruntime:jbcxrval.obj
 0000:fff98000       .debug$S                   10000000     kernel32:KERNEL32.dll
 0000:fff98000       .debug$S                   10000000     kernel32:KERNEL32.dll
 0000:fff98000       .debug$S                   10000000     kernel32:KERNEL32.dll
 0000:fff98000       .debug$S                   10000000     kernel32:KERNEL32.dll
 0000:fff98000       .debug$S                   10000000     kernel32:KERNEL32.dll
 0002:fffac000       __guard_fids_??$__acrt_mbs_to_wcs@U__crt_win32_buffer_internal_dynamic_resizing@@@@YAHQBDAAV?$__crt_win32_buffer@_WU__crt_win32_buffer_internal_dynamic_resizing@@@@PAU__crt_locale_pointers@@@Z 10000000     libucrt:setenvironmentvariablea.obj
 0002:fffac000       __guard_fids__             10000000     libucrt:multibyte_initializer.obj
 0002:fffac000       __guard_fids_??$__acrt_wcs_to_mbs@U__crt_win32_buffer_no_resizing@@@@YAHQB_WAAV?$__crt_win32_buffer@DU__crt_win32_buffer_no_resizing@@@@PAU__crt_locale_pointers@@@Z 10000000     libucrt:findnextfilea.obj
 0002:fffac000       __guard_fids____acrt_FindNextFileA 10000000     libucrt:findnextfilea.obj
 0002:fffac000       __guard_fids_??$__acrt_mbs_to_wcs@U__crt_win32_buffer_internal_dynamic_resizing@@@@YAHQBDAAV?$__crt_win32_buffer@_WU__crt_win32_buffer_internal_dynamic_resizing@@@@PAU__crt_locale_pointers@@@Z 10000000     libucrt:findfirstfileexa.obj
 0002:fffac000       __guard_fids_?dllmain_dispatch@@YAHQAUHINSTANCE__@@KQAX@Z 10000000     LIBCMT:dll_dllmain.obj
 0002:fffac000       __guard_fids____except_validate_context_record 10000000     libvcruntime:jbcxrval.obj
 0002:fffac000       __guard_fids__             10000000     libucrt:stdio_initializer.obj
 0002:fffac000       __guard_fids__             10000000     libucrt:locale_initializer.obj
 0002:fffac000       __guard_fids____scrt_set_unhandled_exception_filter 10000000     LIBCMT:utility_desktop.obj
 0002:fffac000       __guard_fids__GetLcidFromCountry 10000000     libucrt:getqloc_downlevel.obj
 0002:fffac000       __guard_fids__             10000000     LIBCMT:guard_support.obj
 0002:fffac000       __guard_fids___guard_icall_checks_enforced 10000000     LIBCMT:guard_support.obj
 0002:fffac000       __guard_fids__GetLcidFromLanguage 10000000     libucrt:getqloc_downlevel.obj
 0002:fffac000       __guard_fids__GetLcidFromLangCountry 10000000     libucrt:getqloc_downlevel.obj
 0002:fffac000       __guard_fids__GetLocaleNameFromLanguage 10000000     libucrt:get_qualified_locale.obj
 0002:fffac000       __guard_fids__GetLocaleNameFromLangCountry 10000000     libucrt:get_qualified_locale.obj
 0002:fffac000       __guard_fids____dcrt_uninitialize_environments_nolock 10000000     libucrt:environment_initialization.obj
 0002:fffac000       __guard_fids__             10000000     libucrt:initialization.obj
 0002:fffac000       __guard_fids__set_terminate 10000000     libucrt:terminate.obj
 0002:fffac000       __guard_fids____std_type_info_name 10000000     libvcruntime:std_type_info.obj
 0002:fffac000       __guard_fids_??B<lambda_cea3005bd909f0fdd45a57e92f4e3309>@@QBEP6APAXI@ZXZ 10000000     libvcruntime:std_type_info.obj
 0002:fffac000       __guard_fids_??B<lambda_02a71323d951a238fa4826e9f186893b>@@QBEP6AXQAX@ZXZ 10000000     libvcruntime:std_type_info.obj
 0002:fffac000       __guard_fids___get_terminate 10000000     libucrt:terminate.obj
 0002:fffac000       __guard_fids__signal       10000000     libucrt:signal.obj
 0002:fffac000       __guard_fids_?get_terminate_or_default@@YAP6AXXZQBU__acrt_ptd@@@Z 10000000     libucrt:terminate.obj
 0002:fffac000       __guard_fids____acrt_initialize_ptd 10000000     libucrt:per_thread_data.obj
 0002:fffac000       __guard_fids__             10000000     libvcruntime:jbcxrval.obj
 0002:fffac000       __guard_fids_??B<lambda_601ce2808d07e6dd980fd6da59ab4158>@@QBEP6AHPBX0@ZXZ 10000000     libucrt:argv_wildcards.obj
 0002:fffac000       __guard_fids___guard_icall_checks_enforced 10000000     libvcruntime:jbcxrval.obj
 0000:fff98000       .debug$S                   10000000     zlibwapi.exp
 0002:fffac004       __guard_fids__             10000004     libucrt:stdio_initializer.obj
 0001:00000290       _adler32_combine_          10001290 f   adler32.obj
 0001:000004f0       _crc32_little              100014f0 f   crc32.obj
 0001:00000780       _crc32_big                 10001780 f   crc32.obj
 0001:00000a60       _gf2_matrix_times          10001a60 f   crc32.obj
 0001:00000a80       _gf2_matrix_square         10001a80 f   crc32.obj
 0001:00000ac0       _crc32_combine_            10001ac0 f   crc32.obj
 0001:00000bd0       _slide_hash                10001bd0 f   deflate.obj
 0001:00000e90       _deflateStateCheck         10001e90 f   deflate.obj
 0001:00001570       _putShortMSB               10002570 f   deflate.obj
 0001:000015a0       _flush_pending             100025a0 f   deflate.obj
 0001:00002100       _read_buf                  10003100 f   deflate.obj
 0001:00002180       _lm_init                   10003180 f   deflate.obj
 0001:00002230       _longest_match             10003230 f   deflate.obj
 0001:000023c0       _fill_window               100033c0 f   deflate.obj
 0001:00002560       _deflate_stored            10003560 f   deflate.obj
 0001:00002900       _deflate_fast              10003900 f   deflate.obj
 0001:00002c10       _deflate_slow              10003c10 f   deflate.obj
 0001:00003010       _deflate_rle               10004010 f   deflate.obj
 0001:00003290       _deflate_huff              10004290 f   deflate.obj
 0001:000034b0       _gz_reset                  100044b0 f   gzlib.obj
 0001:00003510       _gz_open                   10004510 f   gzlib.obj
 0001:0000379c       $LN55                      1000479c     gzlib.obj
 0001:000037c8       $LN51                      100047c8     gzlib.obj
 0001:00003df0       _gz_load                   10004df0 f   gzread.obj
 0001:00003e80       _gz_avail                  10004e80 f   gzread.obj
 0001:00003f00       _gz_look                   10004f00 f   gzread.obj
 0001:00004090       _gz_decomp                 10005090 f   gzread.obj
 0001:000041a0       _gz_fetch                  100051a0 f   gzread.obj
 0001:00004220       _gz_skip                   10005220 f   gzread.obj
 0001:000042a0       _gz_read                   100052a0 f   gzread.obj
 0001:00004860       _gz_init                   10005860 f   gzwrite.obj
 0001:00004920       _gz_comp                   10005920 f   gzwrite.obj
 0001:00004a80       _gz_zero                   10005a80 f   gzwrite.obj
 0001:00004b30       _gz_write                  10005b30 f   gzwrite.obj
 0001:00005250       _fixedtables               10006250 f   infback.obj
 0001:00006030       $LN498                     10007030     infback.obj
 0001:0000604c       $LN478                     1000704c     infback.obj
 0001:00006060       $LN499                     10007060     infback.obj
 0001:00006500       _inflateStateCheck         10007500 f   inflate.obj
 0001:00006800       _fixedtables               10007800 f   inflate.obj
 0001:00006820       _updatewindow              10007820 f   inflate.obj
 0001:00008068       $LN979                     10009068     inflate.obj
 0001:000080e4       $LN980                     100090e4     inflate.obj
 0001:000082a0       _syncsearch                100092a0 f   inflate.obj
 0001:00008bb0       _fopen_file_func           10009bb0 f   ioapi.obj
 0001:00008c00       _fopen64_file_func         10009c00 f   ioapi.obj
 0001:00008c50       _fread_file_func           10009c50 f   ioapi.obj
 0001:00008c70       _fwrite_file_func          10009c70 f   ioapi.obj
 0001:00008c90       _ftell_file_func           10009c90 f   ioapi.obj
 0001:00008ca0       _ftell64_file_func         10009ca0 f   ioapi.obj
 0001:00008cb0       _fseek_file_func           10009cb0 f   ioapi.obj
 0001:00008d00       _fseek64_file_func         10009d00 f   ioapi.obj
 0001:00008d50       _fclose_file_func          10009d50 f   ioapi.obj
 0001:00008d60       _ferror_file_func          10009d60 f   ioapi.obj
 0001:00008db0       _win32_translate_open_mode 10009db0 f   iowin32.obj
 0001:00008e20       _win32_build_iowin         10009e20 f   iowin32.obj
 0001:00009080       _MySetFilePointerEx        1000a080 f   iowin32.obj
 0001:000093e0       _tr_static_init            1000a3e0 f   trees.obj
 0001:00009450       _init_block                1000a450 f   trees.obj
 0001:000094e0       _pqdownheap                1000a4e0 f   trees.obj
 0001:000095c0       _gen_bitlen                1000a5c0 f   trees.obj
 0001:000097d0       _gen_codes                 1000a7d0 f   trees.obj
 0001:00009840       _build_tree                1000a840 f   trees.obj
 0001:00009a70       _scan_tree                 1000aa70 f   trees.obj
 0001:00009b70       _send_tree                 1000ab70 f   trees.obj
 0001:0000a0b0       _build_bl_tree             1000b0b0 f   trees.obj
 0001:0000a190       _send_all_trees            1000b190 f   trees.obj
 0001:0000a7d0       _compress_block            1000b7d0 f   trees.obj
 0001:0000ac00       _detect_data_type          1000bc00 f   trees.obj
 0001:0000ac70       _bi_reverse                1000bc70 f   trees.obj
 0001:0000ac90       _bi_flush                  1000bc90 f   trees.obj
 0001:0000ad10       _bi_windup                 1000bd10 f   trees.obj
 0001:0000aec0       _unz64local_getByte        1000bec0 f   unzip.obj
 0001:0000af10       _unz64local_getShort       1000bf10 f   unzip.obj
 0001:0000af80       _unz64local_getLong        1000bf80 f   unzip.obj
 0001:0000b030       _unz64local_getLong64      1000c030 f   unzip.obj
 0001:0000b1a0       _strcmpcasenosensitive_internal 1000c1a0 f   unzip.obj
 0001:0000b280       _unz64local_SearchCentralDir 1000c280 f   unzip.obj
 0001:0000b440       _unz64local_SearchCentralDir64 1000c440 f   unzip.obj
 0001:0000b6c0       _unzOpenInternal           1000c6c0 f   unzip.obj
 0001:0000bc70       _unz64local_DosDateToTmuDate 1000cc70 f   unzip.obj
 0001:0000bce0       _unz64local_GetCurrentFileInfoInternal 1000cce0 f   unzip.obj
 0001:0000c7a0       _unz64local_CheckCurrentFileCoherencyHeader 1000d7a0 f   unzip.obj
 0001:0000d280       _time                      1000e280 f   zip.obj
 0001:0000d290       _decrypt_byte              1000e290 f   zip.obj
 0001:0000d2b0       _update_keys               1000e2b0 f   zip.obj
 0001:0000d310       _init_keys                 1000e310 f   zip.obj
 0001:0000d360       _crypthead                 1000e360 f   zip.obj
 0001:0000d4a0       _allocate_new_datablock    1000e4a0 f   zip.obj
 0001:0000d4d0       _free_datablock            1000e4d0 f   zip.obj
 0001:0000d4f0       _init_linkedlist           1000e4f0 f   zip.obj
 0001:0000d500       _free_linkedlist           1000e500 f   zip.obj
 0001:0000d520       _add_data_in_datablock     1000e520 f   zip.obj
 0001:0000d5e0       _zip64local_putValue       1000e5e0 f   zip.obj
 0001:0000d660       _zip64local_putValue_inmemory 1000e660 f   zip.obj
 0001:0000d6a0       _zip64local_TmzDateToDosDate 1000e6a0 f   zip.obj
 0001:0000d6f0       _zip64local_getByte        1000e6f0 f   zip.obj
 0001:0000d740       _zip64local_getShort       1000e740 f   zip.obj
 0001:0000d7b0       _zip64local_getLong        1000e7b0 f   zip.obj
 0001:0000d860       _zip64local_getLong64      1000e860 f   zip.obj
 0001:0000d9e0       _zip64local_SearchCentralDir 1000e9e0 f   zip.obj
 0001:0000dba0       _zip64local_SearchCentralDir64 1000eba0 f   zip.obj
 0001:0000ee50       _zip64FlushWriteBuffer     1000fe50 f   zip.obj
 0001:0000fab0       $$000000                   10010ab0     match686.obj
 0001:0000fcbf       ?dllmain_crt_dispatch@@YGHQAUHINSTANCE__@@KQAX@Z 10010cbf f   LIBCMT:dll_dllmain.obj
 0001:0000fd12       ?dllmain_crt_process_attach@@YAHQAUHINSTANCE__@@QAX@Z 10010d12 f   LIBCMT:dll_dllmain.obj
 0001:0000fe1c       ?dllmain_crt_process_detach@@YAH_N@Z 10010e1c f   LIBCMT:dll_dllmain.obj
 0001:0000feae       ?dllmain_dispatch@@YAHQAUHINSTANCE__@@KQAX@Z 10010eae f   LIBCMT:dll_dllmain.obj
 0001:0000ffb4       ?dllmain_raw@@YGHQAUHINSTANCE__@@KQAX@Z 10010fb4 f   LIBCMT:dll_dllmain.obj
 0001:0001000b       ___get_entropy             1001100b f   LIBCMT:gs_support.obj
 0001:0001012f       ?find_pe_section@@YAPAU_IMAGE_SECTION_HEADER@@QAEI@Z 1001112f f   LIBCMT:utility.obj
 0001:00010178       ?is_potentially_valid_image_base@@YA_NQAX@Z 10011178 f   LIBCMT:utility.obj
 0001:00010740       $$000000                   10011740     LIBCMT:_sehprolg4_.obj
 0001:00010c90       _ValidateLocalCookies      10011c90 f   libvcruntime:_chandler4_.obj
 0001:00010e27       ?<lambda_invoker_cdecl>@<lambda_02a71323d951a238fa4826e9f186893b>@@CAXQAX@Z 10011e27 f   libvcruntime:std_type_info.obj
 0001:00010e2c       ?<lambda_invoker_cdecl>@<lambda_cea3005bd909f0fdd45a57e92f4e3309>@@CAPAXI@Z 10011e2c f   libvcruntime:std_type_info.obj
 0001:00010ead       ??B<lambda_02a71323d951a238fa4826e9f186893b>@@QBEP6AXQAX@ZXZ 10011ead f   libvcruntime:std_type_info.obj
 0001:00010eb3       ??B<lambda_cea3005bd909f0fdd45a57e92f4e3309>@@QBEP6APAXI@ZXZ 10011eb3 f   libvcruntime:std_type_info.obj
 0001:00010ec7       ??R<lambda_02a71323d951a238fa4826e9f186893b>@@QBEXQAX@Z 10011ec7 f   libvcruntime:std_type_info.obj
 0001:00010ed7       ??R<lambda_cea3005bd909f0fdd45a57e92f4e3309>@@QBEPAXI@Z 10011ed7 f   libvcruntime:std_type_info.obj
 0001:000110d9       _init_memcpy_functions     100120d9 f   libvcruntime:initialization.obj
 0001:000110e0       $$000000                   100120e0     libvcruntime:memset.obj
 0001:00011240       $$000000                   10012240     libvcruntime:_exsup4_.obj
 0001:000112d0       __unwind_handler4          100122d0 f   libvcruntime:_exsup4_.obj
 0001:000113a7       ___except_get_jumpbuf_sp   100123a7 f   libvcruntime:jbcxrval.obj
 0001:00011701       ??0TrackRecursion@?1??getDecoratedName@UnDecorator@@CA?AVDName@@XZ@QAE@XZ 10012701 f   libvcruntime:undname.obj
 0001:0001180b       ??1TrackRecursion@?1??getDecoratedName@UnDecorator@@CA?AVDName@@XZ@QAE@XZ 1001280b f   libvcruntime:undname.obj
 0001:0001330d       $LN116                     1001430d     libvcruntime:undname.obj
 0001:00013325       $LN107                     10014325     libvcruntime:undname.obj
 0001:00014199       $LN35                      10015199     libvcruntime:undname.obj
 0001:00014ff4       $LN217                     10015ff4     libvcruntime:undname.obj
 0001:00015000       $LN202                     10016000     libvcruntime:undname.obj
 0001:0001674e       $LN129                     1001774e     libvcruntime:undname.obj
 0001:00016e99       ?und_memcpy@@YAXPADPBDI@Z  10017e99 f   libvcruntime:undname.obj
 0001:00016eba       ?und_strlen@@YAIPBD@Z      10017eba f   libvcruntime:undname.obj
 0001:00016ecf       ?und_strncmp@@YAIPBD0I@Z   10017ecf f   libvcruntime:undname.obj
 0001:00017085       ??0scoped_get_last_error_reset@?A0xaf5b5dcf@@QAE@XZ 10018085 f   libvcruntime:per_thread_data.obj
 0001:000170a4       ??1scoped_get_last_error_reset@?A0xaf5b5dcf@@QAE@XZ 100180a4 f   libvcruntime:per_thread_data.obj
 0001:000170d4       ?store_and_initialize_ptd@@YA_NQAU__vcrt_ptd@@@Z 100180d4 f   libvcruntime:per_thread_data.obj
 0001:00017375       ?invalid_function_sentinel@@YAPAXXZ 10018375 f   libvcruntime:winapi_downlevel.obj
 0001:00017379       ?try_get_FlsAlloc@@YAP6GKP6GXPAX@Z@ZXZ 10018379 f   libvcruntime:winapi_downlevel.obj
 0001:00017393       ?try_get_FlsFree@@YAP6GHK@ZXZ 10018393 f   libvcruntime:winapi_downlevel.obj
 0001:000173ad       ?try_get_FlsGetValue@@YAP6GPAXK@ZXZ 100183ad f   libvcruntime:winapi_downlevel.obj
 0001:000173c7       ?try_get_FlsSetValue@@YAP6GHKPAX@ZXZ 100183c7 f   libvcruntime:winapi_downlevel.obj
 0001:000173e1       ?try_get_InitializeCriticalSectionEx@@YAP6GHPAU_RTL_CRITICAL_SECTION@@KK@ZXZ 100183e1 f   libvcruntime:winapi_downlevel.obj
 0001:000173fb       ?try_get_first_available_module@@YAPAUHINSTANCE__@@QBW4module_id@?A0x03f7da57@@0@Z 100183fb f   libvcruntime:winapi_downlevel.obj
 0001:000174bf       ?try_get_function@@YAPAXW4function_id@?A0x03f7da57@@QBDQBW4module_id@2@2@Z 100184bf f   libvcruntime:winapi_downlevel.obj
 0001:0001752e       ?try_get_module@@YAPAUHINSTANCE__@@W4module_id@?A0x03f7da57@@@Z 1001852e f   libvcruntime:winapi_downlevel.obj
 0001:0001757d       ?try_get_proc_address_from_first_available_module@@YAPAXQBDQBW4module_id@?A0x03f7da57@@1@Z 1001857d f   libvcruntime:winapi_downlevel.obj
 0001:0001759f       ?try_load_library_from_system_directory@@YAPAUHINSTANCE__@@QB_W@Z 1001859f f   libvcruntime:winapi_downlevel.obj
 0001:000177c0       $$000000                   100187c0     libvcruntime:_exsup_.obj
 0001:000177e1       __unwind_handler           100187e1 f   libvcruntime:_exsup_.obj
 0001:00017e00       $$000000                   10018e00     libvcruntime:memcpy.obj
 0001:00018064       TrailingUpVec              10019064     libvcruntime:memcpy.obj
 0001:00018110       TrailingDownVec            10019110     libvcruntime:memcpy.obj
 0001:00018374       ??$BuildCatchObjectHelperInternal@$$CBU_s_HandlerType@@@@YAHPAUEHExceptionRecord@@PAXPBU_s_HandlerType@@PBU_s_CatchableType@@@Z 10019374 f   libvcruntime:frame.obj
 0001:000184b3       ??$BuildCatchObjectInternal@$$CBU_s_HandlerType@@@@YAXPAUEHExceptionRecord@@PAXPBU_s_HandlerType@@PBU_s_CatchableType@@@Z 100194b3 f   libvcruntime:frame.obj
 0001:0001854c       ??$CatchIt@V__FrameHandler3@@@@YAXPAUEHExceptionRecord@@PAUEHRegistrationNode@@PAU_CONTEXT@@PAXPBU_s_FuncInfo@@PBU_s_HandlerType@@PBU_s_CatchableType@@PBU_s_TryBlockMapEntry@@H1E@Z 1001954c f   libvcruntime:frame.obj
 0001:000185cc       ??$FindHandler@V__FrameHandler3@@@@YAXPAUEHExceptionRecord@@PAUEHRegistrationNode@@PAU_CONTEXT@@PAXPBU_s_FuncInfo@@EH1@Z 100195cc f   libvcruntime:frame.obj
 0001:0001895a       ??$FindHandlerForForeignException@V__FrameHandler3@@@@YAXPAUEHExceptionRecord@@PAUEHRegistrationNode@@PAU_CONTEXT@@PAXPBU_s_FuncInfo@@HH1@Z 1001995a f   libvcruntime:frame.obj
 0001:00018dbc       ?CallCatchBlock@@YAPAXPAUEHExceptionRecord@@PAUEHRegistrationNode@@PAU_CONTEXT@@PBU_s_FuncInfo@@PAXHK@Z 10019dbc f   libvcruntime:frame.obj
 0001:00018f80       ?CallUnexpected@@YAXPBU_s_ESTypeList@@@Z 10019f80 f   libvcruntime:frame.obj
 0001:00018fa0       __catch$?CallUnexpected@@YAXPBU_s_ESTypeList@@@Z$0 10019fa0 f   libvcruntime:frame.obj
 0001:00018fba       ?ExFilterRethrow@@YAHPAU_EXCEPTION_POINTERS@@@Z 10019fba f   libvcruntime:frame.obj
 0001:0001910f       ?IsInExceptionSpec@@YAEPAUEHExceptionRecord@@PBU_s_ESTypeList@@@Z 1001a10f f   libvcruntime:frame.obj
 0001:000191a9       ?Is_bad_exception_allowed@@YAEPBU_s_ESTypeList@@@Z 1001a1a9 f   libvcruntime:frame.obj
 0001:000192d0       $$000000                   1001a2d0     libvcruntime:lowhelpr.obj
 0001:0001931c       ?get_unexpected_or_default@@YAP6AXXZQBU__vcrt_ptd@@@Z 1001a31c f   libvcruntime:unexpected.obj
 0001:00019750       $$000000                   1001a750     libvcruntime:memmove.obj
 0001:000199b4       TrailingUpVec              1001a9b4     libvcruntime:memmove.obj
 0001:00019a60       TrailingDownVec            1001aa60     libvcruntime:memmove.obj
 0001:00019cc4       ??$common_lseek@J@@YAJHJH@Z 1001acc4 f   libucrt:lseek.obj
 0001:00019dac       ??$common_lseek@_J@@YA_JH_JH@Z 1001adac f   libucrt:lseek.obj
 0001:00019eae       ??$common_lseek_nolock@J@@YAJHJH@Z 1001aeae f   libucrt:lseek.obj
 0001:00019f05       ??$common_lseek_nolock@_J@@YA_JH_JH@Z 1001af05 f   libucrt:lseek.obj
 0001:00019f83       ?common_lseek_do_seek_nolock@@YAJQAXJH@Z 1001af83 f   libucrt:lseek.obj
 0001:0001a007       ?common_lseek_do_seek_nolock@@YA_JQAX_JH@Z 1001b007 f   libucrt:lseek.obj
 0001:0001a092       ??$__acrt_convert_wcs_mbs_cp@D_WV<lambda_62f6974d9771e494a5ea317cc32e971c>@@U__crt_win32_buffer_internal_dynamic_resizing@@@@YAHQBDAAV?$__crt_win32_buffer@_WU__crt_win32_buffer_internal_dynamic_resizing@@@@ABV<lambda_62f6974d9771e494a5ea317cc32e971c>@@I@Z 1001b092 f   libucrt:open.obj
 0001:0001a136       ??$common_open@D@@YAHQBDHH@Z 1001b136 f   libucrt:open.obj
 0001:0001a1e0       ??$common_open@_W@@YAHQB_WHH@Z 1001b1e0 f   libucrt:open.obj
 0001:0001a28a       ??$common_sopen_dispatch@D@@YAHQBDHHHQAHH@Z 1001b28a f   libucrt:open.obj
 0001:0001a341       ??$common_sopen_dispatch@_W@@YAHQB_WHHHQAHH@Z 1001b341 f   libucrt:open.obj
 0001:0001a56e       ??R<lambda_62f6974d9771e494a5ea317cc32e971c>@@QBEHIQBDQA_WI@Z 1001b56e f   libucrt:open.obj
 0001:0001a650       ?configure_text_mode@@YAHHUfile_options@?A0xa9d50aae@@HAAW4__crt_lowio_text_mode@@@Z 1001b650 f   libucrt:open.obj
 0001:0001a899       ?create_file@@YAPAXQB_WQAU_SECURITY_ATTRIBUTES@@Ufile_options@?A0xa9d50aae@@@Z 1001b899 f   libucrt:open.obj
 0001:0001a8d5       ?decode_access_flags@@YAKH@Z 1001b8d5 f   libucrt:open.obj
 0001:0001a938       ?decode_open_create_flags@@YAKH@Z 1001b938 f   libucrt:open.obj
 0001:0001a9a8       ?decode_options@@YA?AUfile_options@?A0xa9d50aae@@HHH@Z 1001b9a8 f   libucrt:open.obj
 0001:0001ab24       ?decode_sharing_flags@@YAKHH@Z 1001bb24 f   libucrt:open.obj
 0001:0001ab79       ?is_text_mode@@YA_NH@Z     1001bb79 f   libucrt:open.obj
 0001:0001abd0       ?truncate_ctrl_z_if_present@@YAHH@Z 1001bbd0 f   libucrt:open.obj
 0001:0001b139       ?_wcstombs_l_helper@@YAIPADPB_WIPAU__crt_locale_pointers@@@Z 1001c139 f   libucrt:wcstombs.obj
 0001:0001b3e2       ?wcsncnt@@YAIPB_WI@Z       1001c3e2 f   libucrt:wcstombs.obj
 0001:0001b7ab       ??$?RV<lambda_3a2a6cca1b0f7007a3db339dcecd1562>@@AAV<lambda_e38011a3ba6e07c7dbcef4d549f26102>@@V<lambda_b2332a2b562101f3c3c34baab19e0511>@@@?$__crt_seh_guarded_call@H@@QAEH$$QAV<lambda_3a2a6cca1b0f7007a3db339dcecd1562>@@AAV<lambda_e38011a3ba6e07c7dbcef4d549f26102>@@$$QAV<lambda_b2332a2b562101f3c3c34baab19e0511>@@@Z 1001c7ab f   libucrt:output.obj
 0001:0001b7fc       ??$?RV<lambda_75d23329f2fb3d02b2e1cf5509bb1caf>@@AAV<lambda_c4f131f91cb4ec00a5b0a26aa161b8b4>@@V<lambda_114dc79c86b00c313cb0b6b3b001aaf8>@@@?$__crt_seh_guarded_call@H@@QAEH$$QAV<lambda_75d23329f2fb3d02b2e1cf5509bb1caf>@@AAV<lambda_c4f131f91cb4ec00a5b0a26aa161b8b4>@@$$QAV<lambda_114dc79c86b00c313cb0b6b3b001aaf8>@@@Z 1001c7fc f   libucrt:output.obj
 0001:0001b84d       ??$?RV<lambda_80d7abc6eae2375db70be92ccaaf9b57>@@AAV<lambda_df52180bf14694d51fdefd82613e8f07>@@V<lambda_4fa1155033dff2042363dba4e2dc3802>@@@?$__crt_seh_guarded_call@H@@QAEH$$QAV<lambda_80d7abc6eae2375db70be92ccaaf9b57>@@AAV<lambda_df52180bf14694d51fdefd82613e8f07>@@$$QAV<lambda_4fa1155033dff2042363dba4e2dc3802>@@@Z 1001c84d f   libucrt:output.obj
 0001:0001b89e       ??$?RV<lambda_b4329732a1a72698597872ef534ad66d>@@AAV<lambda_96392db5b14a27f72535a2156da24b09>@@V<lambda_0f47277b42e3e84c3311fed419af0b3c>@@@?$__crt_seh_guarded_call@H@@QAEH$$QAV<lambda_b4329732a1a72698597872ef534ad66d>@@AAV<lambda_96392db5b14a27f72535a2156da24b09>@@$$QAV<lambda_0f47277b42e3e84c3311fed419af0b3c>@@@Z 1001c89e f   libucrt:output.obj
 0001:0001b8ef       ??$?RV<lambda_b7f50223258ab9fcc98080d45d02b1a4>@@AAV<lambda_42506531d319a600ce771deb5a236a10>@@V<lambda_31f843250ba6188c6e1f35d2bec6db0e>@@@?$__crt_seh_guarded_call@H@@QAEH$$QAV<lambda_b7f50223258ab9fcc98080d45d02b1a4>@@AAV<lambda_42506531d319a600ce771deb5a236a10>@@$$QAV<lambda_31f843250ba6188c6e1f35d2bec6db0e>@@@Z 1001c8ef f   libucrt:output.obj
 0001:0001b940       ??$?RV<lambda_cc35d49d909def412005bd38ddc96b77>@@AAV<lambda_d6a382b8dd98a6801a8abd6c28bdff2d>@@V<lambda_148068cfb9786d9714740654406e93d5>@@@?$__crt_seh_guarded_call@H@@QAEH$$QAV<lambda_cc35d49d909def412005bd38ddc96b77>@@AAV<lambda_d6a382b8dd98a6801a8abd6c28bdff2d>@@$$QAV<lambda_148068cfb9786d9714740654406e93d5>@@@Z 1001c940 f   libucrt:output.obj
 0001:0001b991       ??$__acrt_lock_stream_and_call@V<lambda_42506531d319a600ce771deb5a236a10>@@@@YAHQAU_iobuf@@$$QAV<lambda_42506531d319a600ce771deb5a236a10>@@@Z 1001c991 f   libucrt:output.obj
 0001:0001b9b9       ??$__acrt_lock_stream_and_call@V<lambda_96392db5b14a27f72535a2156da24b09>@@@@YAHQAU_iobuf@@$$QAV<lambda_96392db5b14a27f72535a2156da24b09>@@@Z 1001c9b9 f   libucrt:output.obj
 0001:0001b9e1       ??$__acrt_lock_stream_and_call@V<lambda_c4f131f91cb4ec00a5b0a26aa161b8b4>@@@@YAHQAU_iobuf@@$$QAV<lambda_c4f131f91cb4ec00a5b0a26aa161b8b4>@@@Z 1001c9e1 f   libucrt:output.obj
 0001:0001ba09       ??$__acrt_lock_stream_and_call@V<lambda_d6a382b8dd98a6801a8abd6c28bdff2d>@@@@YAHQAU_iobuf@@$$QAV<lambda_d6a382b8dd98a6801a8abd6c28bdff2d>@@@Z 1001ca09 f   libucrt:output.obj
 0001:0001ba31       ??$__acrt_lock_stream_and_call@V<lambda_df52180bf14694d51fdefd82613e8f07>@@@@YAHQAU_iobuf@@$$QAV<lambda_df52180bf14694d51fdefd82613e8f07>@@@Z 1001ca31 f   libucrt:output.obj
 0001:0001ba59       ??$__acrt_lock_stream_and_call@V<lambda_e38011a3ba6e07c7dbcef4d549f26102>@@@@YAHQAU_iobuf@@$$QAV<lambda_e38011a3ba6e07c7dbcef4d549f26102>@@@Z 1001ca59 f   libucrt:output.obj
 0001:0001ba8d       ??$common_vfprintf@Vformat_validation_base@__crt_stdio_output@@D@@YAH_KQAU_iobuf@@QBDQAU__crt_locale_pointers@@QAD@Z 1001ca8d f   libucrt:output.obj
 0001:0001baf3       ??$common_vfprintf@Vformat_validation_base@__crt_stdio_output@@_W@@YAH_KQAU_iobuf@@QB_WQAU__crt_locale_pointers@@QAD@Z 1001caf3 f   libucrt:output.obj
 0001:0001bb59       ??$common_vfprintf@Vpositional_parameter_base@__crt_stdio_output@@D@@YAH_KQAU_iobuf@@QBDQAU__crt_locale_pointers@@QAD@Z 1001cb59 f   libucrt:output.obj
 0001:0001bbbf       ??$common_vfprintf@Vpositional_parameter_base@__crt_stdio_output@@_W@@YAH_KQAU_iobuf@@QB_WQAU__crt_locale_pointers@@QAD@Z 1001cbbf f   libucrt:output.obj
 0001:0001bc25       ??$common_vfprintf@Vstandard_base@__crt_stdio_output@@D@@YAH_KQAU_iobuf@@QBDQAU__crt_locale_pointers@@QAD@Z 1001cc25 f   libucrt:output.obj
 0001:0001bc8b       ??$common_vfprintf@Vstandard_base@__crt_stdio_output@@_W@@YAH_KQAU_iobuf@@QB_WQAU__crt_locale_pointers@@QAD@Z 1001cc8b f   libucrt:output.obj
 0001:0001bcf1       ??$common_vsnprintf_s@D@@YAH_KQADIIQBDQAU__crt_locale_pointers@@1@Z 1001ccf1 f   libucrt:output.obj
 0001:0001bdde       ??$common_vsnprintf_s@_W@@YAH_KQA_WIIQB_WQAU__crt_locale_pointers@@QAD@Z 1001cdde f   libucrt:output.obj
 0001:0001becf       ??$common_vsprintf@Vformat_validation_base@__crt_stdio_output@@D@@YAH_KQADIQBDQAU__crt_locale_pointers@@1@Z 1001cecf f   libucrt:output.obj
 0001:0001c04f       ??$common_vsprintf@Vformat_validation_base@__crt_stdio_output@@_W@@YAH_KQA_WIQB_WQAU__crt_locale_pointers@@QAD@Z 1001d04f f   libucrt:output.obj
 0001:0001c1d8       ??$common_vsprintf@Vpositional_parameter_base@__crt_stdio_output@@D@@YAH_KQADIQBDQAU__crt_locale_pointers@@1@Z 1001d1d8 f   libucrt:output.obj
 0001:0001c38a       ??$common_vsprintf@Vpositional_parameter_base@__crt_stdio_output@@_W@@YAH_KQA_WIQB_WQAU__crt_locale_pointers@@QAD@Z 1001d38a f   libucrt:output.obj
 0001:0001c545       ??$common_vsprintf@Vstandard_base@__crt_stdio_output@@D@@YAH_KQADIQBDQAU__crt_locale_pointers@@1@Z 1001d545 f   libucrt:output.obj
 0001:0001c6c5       ??$common_vsprintf@Vstandard_base@__crt_stdio_output@@_W@@YAH_KQA_WIQB_WQAU__crt_locale_pointers@@QAD@Z 1001d6c5 f   libucrt:output.obj
 0001:0001c84e       ??$common_vsprintf_s@D@@YAH_KQADIQBDQAU__crt_locale_pointers@@1@Z 1001d84e f   libucrt:output.obj
 0001:0001c8c6       ??$common_vsprintf_s@_W@@YAH_KQA_WIQB_WQAU__crt_locale_pointers@@QAD@Z 1001d8c6 f   libucrt:output.obj
 0001:0001dc42       ??$extract_argument_from_va_list@PAUansi_string@?1??type_case_Z@?$output_processor@DV?$stream_output_adapter@D@__crt_stdio_output@@V?$format_validation_base@DV?$stream_output_adapter@D@__crt_stdio_output@@@2@@__crt_stdio_output@@AAE_NXZ@PAU1?1??234@AAE_NXZ@@?$standard_base@DV?$stream_output_adapter@D@__crt_stdio_output@@@__crt_stdio_output@@IAE_NAAPAUansi_string@?1??type_case_Z@?$output_processor@DV?$stream_output_adapter@D@__crt_stdio_output@@V?$format_validation_base@DV?$stream_output_adapter@D@__crt_stdio_output@@@2@@1@AAE_NXZ@@Z 1001ec42 f   libucrt:output.obj
 0001:0001dc5c       ??$extract_argument_from_va_list@PAUansi_string@?1??type_case_Z@?$output_processor@DV?$stream_output_adapter@D@__crt_stdio_output@@V?$positional_parameter_base@DV?$stream_output_adapter@D@__crt_stdio_output@@@2@@__crt_stdio_output@@AAE_NXZ@PAU1?1??234@AAE_NXZ@@?$positional_parameter_base@DV?$stream_output_adapter@D@__crt_stdio_output@@@__crt_stdio_output@@IAE_NAAPAUansi_string@?1??type_case_Z@?$output_processor@DV?$stream_output_adapter@D@__crt_stdio_output@@V?$positional_parameter_base@DV?$stream_output_adapter@D@__crt_stdio_output@@@2@@1@AAE_NXZ@@Z 1001ec5c f   libucrt:output.obj
 0001:0001dcd4       ??$extract_argument_from_va_list@PAUansi_string@?1??type_case_Z@?$output_processor@DV?$stream_output_adapter@D@__crt_stdio_output@@V?$positional_parameter_base@DV?$stream_output_adapter@D@__crt_stdio_output@@@2@@__crt_stdio_output@@AAE_NXZ@PAU1?1??234@AAE_NXZ@@?$standard_base@DV?$stream_output_adapter@D@__crt_stdio_output@@@__crt_stdio_output@@IAE_NAAPAUansi_string@?1??type_case_Z@?$output_processor@DV?$stream_output_adapter@D@__crt_stdio_output@@V?$positional_parameter_base@DV?$stream_output_adapter@D@__crt_stdio_output@@@2@@1@AAE_NXZ@@Z 1001ecd4 f   libucrt:output.obj
 0001:0001dcee       ??$extract_argument_from_va_list@PAUansi_string@?1??type_case_Z@?$output_processor@DV?$stream_output_adapter@D@__crt_stdio_output@@V?$standard_base@DV?$stream_output_adapter@D@__crt_stdio_output@@@2@@__crt_stdio_output@@AAE_NXZ@PAU1?1??234@AAE_NXZ@@?$standard_base@DV?$stream_output_adapter@D@__crt_stdio_output@@@__crt_stdio_output@@IAE_NAAPAUansi_string@?1??type_case_Z@?$output_processor@DV?$stream_output_adapter@D@__crt_stdio_output@@V?$standard_base@DV?$stream_output_adapter@D@__crt_stdio_output@@@2@@1@AAE_NXZ@@Z 1001ecee f   libucrt:output.obj
 0001:0001dd08       ??$extract_argument_from_va_list@PAUansi_string@?1??type_case_Z@?$output_processor@DV?$string_output_adapter@D@__crt_stdio_output@@V?$format_validation_base@DV?$string_output_adapter@D@__crt_stdio_output@@@2@@__crt_stdio_output@@AAE_NXZ@PAU1?1??234@AAE_NXZ@@?$standard_base@DV?$string_output_adapter@D@__crt_stdio_output@@@__crt_stdio_output@@IAE_NAAPAUansi_string@?1??type_case_Z@?$output_processor@DV?$string_output_adapter@D@__crt_stdio_output@@V?$format_validation_base@DV?$string_output_adapter@D@__crt_stdio_output@@@2@@1@AAE_NXZ@@Z 1001ed08 f   libucrt:output.obj
 0001:0001dd22       ??$extract_argument_from_va_list@PAUansi_string@?1??type_case_Z@?$output_processor@DV?$string_output_adapter@D@__crt_stdio_output@@V?$positional_parameter_base@DV?$string_output_adapter@D@__crt_stdio_output@@@2@@__crt_stdio_output@@AAE_NXZ@PAU1?1??234@AAE_NXZ@@?$positional_parameter_base@DV?$string_output_adapter@D@__crt_stdio_output@@@__crt_stdio_output@@IAE_NAAPAUansi_string@?1??type_case_Z@?$output_processor@DV?$string_output_adapter@D@__crt_stdio_output@@V?$positional_parameter_base@DV?$string_output_adapter@D@__crt_stdio_output@@@2@@1@AAE_NXZ@@Z 1001ed22 f   libucrt:output.obj
 0001:0001dd9a       ??$extract_argument_from_va_list@PAUansi_string@?1??type_case_Z@?$output_processor@DV?$string_output_adapter@D@__crt_stdio_output@@V?$positional_parameter_base@DV?$string_output_adapter@D@__crt_stdio_output@@@2@@__crt_stdio_output@@AAE_NXZ@PAU1?1??234@AAE_NXZ@@?$standard_base@DV?$string_output_adapter@D@__crt_stdio_output@@@__crt_stdio_output@@IAE_NAAPAUansi_string@?1??type_case_Z@?$output_processor@DV?$string_output_adapter@D@__crt_stdio_output@@V?$positional_parameter_base@DV?$string_output_adapter@D@__crt_stdio_output@@@2@@1@AAE_NXZ@@Z 1001ed9a f   libucrt:output.obj
 0001:0001ddb4       ??$extract_argument_from_va_list@PAUansi_string@?1??type_case_Z@?$output_processor@DV?$string_output_adapter@D@__crt_stdio_output@@V?$standard_base@DV?$string_output_adapter@D@__crt_stdio_output@@@2@@__crt_stdio_output@@AAE_NXZ@PAU1?1??234@AAE_NXZ@@?$standard_base@DV?$string_output_adapter@D@__crt_stdio_output@@@__crt_stdio_output@@IAE_NAAPAUansi_string@?1??type_case_Z@?$output_processor@DV?$string_output_adapter@D@__crt_stdio_output@@V?$standard_base@DV?$string_output_adapter@D@__crt_stdio_output@@@2@@1@AAE_NXZ@@Z 1001edb4 f   libucrt:output.obj
 0001:0001ddce       ??$extract_argument_from_va_list@PAUansi_string@?1??type_case_Z@?$output_processor@_WV?$stream_output_adapter@_W@__crt_stdio_output@@V?$format_validation_base@_WV?$stream_output_adapter@_W@__crt_stdio_output@@@2@@__crt_stdio_output@@AAE_NXZ@PAU1?1??234@AAE_NXZ@@?$standard_base@_WV?$stream_output_adapter@_W@__crt_stdio_output@@@__crt_stdio_output@@IAE_NAAPAUansi_string@?1??type_case_Z@?$output_processor@_WV?$stream_output_adapter@_W@__crt_stdio_output@@V?$format_validation_base@_WV?$stream_output_adapter@_W@__crt_stdio_output@@@2@@1@AAE_NXZ@@Z 1001edce f   libucrt:output.obj
 0001:0001dde8       ??$extract_argument_from_va_list@PAUansi_string@?1??type_case_Z@?$output_processor@_WV?$stream_output_adapter@_W@__crt_stdio_output@@V?$positional_parameter_base@_WV?$stream_output_adapter@_W@__crt_stdio_output@@@2@@__crt_stdio_output@@AAE_NXZ@PAU1?1??234@AAE_NXZ@@?$positional_parameter_base@_WV?$stream_output_adapter@_W@__crt_stdio_output@@@__crt_stdio_output@@IAE_NAAPAUansi_string@?1??type_case_Z@?$output_processor@_WV?$stream_output_adapter@_W@__crt_stdio_output@@V?$positional_parameter_base@_WV?$stream_output_adapter@_W@__crt_stdio_output@@@2@@1@AAE_NXZ@@Z 1001ede8 f   libucrt:output.obj
 0001:0001de60       ??$extract_argument_from_va_list@PAUansi_string@?1??type_case_Z@?$output_processor@_WV?$stream_output_adapter@_W@__crt_stdio_output@@V?$positional_parameter_base@_WV?$stream_output_adapter@_W@__crt_stdio_output@@@2@@__crt_stdio_output@@AAE_NXZ@PAU1?1??234@AAE_NXZ@@?$standard_base@_WV?$stream_output_adapter@_W@__crt_stdio_output@@@__crt_stdio_output@@IAE_NAAPAUansi_string@?1??type_case_Z@?$output_processor@_WV?$stream_output_adapter@_W@__crt_stdio_output@@V?$positional_parameter_base@_WV?$stream_output_adapter@_W@__crt_stdio_output@@@2@@1@AAE_NXZ@@Z 1001ee60 f   libucrt:output.obj
 0001:0001de7a       ??$extract_argument_from_va_list@PAUansi_string@?1??type_case_Z@?$output_processor@_WV?$stream_output_adapter@_W@__crt_stdio_output@@V?$standard_base@_WV?$stream_output_adapter@_W@__crt_stdio_output@@@2@@__crt_stdio_output@@AAE_NXZ@PAU1?1??234@AAE_NXZ@@?$standard_base@_WV?$stream_output_adapter@_W@__crt_stdio_output@@@__crt_stdio_output@@IAE_NAAPAUansi_string@?1??type_case_Z@?$output_processor@_WV?$stream_output_adapter@_W@__crt_stdio_output@@V?$standard_base@_WV?$stream_output_adapter@_W@__crt_stdio_output@@@2@@1@AAE_NXZ@@Z 1001ee7a f   libucrt:output.obj
 0001:0001de94       ??$extract_argument_from_va_list@PAUansi_string@?1??type_case_Z@?$output_processor@_WV?$string_output_adapter@_W@__crt_stdio_output@@V?$format_validation_base@_WV?$string_output_adapter@_W@__crt_stdio_output@@@2@@__crt_stdio_output@@AAE_NXZ@PAU1?1??234@AAE_NXZ@@?$standard_base@_WV?$string_output_adapter@_W@__crt_stdio_output@@@__crt_stdio_output@@IAE_NAAPAUansi_string@?1??type_case_Z@?$output_processor@_WV?$string_output_adapter@_W@__crt_stdio_output@@V?$format_validation_base@_WV?$string_output_adapter@_W@__crt_stdio_output@@@2@@1@AAE_NXZ@@Z 1001ee94 f   libucrt:output.obj
 0001:0001deae       ??$extract_argument_from_va_list@PAUansi_string@?1??type_case_Z@?$output_processor@_WV?$string_output_adapter@_W@__crt_stdio_output@@V?$positional_parameter_base@_WV?$string_output_adapter@_W@__crt_stdio_output@@@2@@__crt_stdio_output@@AAE_NXZ@PAU1?1??234@AAE_NXZ@@?$positional_parameter_base@_WV?$string_output_adapter@_W@__crt_stdio_output@@@__crt_stdio_output@@IAE_NAAPAUansi_string@?1??type_case_Z@?$output_processor@_WV?$string_output_adapter@_W@__crt_stdio_output@@V?$positional_parameter_base@_WV?$string_output_adapter@_W@__crt_stdio_output@@@2@@1@AAE_NXZ@@Z 1001eeae f   libucrt:output.obj
 0001:0001df26       ??$extract_argument_from_va_list@PAUansi_string@?1??type_case_Z@?$output_processor@_WV?$string_output_adapter@_W@__crt_stdio_output@@V?$positional_parameter_base@_WV?$string_output_adapter@_W@__crt_stdio_output@@@2@@__crt_stdio_output@@AAE_NXZ@PAU1?1??234@AAE_NXZ@@?$standard_base@_WV?$string_output_adapter@_W@__crt_stdio_output@@@__crt_stdio_output@@IAE_NAAPAUansi_string@?1??type_case_Z@?$output_processor@_WV?$string_output_adapter@_W@__crt_stdio_output@@V?$positional_parameter_base@_WV?$string_output_adapter@_W@__crt_stdio_output@@@2@@1@AAE_NXZ@@Z 1001ef26 f   libucrt:output.obj
 0001:0001df40       ??$extract_argument_from_va_list@PAUansi_string@?1??type_case_Z@?$output_processor@_WV?$string_output_adapter@_W@__crt_stdio_output@@V?$standard_base@_WV?$string_output_adapter@_W@__crt_stdio_output@@@2@@__crt_stdio_output@@AAE_NXZ@PAU1?1??234@AAE_NXZ@@?$standard_base@_WV?$string_output_adapter@_W@__crt_stdio_output@@@__crt_stdio_output@@IAE_NAAPAUansi_string@?1??type_case_Z@?$output_processor@_WV?$string_output_adapter@_W@__crt_stdio_output@@V?$standard_base@_WV?$string_output_adapter@_W@__crt_stdio_output@@@2@@1@AAE_NXZ@@Z 1001ef40 f   libucrt:output.obj
 0001:0001ebda       ??$get_parameter_type@Uansi_string@?1??type_case_Z@?$output_processor@DV?$stream_output_adapter@D@__crt_stdio_output@@V?$positional_parameter_base@DV?$stream_output_adapter@D@__crt_stdio_output@@@2@@__crt_stdio_output@@AAE_NXZ@@?$positional_parameter_base@DV?$stream_output_adapter@D@__crt_stdio_output@@@__crt_stdio_output@@CA?AW4parameter_type@01@PAUansi_string@?1??type_case_Z@?$output_processor@DV?$stream_output_adapter@D@__crt_stdio_output@@V?$positional_parameter_base@DV?$stream_output_adapter@D@__crt_stdio_output@@@2@@1@AAE_NXZ@@Z 1001fbda f   libucrt:output.obj
 0001:0001ebde       ??$get_parameter_type@Uansi_string@?1??type_case_Z@?$output_processor@DV?$string_output_adapter@D@__crt_stdio_output@@V?$positional_parameter_base@DV?$string_output_adapter@D@__crt_stdio_output@@@2@@__crt_stdio_output@@AAE_NXZ@@?$positional_parameter_base@DV?$string_output_adapter@D@__crt_stdio_output@@@__crt_stdio_output@@CA?AW4parameter_type@01@PAUansi_string@?1??type_case_Z@?$output_processor@DV?$string_output_adapter@D@__crt_stdio_output@@V?$positional_parameter_base@DV?$string_output_adapter@D@__crt_stdio_output@@@2@@1@AAE_NXZ@@Z 1001fbde f   libucrt:output.obj
 0001:0001ebe2       ??$get_parameter_type@Uansi_string@?1??type_case_Z@?$output_processor@_WV?$stream_output_adapter@_W@__crt_stdio_output@@V?$positional_parameter_base@_WV?$stream_output_adapter@_W@__crt_stdio_output@@@2@@__crt_stdio_output@@AAE_NXZ@@?$positional_parameter_base@_WV?$stream_output_adapter@_W@__crt_stdio_output@@@__crt_stdio_output@@CA?AW4parameter_type@01@PAUansi_string@?1??type_case_Z@?$output_processor@_WV?$stream_output_adapter@_W@__crt_stdio_output@@V?$positional_parameter_base@_WV?$stream_output_adapter@_W@__crt_stdio_output@@@2@@1@AAE_NXZ@@Z 1001fbe2 f   libucrt:output.obj
 0001:0001ebe6       ??$get_parameter_type@Uansi_string@?1??type_case_Z@?$output_processor@_WV?$string_output_adapter@_W@__crt_stdio_output@@V?$positional_parameter_base@_WV?$string_output_adapter@_W@__crt_stdio_output@@@2@@__crt_stdio_output@@AAE_NXZ@@?$positional_parameter_base@_WV?$string_output_adapter@_W@__crt_stdio_output@@@__crt_stdio_output@@CA?AW4parameter_type@01@PAUansi_string@?1??type_case_Z@?$output_processor@_WV?$string_output_adapter@_W@__crt_stdio_output@@V?$positional_parameter_base@_WV?$string_output_adapter@_W@__crt_stdio_output@@@2@@1@AAE_NXZ@@Z 1001fbe6 f   libucrt:output.obj
 0001:0001eea3       ??$peek_va_arg@PAUansi_string@?1??type_case_Z@?$output_processor@DV?$stream_output_adapter@D@__crt_stdio_output@@V?$positional_parameter_base@DV?$stream_output_adapter@D@__crt_stdio_output@@@2@@__crt_stdio_output@@AAE_NXZ@@__crt_stdio_output@@YAPAUansi_string@?1??type_case_Z@?$output_processor@DV?$stream_output_adapter@D@__crt_stdio_output@@V?$positional_parameter_base@DV?$stream_output_adapter@D@__crt_stdio_output@@@2@@0@AAE_NXZ@PAD@Z 1001fea3 f   libucrt:output.obj
 0001:0001eeaf       ??$peek_va_arg@PAUansi_string@?1??type_case_Z@?$output_processor@DV?$string_output_adapter@D@__crt_stdio_output@@V?$positional_parameter_base@DV?$string_output_adapter@D@__crt_stdio_output@@@2@@__crt_stdio_output@@AAE_NXZ@@__crt_stdio_output@@YAPAUansi_string@?1??type_case_Z@?$output_processor@DV?$string_output_adapter@D@__crt_stdio_output@@V?$positional_parameter_base@DV?$string_output_adapter@D@__crt_stdio_output@@@2@@0@AAE_NXZ@PAD@Z 1001feaf f   libucrt:output.obj
 0001:0001eebb       ??$peek_va_arg@PAUansi_string@?1??type_case_Z@?$output_processor@_WV?$stream_output_adapter@_W@__crt_stdio_output@@V?$positional_parameter_base@_WV?$stream_output_adapter@_W@__crt_stdio_output@@@2@@__crt_stdio_output@@AAE_NXZ@@__crt_stdio_output@@YAPAUansi_string@?1??type_case_Z@?$output_processor@_WV?$stream_output_adapter@_W@__crt_stdio_output@@V?$positional_parameter_base@_WV?$stream_output_adapter@_W@__crt_stdio_output@@@2@@0@AAE_NXZ@PAD@Z 1001febb f   libucrt:output.obj
 0001:0001eec7       ??$peek_va_arg@PAUansi_string@?1??type_case_Z@?$output_processor@_WV?$string_output_adapter@_W@__crt_stdio_output@@V?$positional_parameter_base@_WV?$string_output_adapter@_W@__crt_stdio_output@@@2@@__crt_stdio_output@@AAE_NXZ@@__crt_stdio_output@@YAPAUansi_string@?1??type_case_Z@?$output_processor@_WV?$string_output_adapter@_W@__crt_stdio_output@@V?$positional_parameter_base@_WV?$string_output_adapter@_W@__crt_stdio_output@@@2@@0@AAE_NXZ@PAD@Z 1001fec7 f   libucrt:output.obj
 0001:0001efcd       ??$read_va_arg@PAUansi_string@?1??type_case_Z@?$output_processor@DV?$stream_output_adapter@D@__crt_stdio_output@@V?$format_validation_base@DV?$stream_output_adapter@D@__crt_stdio_output@@@2@@__crt_stdio_output@@AAE_NXZ@@__crt_stdio_output@@YAPAUansi_string@?1??type_case_Z@?$output_processor@DV?$stream_output_adapter@D@__crt_stdio_output@@V?$format_validation_base@DV?$stream_output_adapter@D@__crt_stdio_output@@@2@@0@AAE_NXZ@AAPAD@Z 1001ffcd f   libucrt:output.obj
 0001:0001efdf       ??$read_va_arg@PAUansi_string@?1??type_case_Z@?$output_processor@DV?$stream_output_adapter@D@__crt_stdio_output@@V?$positional_parameter_base@DV?$stream_output_adapter@D@__crt_stdio_output@@@2@@__crt_stdio_output@@AAE_NXZ@@__crt_stdio_output@@YAPAUansi_string@?1??type_case_Z@?$output_processor@DV?$stream_output_adapter@D@__crt_stdio_output@@V?$positional_parameter_base@DV?$stream_output_adapter@D@__crt_stdio_output@@@2@@0@AAE_NXZ@AAPAD@Z 1001ffdf f   libucrt:output.obj
 0001:0001eff1       ??$read_va_arg@PAUansi_string@?1??type_case_Z@?$output_processor@DV?$stream_output_adapter@D@__crt_stdio_output@@V?$standard_base@DV?$stream_output_adapter@D@__crt_stdio_output@@@2@@__crt_stdio_output@@AAE_NXZ@@__crt_stdio_output@@YAPAUansi_string@?1??type_case_Z@?$output_processor@DV?$stream_output_adapter@D@__crt_stdio_output@@V?$standard_base@DV?$stream_output_adapter@D@__crt_stdio_output@@@2@@0@AAE_NXZ@AAPAD@Z 1001fff1 f   libucrt:output.obj
 0001:0001f003       ??$read_va_arg@PAUansi_string@?1??type_case_Z@?$output_processor@DV?$string_output_adapter@D@__crt_stdio_output@@V?$format_validation_base@DV?$string_output_adapter@D@__crt_stdio_output@@@2@@__crt_stdio_output@@AAE_NXZ@@__crt_stdio_output@@YAPAUansi_string@?1??type_case_Z@?$output_processor@DV?$string_output_adapter@D@__crt_stdio_output@@V?$format_validation_base@DV?$string_output_adapter@D@__crt_stdio_output@@@2@@0@AAE_NXZ@AAPAD@Z 10020003 f   libucrt:output.obj
 0001:0001f015       ??$read_va_arg@PAUansi_string@?1??type_case_Z@?$output_processor@DV?$string_output_adapter@D@__crt_stdio_output@@V?$positional_parameter_base@DV?$string_output_adapter@D@__crt_stdio_output@@@2@@__crt_stdio_output@@AAE_NXZ@@__crt_stdio_output@@YAPAUansi_string@?1??type_case_Z@?$output_processor@DV?$string_output_adapter@D@__crt_stdio_output@@V?$positional_parameter_base@DV?$string_output_adapter@D@__crt_stdio_output@@@2@@0@AAE_NXZ@AAPAD@Z 10020015 f   libucrt:output.obj
 0001:0001f027       ??$read_va_arg@PAUansi_string@?1??type_case_Z@?$output_processor@DV?$string_output_adapter@D@__crt_stdio_output@@V?$standard_base@DV?$string_output_adapter@D@__crt_stdio_output@@@2@@__crt_stdio_output@@AAE_NXZ@@__crt_stdio_output@@YAPAUansi_string@?1??type_case_Z@?$output_processor@DV?$string_output_adapter@D@__crt_stdio_output@@V?$standard_base@DV?$string_output_adapter@D@__crt_stdio_output@@@2@@0@AAE_NXZ@AAPAD@Z 10020027 f   libucrt:output.obj
 0001:0001f039       ??$read_va_arg@PAUansi_string@?1??type_case_Z@?$output_processor@_WV?$stream_output_adapter@_W@__crt_stdio_output@@V?$format_validation_base@_WV?$stream_output_adapter@_W@__crt_stdio_output@@@2@@__crt_stdio_output@@AAE_NXZ@@__crt_stdio_output@@YAPAUansi_string@?1??type_case_Z@?$output_processor@_WV?$stream_output_adapter@_W@__crt_stdio_output@@V?$format_validation_base@_WV?$stream_output_adapter@_W@__crt_stdio_output@@@2@@0@AAE_NXZ@AAPAD@Z 10020039 f   libucrt:output.obj
 0001:0001f04b       ??$read_va_arg@PAUansi_string@?1??type_case_Z@?$output_processor@_WV?$stream_output_adapter@_W@__crt_stdio_output@@V?$positional_parameter_base@_WV?$stream_output_adapter@_W@__crt_stdio_output@@@2@@__crt_stdio_output@@AAE_NXZ@@__crt_stdio_output@@YAPAUansi_string@?1??type_case_Z@?$output_processor@_WV?$stream_output_adapter@_W@__crt_stdio_output@@V?$positional_parameter_base@_WV?$stream_output_adapter@_W@__crt_stdio_output@@@2@@0@AAE_NXZ@AAPAD@Z 1002004b f   libucrt:output.obj
 0001:0001f05d       ??$read_va_arg@PAUansi_string@?1??type_case_Z@?$output_processor@_WV?$stream_output_adapter@_W@__crt_stdio_output@@V?$standard_base@_WV?$stream_output_adapter@_W@__crt_stdio_output@@@2@@__crt_stdio_output@@AAE_NXZ@@__crt_stdio_output@@YAPAUansi_string@?1??type_case_Z@?$output_processor@_WV?$stream_output_adapter@_W@__crt_stdio_output@@V?$standard_base@_WV?$stream_output_adapter@_W@__crt_stdio_output@@@2@@0@AAE_NXZ@AAPAD@Z 1002005d f   libucrt:output.obj
 0001:0001f06f       ??$read_va_arg@PAUansi_string@?1??type_case_Z@?$output_processor@_WV?$string_output_adapter@_W@__crt_stdio_output@@V?$format_validation_base@_WV?$string_output_adapter@_W@__crt_stdio_output@@@2@@__crt_stdio_output@@AAE_NXZ@@__crt_stdio_output@@YAPAUansi_string@?1??type_case_Z@?$output_processor@_WV?$string_output_adapter@_W@__crt_stdio_output@@V?$format_validation_base@_WV?$string_output_adapter@_W@__crt_stdio_output@@@2@@0@AAE_NXZ@AAPAD@Z 1002006f f   libucrt:output.obj
 0001:0001f081       ??$read_va_arg@PAUansi_string@?1??type_case_Z@?$output_processor@_WV?$string_output_adapter@_W@__crt_stdio_output@@V?$positional_parameter_base@_WV?$string_output_adapter@_W@__crt_stdio_output@@@2@@__crt_stdio_output@@AAE_NXZ@@__crt_stdio_output@@YAPAUansi_string@?1??type_case_Z@?$output_processor@_WV?$string_output_adapter@_W@__crt_stdio_output@@V?$positional_parameter_base@_WV?$string_output_adapter@_W@__crt_stdio_output@@@2@@0@AAE_NXZ@AAPAD@Z 10020081 f   libucrt:output.obj
 0001:0001f093       ??$read_va_arg@PAUansi_string@?1??type_case_Z@?$output_processor@_WV?$string_output_adapter@_W@__crt_stdio_output@@V?$standard_base@_WV?$string_output_adapter@_W@__crt_stdio_output@@@2@@__crt_stdio_output@@AAE_NXZ@@__crt_stdio_output@@YAPAUansi_string@?1??type_case_Z@?$output_processor@_WV?$string_output_adapter@_W@__crt_stdio_output@@V?$standard_base@_WV?$string_output_adapter@_W@__crt_stdio_output@@@2@@0@AAE_NXZ@AAPAD@Z 10020093 f   libucrt:output.obj
 0001:0001ff31       ??0<lambda_0f47277b42e3e84c3311fed419af0b3c>@@QAE@ABQAU_iobuf@@@Z 10020f31 f   libucrt:output.obj
 0001:0001ff43       ??0<lambda_114dc79c86b00c313cb0b6b3b001aaf8>@@QAE@ABQAU_iobuf@@@Z 10020f43 f   libucrt:output.obj
 0001:0001ff55       ??0<lambda_148068cfb9786d9714740654406e93d5>@@QAE@ABQAU_iobuf@@@Z 10020f55 f   libucrt:output.obj
 0001:0001ff67       ??0<lambda_31f843250ba6188c6e1f35d2bec6db0e>@@QAE@ABQAU_iobuf@@@Z 10020f67 f   libucrt:output.obj
 0001:0001ff79       ??0<lambda_3a2a6cca1b0f7007a3db339dcecd1562>@@QAE@ABQAU_iobuf@@@Z 10020f79 f   libucrt:output.obj
 0001:0001ff8b       ??0<lambda_42506531d319a600ce771deb5a236a10>@@QAE@ABQAU_iobuf@@ABQAU__crt_locale_pointers@@AB_KABQB_WABQAD@Z 10020f8b f   libucrt:output.obj
 0001:0001ffb3       ??0<lambda_4fa1155033dff2042363dba4e2dc3802>@@QAE@ABQAU_iobuf@@@Z 10020fb3 f   libucrt:output.obj
 0001:0001ffc5       ??0<lambda_75d23329f2fb3d02b2e1cf5509bb1caf>@@QAE@ABQAU_iobuf@@@Z 10020fc5 f   libucrt:output.obj
 0001:0001ffd7       ??0<lambda_80d7abc6eae2375db70be92ccaaf9b57>@@QAE@ABQAU_iobuf@@@Z 10020fd7 f   libucrt:output.obj
 0001:0001ffe9       ??0<lambda_96392db5b14a27f72535a2156da24b09>@@QAE@ABQAU_iobuf@@ABQAU__crt_locale_pointers@@AB_KABQB_WABQAD@Z 10020fe9 f   libucrt:output.obj
 0001:00020011       ??0<lambda_b2332a2b562101f3c3c34baab19e0511>@@QAE@ABQAU_iobuf@@@Z 10021011 f   libucrt:output.obj
 0001:00020023       ??0<lambda_b4329732a1a72698597872ef534ad66d>@@QAE@ABQAU_iobuf@@@Z 10021023 f   libucrt:output.obj
 0001:00020035       ??0<lambda_b7f50223258ab9fcc98080d45d02b1a4>@@QAE@ABQAU_iobuf@@@Z 10021035 f   libucrt:output.obj
 0001:00020047       ??0<lambda_c4f131f91cb4ec00a5b0a26aa161b8b4>@@QAE@ABQAU_iobuf@@ABQAU__crt_locale_pointers@@AB_KABQB_WABQAD@Z 10021047 f   libucrt:output.obj
 0001:0002006f       ??0<lambda_cc35d49d909def412005bd38ddc96b77>@@QAE@ABQAU_iobuf@@@Z 1002106f f   libucrt:output.obj
 0001:00020081       ??0<lambda_d6a382b8dd98a6801a8abd6c28bdff2d>@@QAE@ABQAU_iobuf@@ABQAU__crt_locale_pointers@@AB_KABQBDABQAD@Z 10021081 f   libucrt:output.obj
 0001:000200a9       ??0<lambda_df52180bf14694d51fdefd82613e8f07>@@QAE@ABQAU_iobuf@@ABQAU__crt_locale_pointers@@AB_KABQBDABQAD@Z 100210a9 f   libucrt:output.obj
 0001:000200d1       ??0<lambda_e38011a3ba6e07c7dbcef4d549f26102>@@QAE@ABQAU_iobuf@@ABQAU__crt_locale_pointers@@AB_KABQBDABQAD@Z 100210d1 f   libucrt:output.obj
 0001:0002066e       ??R<lambda_0f47277b42e3e84c3311fed419af0b3c>@@QBEXXZ 1002166e f   libucrt:output.obj
 0001:00020677       ??R<lambda_114dc79c86b00c313cb0b6b3b001aaf8>@@QBEXXZ 10021677 f   libucrt:output.obj
 0001:00020680       ??R<lambda_148068cfb9786d9714740654406e93d5>@@QBEXXZ 10021680 f   libucrt:output.obj
 0001:00020689       ??R<lambda_31f843250ba6188c6e1f35d2bec6db0e>@@QBEXXZ 10021689 f   libucrt:output.obj
 0001:00020692       ??R<lambda_3a2a6cca1b0f7007a3db339dcecd1562>@@QBEXXZ 10021692 f   libucrt:output.obj
 0001:0002069b       ??R<lambda_42506531d319a600ce771deb5a236a10>@@QBEHXZ 1002169b f   libucrt:output.obj
 0001:0002075c       ??R<lambda_4fa1155033dff2042363dba4e2dc3802>@@QBEXXZ 1002175c f   libucrt:output.obj
 0001:00020765       ??R<lambda_75d23329f2fb3d02b2e1cf5509bb1caf>@@QBEXXZ 10021765 f   libucrt:output.obj
 0001:0002076e       ??R<lambda_80d7abc6eae2375db70be92ccaaf9b57>@@QBEXXZ 1002176e f   libucrt:output.obj
 0001:00020777       ??R<lambda_96392db5b14a27f72535a2156da24b09>@@QBEHXZ 10021777 f   libucrt:output.obj
 0001:0002086d       ??R<lambda_b2332a2b562101f3c3c34baab19e0511>@@QBEXXZ 1002186d f   libucrt:output.obj
 0001:00020876       ??R<lambda_b4329732a1a72698597872ef534ad66d>@@QBEXXZ 10021876 f   libucrt:output.obj
 0001:0002087f       ??R<lambda_b7f50223258ab9fcc98080d45d02b1a4>@@QBEXXZ 1002187f f   libucrt:output.obj
 0001:00020888       ??R<lambda_c4f131f91cb4ec00a5b0a26aa161b8b4>@@QBEHXZ 10021888 f   libucrt:output.obj
 0001:00020949       ??R<lambda_cc35d49d909def412005bd38ddc96b77>@@QBEXXZ 10021949 f   libucrt:output.obj
 0001:00020952       ??R<lambda_d6a382b8dd98a6801a8abd6c28bdff2d>@@QBEHXZ 10021952 f   libucrt:output.obj
 0001:00020a13       ??R<lambda_df52180bf14694d51fdefd82613e8f07>@@QBEHXZ 10021a13 f   libucrt:output.obj
 0001:00020ad4       ??R<lambda_e38011a3ba6e07c7dbcef4d549f26102>@@QBEHXZ 10021ad4 f   libucrt:output.obj
 0001:00021ec9       $LN52                      10022ec9     libucrt:output.obj
 0001:00022025       $LN48                      10023025     libucrt:output.obj
 0001:00022141       $LN54                      10023141     libucrt:output.obj
 0001:00022269       $LN52                      10023269     libucrt:output.obj
 0001:000223c5       $LN48                      100233c5     libucrt:output.obj
 0001:000224e1       $LN54                      100234e1     libucrt:output.obj
 0001:00022611       $LN52                      10023611     libucrt:output.obj
 0001:00022771       $LN48                      10023771     libucrt:output.obj
 0001:00022891       $LN54                      10023891     libucrt:output.obj
 0001:000229c1       $LN52                      100239c1     libucrt:output.obj
 0001:00022b21       $LN48                      10023b21     libucrt:output.obj
 0001:00022c41       $LN54                      10023c41     libucrt:output.obj
 0001:00026a4e       $LN19                      10027a4e     libucrt:output.obj
 0001:0002cdfe       ??$translate_text_mode_nolock@D@@YAHHQADI@Z 1002ddfe f   libucrt:read.obj
 0001:0002cf61       ??$translate_text_mode_nolock@_W@@YAHHQA_WI@Z 1002df61 f   libucrt:read.obj
 0001:0002d134       ?store_lookahead@@YAXHD@Z  1002e134 f   libucrt:read.obj
 0001:0002d157       ?store_lookahead@@YAXH_W@Z 1002e157 f   libucrt:read.obj
 0001:0002d198       ?translate_ansi_or_utf8_nolock@@YAHHQADIQA_WI@Z 1002e198 f   libucrt:read.obj
 0001:0002d2f1       ?translate_utf16_from_console_nolock@@YAHHQA_WI@Z 1002e2f1 f   libucrt:read.obj
 0001:0002d839       ??$?RV<lambda_218ce3db14220d0be481dae8ef3383b6>@@AAV<lambda_628dfdc04ba53c8bfc02c9951375f3f5>@@V<lambda_57dc472bd5c9d5f3b2cbca59b8a843ae>@@@?$__crt_seh_guarded_call@H@@QAEH$$QAV<lambda_218ce3db14220d0be481dae8ef3383b6>@@AAV<lambda_628dfdc04ba53c8bfc02c9951375f3f5>@@$$QAV<lambda_57dc472bd5c9d5f3b2cbca59b8a843ae>@@@Z 1002e839 f   libucrt:close.obj
 0001:0002d8bb       ??$__acrt_lowio_lock_fh_and_call@V<lambda_628dfdc04ba53c8bfc02c9951375f3f5>@@@@YAHH$$QAV<lambda_628dfdc04ba53c8bfc02c9951375f3f5>@@@Z 1002e8bb f   libucrt:close.obj
 0001:0002d8e3       ??0<lambda_218ce3db14220d0be481dae8ef3383b6>@@QAE@ABH@Z 1002e8e3 f   libucrt:close.obj
 0001:0002d8f5       ??0<lambda_57dc472bd5c9d5f3b2cbca59b8a843ae>@@QAE@ABH@Z 1002e8f5 f   libucrt:close.obj
 0001:0002d907       ??0<lambda_628dfdc04ba53c8bfc02c9951375f3f5>@@QAE@ABH@Z 1002e907 f   libucrt:close.obj
 0001:0002d917       ??R<lambda_218ce3db14220d0be481dae8ef3383b6>@@QBEXXZ 1002e917 f   libucrt:close.obj
 0001:0002d920       ??R<lambda_57dc472bd5c9d5f3b2cbca59b8a843ae>@@QBEXXZ 1002e920 f   libucrt:close.obj
 0001:0002d929       ??R<lambda_628dfdc04ba53c8bfc02c9951375f3f5>@@QBEHXZ 1002e929 f   libucrt:close.obj
 0001:0002d962       ?close_os_handle_nolock@@YAKH@Z 1002e962 f   libucrt:close.obj
 0001:0002dc21       ??$common_strerror@D@@YAPADH@Z 1002ec21 f   libucrt:strerror.obj
 0001:0002dc9d       ??$common_strerror@_W@@YAPA_WH@Z 1002ec9d f   libucrt:strerror.obj
 0001:0002dd1a       ??$common_strerror_s@D@@YAHQADIH@Z 1002ed1a f   libucrt:strerror.obj
 0001:0002dd81       ??$common_strerror_s@_W@@YAHQA_WIH@Z 1002ed81 f   libucrt:strerror.obj
 0001:0002de0b       ?copy_string_into_buffer@@YAHQBDQADII@Z 1002ee0b f   libucrt:strerror.obj
 0001:0002de26       ?copy_string_into_buffer@@YAHQBDQA_WII@Z 1002ee26 f   libucrt:strerror.obj
 0001:0002de4f       ?get_failure_string@@YAPADD@Z 1002ee4f f   libucrt:strerror.obj
 0001:0002de55       ?get_failure_string@@YAPA_W_W@Z 1002ee55 f   libucrt:strerror.obj
 0001:0002de5b       ?get_ptd_buffer@@YAAAPADQAU__acrt_ptd@@D@Z 1002ee5b f   libucrt:strerror.obj
 0001:0002de68       ?get_ptd_buffer@@YAAAPA_WQAU__acrt_ptd@@_W@Z 1002ee68 f   libucrt:strerror.obj
 0001:0002dfb9       ?write_binary_nolock@@YA?AUwrite_result@?A0x17268360@@HQBDI@Z 1002efb9 f   libucrt:write.obj
 0001:0002e008       ?write_double_translated_ansi_nolock@@YA?AUwrite_result@?A0x17268360@@HQBDI@Z 1002f008 f   libucrt:write.obj
 0001:0002e1d7       ?write_double_translated_unicode_nolock@@YA?AUwrite_result@?A0x17268360@@QBDI@Z 1002f1d7 f   libucrt:write.obj
 0001:0002e241       ?write_requires_double_translation_nolock@@YA_NH@Z 1002f241 f   libucrt:write.obj
 0001:0002e2b7       ?write_text_ansi_nolock@@YA?AUwrite_result@?A0x17268360@@HQBDI@Z 1002f2b7 f   libucrt:write.obj
 0001:0002e394       ?write_text_utf16le_nolock@@YA?AUwrite_result@?A0x17268360@@HQBDI@Z 1002f394 f   libucrt:write.obj
 0001:0002e47f       ?write_text_utf8_nolock@@YA?AUwrite_result@?A0x17268360@@HQBDI@Z 1002f47f f   libucrt:write.obj
 0001:0002e8ad       ??$common_ftell@J@@YAJV__crt_stdio_stream@@@Z 1002f8ad f   libucrt:ftell.obj
 0001:0002e914       ??$common_ftell@_J@@YA_JV__crt_stdio_stream@@@Z 1002f914 f   libucrt:ftell.obj
 0001:0002e98a       ??$common_ftell_nolock@J@@YAJV__crt_stdio_stream@@@Z 1002f98a f   libucrt:ftell.obj
 0001:0002e9b5       ??$common_ftell_nolock@_J@@YA_JV__crt_stdio_stream@@@Z 1002f9b5 f   libucrt:ftell.obj
 0001:0002eb3a       ??$count_newlines_of_type@D@@YA_JQBD0@Z 1002fb3a f   libucrt:ftell.obj
 0001:0002eb73       ??$count_newlines_of_type@_W@@YA_JQBD0@Z 1002fb73 f   libucrt:ftell.obj
 0001:0002ebb2       ?buffer_character_size@@YAIW4__crt_lowio_text_mode@@@Z 1002fbb2 f   libucrt:ftell.obj
 0001:0002ebcc       ?buffer_contains_wide_characters@@YA_NW4__crt_lowio_text_mode@@@Z 1002fbcc f   libucrt:ftell.obj
 0001:0002ebe4       ?common_ftell_read_mode_nolock@@YA_JV__crt_stdio_stream@@_J1@Z 1002fbe4 f   libucrt:ftell.obj
 0001:0002eda6       ?common_ftell_translated_utf8_nolock@@YA_JV__crt_stdio_stream@@_J@Z 1002fda6 f   libucrt:ftell.obj
 0001:0002ef41       ?count_newline_bytes@@YA_JQBD0W4__crt_lowio_text_mode@@@Z 1002ff41 f   libucrt:ftell.obj
 0001:0002f0ae       ??$common_fopen_s@D@@YAHQAPAU_iobuf@@QBD1@Z 100300ae f   libucrt:fopen.obj
 0001:0002f0f5       ??$common_fopen_s@_W@@YAHQAPAU_iobuf@@QB_W1@Z 100300f5 f   libucrt:fopen.obj
 0001:0002f13c       ??$common_fsopen@D@@YAPAU_iobuf@@QBD0H@Z 1003013c f   libucrt:fopen.obj
 0001:0002f1e9       ??$common_fsopen@_W@@YAPAU_iobuf@@QB_W0H@Z 100301e9 f   libucrt:fopen.obj
 0001:0002f540       ?common_fseek@@YAHV__crt_stdio_stream@@_JH@Z 10030540 f   libucrt:fseek.obj
 0001:0002f5c1       ?common_fseek_binary_mode_read_only_fast_track_nolock@@YA_NV__crt_stdio_stream@@_JH@Z 100305c1 f   libucrt:fseek.obj
 0001:0002f69a       ?common_fseek_nolock@@YAHV__crt_stdio_stream@@_JH@Z 1003069a f   libucrt:fseek.obj
 0001:0002f831       ??$?RV<lambda_cd3bfd923e8d1349099e544c97b1bd8e>@@AAV<lambda_54dcfcba6f8e0c549fa430f4d53fb7dd>@@V<lambda_5e1d0fa2aa2b73b187bf8b7e1d30c7f8>@@@?$__crt_seh_guarded_call@I@@QAEI$$QAV<lambda_cd3bfd923e8d1349099e544c97b1bd8e>@@AAV<lambda_54dcfcba6f8e0c549fa430f4d53fb7dd>@@$$QAV<lambda_5e1d0fa2aa2b73b187bf8b7e1d30c7f8>@@@Z 10030831 f   libucrt:fwrite.obj
 0001:0002f882       ??$__acrt_lock_stream_and_call@V<lambda_54dcfcba6f8e0c549fa430f4d53fb7dd>@@@@YAIQAU_iobuf@@$$QAV<lambda_54dcfcba6f8e0c549fa430f4d53fb7dd>@@@Z 10030882 f   libucrt:fwrite.obj
 0001:0002f8aa       ??0<lambda_54dcfcba6f8e0c549fa430f4d53fb7dd>@@QAE@ABQAU_iobuf@@ABQBXABI2@Z 100308aa f   libucrt:fwrite.obj
 0001:0002f8cc       ??0<lambda_5e1d0fa2aa2b73b187bf8b7e1d30c7f8>@@QAE@ABQAU_iobuf@@@Z 100308cc f   libucrt:fwrite.obj
 0001:0002f8de       ??0<lambda_cd3bfd923e8d1349099e544c97b1bd8e>@@QAE@ABQAU_iobuf@@@Z 100308de f   libucrt:fwrite.obj
 0001:0002f8f0       ??R<lambda_54dcfcba6f8e0c549fa430f4d53fb7dd>@@QBEIXZ 100308f0 f   libucrt:fwrite.obj
 0001:0002f935       ??R<lambda_5e1d0fa2aa2b73b187bf8b7e1d30c7f8>@@QBEXXZ 10030935 f   libucrt:fwrite.obj
 0001:0002f93e       ??R<lambda_cd3bfd923e8d1349099e544c97b1bd8e>@@QBEXXZ 1003093e f   libucrt:fwrite.obj
 0001:0002fdf1       _memcpy_s                  10030df1 f   libucrt:fread.obj
 0001:0002fea5       ??$common_time@J@@YAJQAJ@Z 10030ea5 f   libucrt:time.obj
 0001:0002fed7       ??$common_time@_J@@YA_JQA_J@Z 10030ed7 f   libucrt:time.obj
 0001:0002ff19       ??$common_timespec_get@U_timespec32@@@@YAHQAU_timespec32@@H@Z 10030f19 f   libucrt:time.obj
 0001:0002ff96       ??$common_timespec_get@U_timespec64@@@@YAHQAU_timespec64@@H@Z 10030f96 f   libucrt:time.obj
 0001:00030145       ?xcptlookup@@YAPAU__crt_signal_action_t@@KQAU1@@Z 10031145 f   libucrt:exception_filter.obj
 0001:00030307       ??$?RV<lambda_03b1d95aef87969028cfba75ccab2455>@@AAV<lambda_6e4b09c48022b2350581041d5f6b0c4c>@@V<lambda_22bdf7517842c4b3e53723af5aa32b9e>@@@?$__crt_seh_guarded_call@X@@QAEX$$QAV<lambda_03b1d95aef87969028cfba75ccab2455>@@AAV<lambda_6e4b09c48022b2350581041d5f6b0c4c>@@$$QAV<lambda_22bdf7517842c4b3e53723af5aa32b9e>@@@Z 10031307 f   libucrt:exit.obj
 0001:0003034a       ??$__acrt_lock_and_call@V<lambda_6e4b09c48022b2350581041d5f6b0c4c>@@@@YAXW4__acrt_lock_id@@$$QAV<lambda_6e4b09c48022b2350581041d5f6b0c4c>@@@Z 1003134a f   libucrt:exit.obj
 0001:000303ba       ??0<lambda_03b1d95aef87969028cfba75ccab2455>@@QAE@ABW4__acrt_lock_id@@@Z 100313ba f   libucrt:exit.obj
 0001:000303cc       ??0<lambda_22bdf7517842c4b3e53723af5aa32b9e>@@QAE@ABW4__acrt_lock_id@@@Z 100313cc f   libucrt:exit.obj
 0001:000303de       ??0<lambda_6e4b09c48022b2350581041d5f6b0c4c>@@QAE@ABW4_crt_exit_cleanup_mode@@ABW4_crt_exit_return_mode@@AA_N@Z 100313de f   libucrt:exit.obj
 0001:00030421       ??R<lambda_03b1d95aef87969028cfba75ccab2455>@@QBEXXZ 10031421 f   libucrt:exit.obj
 0001:0003042a       ??R<lambda_22bdf7517842c4b3e53723af5aa32b9e>@@QBEXXZ 1003142a f   libucrt:exit.obj
 0001:00030433       ??R<lambda_6e4b09c48022b2350581041d5f6b0c4c>@@QBE@XZ 10031433 f   libucrt:exit.obj
 0001:00030513       ?atexit_exception_filter@@YAHK@Z 10031513 f   libucrt:exit.obj
 0001:00030552       ?common_exit@@YAXHW4_crt_exit_cleanup_mode@@W4_crt_exit_return_mode@@@Z 10031552 f   libucrt:exit.obj
 0001:000305b8       ?exit_or_terminate_process@@YAXI@Z 100315b8 f   libucrt:exit.obj
 0001:00030603       ?is_managed_app@@YA_NXZ    10031603 f   libucrt:exit.obj
 0001:00030647       ?should_call_terminate_process@@YA_NXZ 10031647 f   libucrt:exit.obj
 0001:00030665       ?try_cor_exit_process@@YAXI@Z 10031665 f   libucrt:exit.obj
 0001:000307c8       ??$common_configure_argv@D@@YAHW4_crt_argv_mode@@@Z 100317c8 f   libucrt:argv_parsing.obj
 0001:00030900       ??$common_configure_argv@_W@@YAHW4_crt_argv_mode@@@Z 10031900 f   libucrt:argv_parsing.obj
 0001:00030a67       ??$parse_command_line@D@@YAXPADPAPAD0PAI2@Z 10031a67 f   libucrt:argv_parsing.obj
 0001:00030be0       ??$parse_command_line@_W@@YAXPA_WPAPA_W0PAI2@Z 10031be0 f   libucrt:argv_parsing.obj
 0001:00030d99       ??0<lambda_a36aafc41185bea294aaaa3896c79ecc>@@QAE@AAV?$__crt_unique_heap_ptr@PA_WU__crt_internal_free_policy@@@@@Z 10031d99 f   libucrt:argv_parsing.obj
 0001:00030da9       ??0<lambda_df1553121bfa390f1154bd84936f2730>@@QAE@AAV?$__crt_unique_heap_ptr@PADU__crt_internal_free_policy@@@@@Z 10031da9 f   libucrt:argv_parsing.obj
 0001:00030e26       ??R<lambda_a36aafc41185bea294aaaa3896c79ecc>@@QBEHXZ 10031e26 f   libucrt:argv_parsing.obj
 0001:00030e3c       ??R<lambda_df1553121bfa390f1154bd84936f2730>@@QBEHXZ 10031e3c f   libucrt:argv_parsing.obj
 0001:00030e64       ?do_locale_initialization@@YAXD@Z 10031e64 f   libucrt:argv_parsing.obj
 0001:00030e69       ?do_locale_initialization@@YAX_W@Z 10031e69 f   libucrt:argv_parsing.obj
 0001:00030e6a       ?expand_argv_wildcards@@YAHQAPADQAPAPAD@Z 10031e6a f   libucrt:argv_parsing.obj
 0001:00030e75       ?expand_argv_wildcards@@YAHQAPA_WQAPAPA_W@Z 10031e75 f   libucrt:argv_parsing.obj
 0001:00030e8f       ?get_argv@@YAAAPAPADD@Z    10031e8f f   libucrt:argv_parsing.obj
 0001:00030e95       ?get_argv@@YAAAPAPA_W_W@Z  10031e95 f   libucrt:argv_parsing.obj
 0001:00030e9b       ?get_command_line@@YAPADD@Z 10031e9b f   libucrt:argv_parsing.obj
 0001:00030ea1       ?get_command_line@@YAPA_W_W@Z 10031ea1 f   libucrt:argv_parsing.obj
 0001:00030ee4       ?should_copy_another_character@@YA_ND@Z 10031ee4 f   libucrt:argv_parsing.obj
 0001:00030efb       ?should_copy_another_character@@YA_N_W@Z 10031efb f   libucrt:argv_parsing.obj
 0001:00030f81       ??$common_get_initial_environment@D@@YAPAPADXZ 10031f81 f   libucrt:environment_initialization.obj
 0001:00030f95       ??$common_get_initial_environment@_W@@YAPAPA_WXZ 10031f95 f   libucrt:environment_initialization.obj
 0001:00030fa9       ??$common_get_or_create_environment_nolock@D@@YAPAPADXZ 10031fa9 f   libucrt:environment_initialization.obj
 0001:00030fd5       ??$common_get_or_create_environment_nolock@_W@@YAPAPA_WXZ 10031fd5 f   libucrt:environment_initialization.obj
 0001:00031001       ??$common_initialize_environment_nolock@D@@YAHXZ 10032001 f   libucrt:environment_initialization.obj
 0001:00031054       ??$common_initialize_environment_nolock@_W@@YAHXZ 10032054 f   libucrt:environment_initialization.obj
 0001:000310a2       ??$count_variables_in_environment_block@D@@YA?BIQAD@Z 100320a2 f   libucrt:environment_initialization.obj
 0001:000310d6       ??$count_variables_in_environment_block@_W@@YA?BIQA_W@Z 100320d6 f   libucrt:environment_initialization.obj
 0001:0003111f       ??$create_environment@D@@YAQAPADQAD@Z 1003211f f   libucrt:environment_initialization.obj
 0001:000311f1       ??$create_environment@_W@@YAQAPA_WQA_W@Z 100321f1 f   libucrt:environment_initialization.obj
 0001:00031300       ??$free_environment@D@@YAXQAPAD@Z 10032300 f   libucrt:environment_initialization.obj
 0001:0003132f       ??$free_environment@_W@@YAXQAPA_W@Z 1003232f f   libucrt:environment_initialization.obj
 0001:00031368       ??$initialize_environment_by_cloning_nolock@D@@YAHXZ 10032368 f   libucrt:environment_initialization.obj
 0001:000313f0       ??$initialize_environment_by_cloning_nolock@_W@@YAHXZ 100323f0 f   libucrt:environment_initialization.obj
 0001:00031594       ??$uninitialize_environment_internal@D@@YAXAAPAPAD@Z 10032594 f   libucrt:environment_initialization.obj
 0001:000315af       ??$uninitialize_environment_internal@_W@@YAXAAPAPA_W@Z 100325af f   libucrt:environment_initialization.obj
 0001:00031660       ?get_dual_state_environment_nolock@@YAAAV?$dual_state_global@PAPAD@__crt_state_management@@D@Z 10032660 f   libucrt:environment_initialization.obj
 0001:00031666       ?get_dual_state_environment_nolock@@YAAAV?$dual_state_global@PAPA_W@__crt_state_management@@_W@Z 10032666 f   libucrt:environment_initialization.obj
 0001:0003166c       ?get_environment_nolock@@YAAAPAPADD@Z 1003266c f   libucrt:environment_initialization.obj
 0001:00031672       ?get_environment_nolock@@YAAAPAPA_W_W@Z 10032672 f   libucrt:environment_initialization.obj
 0001:00031678       ?get_initial_environment@@YAAAPAPADD@Z 10032678 f   libucrt:environment_initialization.obj
 0001:0003167e       ?get_initial_environment@@YAAAPAPA_W_W@Z 1003267e f   libucrt:environment_initialization.obj
 0001:000316e5       ?pre_initialize@@YAXD@Z    100326e5 f   libucrt:environment_initialization.obj
 0001:000316ea       ?pre_initialize@@YAX_W@Z   100326ea f   libucrt:environment_initialization.obj
 0001:0003179a       ??$?RV<lambda_69a2805e680e0e292e8ba93315fe43a8>@@AAV<lambda_f03950bc5685219e0bcd2087efbe011e>@@V<lambda_03fcd07e894ec930e3f35da366ca99d6>@@@?$__crt_seh_guarded_call@H@@QAEH$$QAV<lambda_69a2805e680e0e292e8ba93315fe43a8>@@AAV<lambda_f03950bc5685219e0bcd2087efbe011e>@@$$QAV<lambda_03fcd07e894ec930e3f35da366ca99d6>@@@Z 1003279a f   libucrt:onexit.obj
 0001:000317eb       ??$?RV<lambda_7ac4055421038abea736e08bd20712a4>@@AAV<lambda_a10e4b102d4a2c3aac6f4f48bbdf488f>@@V<lambda_1da61822885009acd1bf848af4f9644b>@@@?$__crt_seh_guarded_call@H@@QAEH$$QAV<lambda_7ac4055421038abea736e08bd20712a4>@@AAV<lambda_a10e4b102d4a2c3aac6f4f48bbdf488f>@@$$QAV<lambda_1da61822885009acd1bf848af4f9644b>@@@Z 100327eb f   libucrt:onexit.obj
 0001:0003183c       ??$__acrt_lock_and_call@V<lambda_a10e4b102d4a2c3aac6f4f48bbdf488f>@@@@YAHW4__acrt_lock_id@@$$QAV<lambda_a10e4b102d4a2c3aac6f4f48bbdf488f>@@@Z 1003283c f   libucrt:onexit.obj
 0001:00031864       ??$__acrt_lock_and_call@V<lambda_f03950bc5685219e0bcd2087efbe011e>@@@@YAHW4__acrt_lock_id@@$$QAV<lambda_f03950bc5685219e0bcd2087efbe011e>@@@Z 10032864 f   libucrt:onexit.obj
 0001:000318ab       ??0<lambda_03fcd07e894ec930e3f35da366ca99d6>@@QAE@ABW4__acrt_lock_id@@@Z 100328ab f   libucrt:onexit.obj
 0001:000318bd       ??0<lambda_1da61822885009acd1bf848af4f9644b>@@QAE@ABW4__acrt_lock_id@@@Z 100328bd f   libucrt:onexit.obj
 0001:000318cf       ??0<lambda_69a2805e680e0e292e8ba93315fe43a8>@@QAE@ABW4__acrt_lock_id@@@Z 100328cf f   libucrt:onexit.obj
 0001:000318e1       ??0<lambda_7ac4055421038abea736e08bd20712a4>@@QAE@ABW4__acrt_lock_id@@@Z 100328e1 f   libucrt:onexit.obj
 0001:000318f3       ??0<lambda_a10e4b102d4a2c3aac6f4f48bbdf488f>@@QAE@ABQAU_onexit_table_t@@ABQ6AHXZ@Z 100328f3 f   libucrt:onexit.obj
 0001:00031909       ??0<lambda_f03950bc5685219e0bcd2087efbe011e>@@QAE@ABQAU_onexit_table_t@@@Z 10032909 f   libucrt:onexit.obj
 0001:0003193c       ??R<lambda_03fcd07e894ec930e3f35da366ca99d6>@@QBEXXZ 1003293c f   libucrt:onexit.obj
 0001:00031945       ??R<lambda_1da61822885009acd1bf848af4f9644b>@@QBEXXZ 10032945 f   libucrt:onexit.obj
 0001:0003194e       ??R<lambda_69a2805e680e0e292e8ba93315fe43a8>@@QBEXXZ 1003294e f   libucrt:onexit.obj
 0001:00031957       ??R<lambda_7ac4055421038abea736e08bd20712a4>@@QBEXXZ 10032957 f   libucrt:onexit.obj
 0001:00031960       ??R<lambda_a10e4b102d4a2c3aac6f4f48bbdf488f>@@QBEHXZ 10032960 f   libucrt:onexit.obj
 0001:00031aa1       ??R<lambda_f03950bc5685219e0bcd2087efbe011e>@@QBEHXZ 10032aa1 f   libucrt:onexit.obj
 0001:00031caa       _initialize_global_variables 10032caa f   libucrt:initialization.obj
 0001:00031cb7       _initialize_c              10032cb7 f   libucrt:initialization.obj
 0001:00031cd1       _uninitialize_c            10032cd1 f   libucrt:initialization.obj
 0001:00031cd4       _initialize_environment    10032cd4 f   libucrt:initialization.obj
 0001:00031cd7       _uninitialize_environment  10032cd7 f   libucrt:initialization.obj
 0001:00031cdf       _initialize_global_state_isolation 10032cdf f   libucrt:initialization.obj
 0001:00031ce2       _uninitialize_global_state_isolation 10032ce2 f   libucrt:initialization.obj
 0001:00031ce5       _initialize_pointers       10032ce5 f   libucrt:initialization.obj
 0001:00031d22       _uninitialize_vcruntime    10032d22 f   libucrt:initialization.obj
 0001:00031d2b       _uninitialize_allocated_memory 10032d2b f   libucrt:initialization.obj
 0001:00031d44       _uninitialize_allocated_io_buffers 10032d44 f   libucrt:initialization.obj
 0001:00031d94       _report_memory_leaks       10032d94 f   libucrt:initialization.obj
 0001:00031d97       ??$uninitialize@V<lambda_af42a3ee9806e9a7305d451646e05244>@@@?$dual_state_global@PAU__crt_multibyte_data@@@__crt_state_management@@QAEX$$QAV<lambda_af42a3ee9806e9a7305d451646e05244>@@@Z 10032d97 f   libucrt:initialization.obj
 0001:00031dbb       ??R<lambda_af42a3ee9806e9a7305d451646e05244>@@QBEXAAPAU__crt_multibyte_data@@@Z 10032dbb f   libucrt:initialization.obj
 0001:00031e81       ?get_terminate_or_default@@YAP6AXXZQBU__acrt_ptd@@@Z 10032e81 f   libucrt:terminate.obj
 0001:00031f05       ??$common_tcscpy_s@D@@YAHQADIQBD@Z 10032f05 f   libucrt:strcpy_s.obj
 0001:00033b30       $$000000                   10034b30     libucrt:strncmp.obj
 0001:000344bf       ?get_std_handle_id@@YAKH@Z 100354bf f   libucrt:ioinit.obj
 0001:000344e1       ?initialize_inherited_file_handles_nolock@@YAXXZ 100354e1 f   libucrt:ioinit.obj
 0001:00034599       ?initialize_stdio_handles_nolock@@YAXXZ 10035599 f   libucrt:ioinit.obj
 0001:000346cf       ?select_heap@@YAPAXQAX@Z   100356cf f   libucrt:free_base.obj
 0001:000349ad       ?filter_mbtowcs_flags@@YAKIK@Z 100359ad f   libucrt:multibytetowidechar.obj
 0001:00034aa3       ??$?RV<lambda_15ade71b0218206bbe3333a0c9b79046>@@AAV<lambda_da44e0f8b0f19ba52fefafb335991732>@@V<lambda_207f2d024fc103971653565357d6cd41>@@@?$__crt_seh_guarded_call@X@@QAEX$$QAV<lambda_15ade71b0218206bbe3333a0c9b79046>@@AAV<lambda_da44e0f8b0f19ba52fefafb335991732>@@$$QAV<lambda_207f2d024fc103971653565357d6cd41>@@@Z 10035aa3 f   libucrt:per_thread_data.obj
 0001:00034aeb       ??$?RV<lambda_38edbb1296d33220d7e4dd0ed76b244a>@@AAV<lambda_5ce1d447e08cb34b2473517608e21441>@@V<lambda_fb385d3da700c9147fc39e65dd577a8c>@@@?$__crt_seh_guarded_call@X@@QAEX$$QAV<lambda_38edbb1296d33220d7e4dd0ed76b244a>@@AAV<lambda_5ce1d447e08cb34b2473517608e21441>@@$$QAV<lambda_fb385d3da700c9147fc39e65dd577a8c>@@@Z 10035aeb f   libucrt:per_thread_data.obj
 0001:00034b4c       ??$?RV<lambda_6affb1475c98b40b75cdec977db92e3c>@@AAV<lambda_b8d4b9c228a6ecc3f80208dbb4b4a104>@@V<lambda_608742c3c92a14382c1684fc64f96c88>@@@?$__crt_seh_guarded_call@X@@QAEX$$QAV<lambda_6affb1475c98b40b75cdec977db92e3c>@@AAV<lambda_b8d4b9c228a6ecc3f80208dbb4b4a104>@@$$QAV<lambda_608742c3c92a14382c1684fc64f96c88>@@@Z 10035b4c f   libucrt:per_thread_data.obj
 0001:00034b97       ??$?RV<lambda_a7e850c220f1c8d1e6efeecdedd162c6>@@AAV<lambda_46720907175c18b6c9d2717bc0d2d362>@@V<lambda_9048902d66e8d99359bc9897bbb930a8>@@@?$__crt_seh_guarded_call@X@@QAEX$$QAV<lambda_a7e850c220f1c8d1e6efeecdedd162c6>@@AAV<lambda_46720907175c18b6c9d2717bc0d2d362>@@$$QAV<lambda_9048902d66e8d99359bc9897bbb930a8>@@@Z 10035b97 f   libucrt:per_thread_data.obj
 0001:00034be7       ??$__acrt_lock_and_call@V<lambda_46720907175c18b6c9d2717bc0d2d362>@@@@YAXW4__acrt_lock_id@@$$QAV<lambda_46720907175c18b6c9d2717bc0d2d362>@@@Z 10035be7 f   libucrt:per_thread_data.obj
 0001:00034c0f       ??$__acrt_lock_and_call@V<lambda_5ce1d447e08cb34b2473517608e21441>@@@@YAXW4__acrt_lock_id@@$$QAV<lambda_5ce1d447e08cb34b2473517608e21441>@@@Z 10035c0f f   libucrt:per_thread_data.obj
 0001:00034c37       ??$__acrt_lock_and_call@V<lambda_b8d4b9c228a6ecc3f80208dbb4b4a104>@@@@YAXW4__acrt_lock_id@@$$QAV<lambda_b8d4b9c228a6ecc3f80208dbb4b4a104>@@@Z 10035c37 f   libucrt:per_thread_data.obj
 0001:00034c5f       ??$__acrt_lock_and_call@V<lambda_da44e0f8b0f19ba52fefafb335991732>@@@@YAXW4__acrt_lock_id@@$$QAV<lambda_da44e0f8b0f19ba52fefafb335991732>@@@Z 10035c5f f   libucrt:per_thread_data.obj
 0001:00034c87       ??0<lambda_15ade71b0218206bbe3333a0c9b79046>@@QAE@ABW4__acrt_lock_id@@@Z 10035c87 f   libucrt:per_thread_data.obj
 0001:00034c99       ??0<lambda_207f2d024fc103971653565357d6cd41>@@QAE@ABW4__acrt_lock_id@@@Z 10035c99 f   libucrt:per_thread_data.obj
 0001:00034cab       ??0<lambda_38edbb1296d33220d7e4dd0ed76b244a>@@QAE@ABW4__acrt_lock_id@@@Z 10035cab f   libucrt:per_thread_data.obj
 0001:00034cbd       ??0<lambda_46720907175c18b6c9d2717bc0d2d362>@@QAE@ABQAU__acrt_ptd@@ABQAPAU__crt_locale_data@@@Z 10035cbd f   libucrt:per_thread_data.obj
 0001:00034cd3       ??0<lambda_5ce1d447e08cb34b2473517608e21441>@@QAE@ABQAU__acrt_ptd@@@Z 10035cd3 f   libucrt:per_thread_data.obj
 0001:00034ce3       ??0<lambda_608742c3c92a14382c1684fc64f96c88>@@QAE@ABW4__acrt_lock_id@@@Z 10035ce3 f   libucrt:per_thread_data.obj
 0001:00034cf5       ??0<lambda_6affb1475c98b40b75cdec977db92e3c>@@QAE@ABW4__acrt_lock_id@@@Z 10035cf5 f   libucrt:per_thread_data.obj
 0001:00034d07       ??0<lambda_9048902d66e8d99359bc9897bbb930a8>@@QAE@ABW4__acrt_lock_id@@@Z 10035d07 f   libucrt:per_thread_data.obj
 0001:00034d19       ??0<lambda_a7e850c220f1c8d1e6efeecdedd162c6>@@QAE@ABW4__acrt_lock_id@@@Z 10035d19 f   libucrt:per_thread_data.obj
 0001:00034d2b       ??0<lambda_b8d4b9c228a6ecc3f80208dbb4b4a104>@@QAE@ABQAU__acrt_ptd@@@Z 10035d2b f   libucrt:per_thread_data.obj
 0001:00034d3b       ??0<lambda_da44e0f8b0f19ba52fefafb335991732>@@QAE@ABQAU__acrt_ptd@@@Z 10035d3b f   libucrt:per_thread_data.obj
 0001:00034d4b       ??0<lambda_fb385d3da700c9147fc39e65dd577a8c>@@QAE@ABW4__acrt_lock_id@@@Z 10035d4b f   libucrt:per_thread_data.obj
 0001:00034da0       ??R<lambda_15ade71b0218206bbe3333a0c9b79046>@@QBEXXZ 10035da0 f   libucrt:per_thread_data.obj
 0001:00034da9       ??R<lambda_207f2d024fc103971653565357d6cd41>@@QBEXXZ 10035da9 f   libucrt:per_thread_data.obj
 0001:00034db2       ??R<lambda_38edbb1296d33220d7e4dd0ed76b244a>@@QBEXXZ 10035db2 f   libucrt:per_thread_data.obj
 0001:00034dbb       ??R<lambda_46720907175c18b6c9d2717bc0d2d362>@@QBEXXZ 10035dbb f   libucrt:per_thread_data.obj
 0001:00034dce       ??R<lambda_5ce1d447e08cb34b2473517608e21441>@@QBEXXZ 10035dce f   libucrt:per_thread_data.obj
 0001:00034df2       ??R<lambda_608742c3c92a14382c1684fc64f96c88>@@QBEXXZ 10035df2 f   libucrt:per_thread_data.obj
 0001:00034dfb       ??R<lambda_6affb1475c98b40b75cdec977db92e3c>@@QBEXXZ 10035dfb f   libucrt:per_thread_data.obj
 0001:00034e04       ??R<lambda_9048902d66e8d99359bc9897bbb930a8>@@QBEXXZ 10035e04 f   libucrt:per_thread_data.obj
 0001:00034e0d       ??R<lambda_a7e850c220f1c8d1e6efeecdedd162c6>@@QBEXXZ 10035e0d f   libucrt:per_thread_data.obj
 0001:00034e16       ??R<lambda_b8d4b9c228a6ecc3f80208dbb4b4a104>@@QBEXXZ 10035e16 f   libucrt:per_thread_data.obj
 0001:00034e24       ??R<lambda_da44e0f8b0f19ba52fefafb335991732>@@QBEXXZ 10035e24 f   libucrt:per_thread_data.obj
 0001:00034e2f       ??R<lambda_fb385d3da700c9147fc39e65dd577a8c>@@QBEXXZ 10035e2f f   libucrt:per_thread_data.obj
 0001:00034e38       ?construct_ptd@@YAXQAU__acrt_ptd@@QAPAU__crt_locale_data@@@Z 10035e38 f   libucrt:per_thread_data.obj
 0001:00034ed3       ?construct_ptd_array@@YAXQAU__acrt_ptd@@@Z 10035ed3 f   libucrt:per_thread_data.obj
 0001:00034eec       ?destroy_fls@@YGXPAX@Z     10035eec f   libucrt:per_thread_data.obj
 0001:00034f0d       ?destroy_ptd@@YAXQAU__acrt_ptd@@@Z 10035f0d f   libucrt:per_thread_data.obj
 0001:00034fdc       ?destroy_ptd_array@@YAXQAU__acrt_ptd@@@Z 10035fdc f   libucrt:per_thread_data.obj
 0001:00034fed       ?internal_get_ptd_head@@YAPAU__acrt_ptd@@XZ 10035fed f   libucrt:per_thread_data.obj
 0001:00035072       ?internal_getptd_noexit@@YAPAU__acrt_ptd@@XZ 10036072 f   libucrt:per_thread_data.obj
 0001:0003513c       ?replace_current_thread_locale_nolock@@YAXQAU__acrt_ptd@@QAU__crt_locale_data@@@Z 1003613c f   libucrt:per_thread_data.obj
 0001:00035187       ?try_get_ptd_head@@YAPAU__acrt_ptd@@XZ 10036187 f   libucrt:per_thread_data.obj
 0001:0003541a       ?<lambda_invoker_stdcall>@<lambda_29d3c280b90b41c2ae070ffca879996a>@@CGHPA_W@Z 1003641a f   libucrt:winapi_thunks.obj
 0001:0003543f       ??$?RV<lambda_93797fb4802c957ba6a7f08e1250235b>@@AAV<lambda_1f3ce6bd48e0aa2e72a71c02eee379d3>@@V<lambda_56cae30c9364c9b6c15aeaac05d0418e>@@@?$__crt_seh_guarded_call@H@@QAEH$$QAV<lambda_93797fb4802c957ba6a7f08e1250235b>@@AAV<lambda_1f3ce6bd48e0aa2e72a71c02eee379d3>@@$$QAV<lambda_56cae30c9364c9b6c15aeaac05d0418e>@@@Z 1003643f f   libucrt:winapi_thunks.obj
 0001:000354c7       ??$__acrt_lock_and_call@V<lambda_1f3ce6bd48e0aa2e72a71c02eee379d3>@@@@YAHW4__acrt_lock_id@@$$QAV<lambda_1f3ce6bd48e0aa2e72a71c02eee379d3>@@@Z 100364c7 f   libucrt:winapi_thunks.obj
 0001:00035524       ??0<lambda_1f3ce6bd48e0aa2e72a71c02eee379d3>@@QAE@ABQ6GHPA_WKJ@Z@Z 10036524 f   libucrt:winapi_thunks.obj
 0001:00035534       ??0<lambda_56cae30c9364c9b6c15aeaac05d0418e>@@QAE@ABW4__acrt_lock_id@@@Z 10036534 f   libucrt:winapi_thunks.obj
 0001:00035546       ??0<lambda_93797fb4802c957ba6a7f08e1250235b>@@QAE@ABW4__acrt_lock_id@@@Z 10036546 f   libucrt:winapi_thunks.obj
 0001:00035558       ??B<lambda_29d3c280b90b41c2ae070ffca879996a>@@QBEP6GHPA_W@ZXZ 10036558 f   libucrt:winapi_thunks.obj
 0001:0003555e       ??R<lambda_1f3ce6bd48e0aa2e72a71c02eee379d3>@@QBEHXZ 1003655e f   libucrt:winapi_thunks.obj
 0001:00035599       ??R<lambda_29d3c280b90b41c2ae070ffca879996a>@@QBEHPA_W@Z 10036599 f   libucrt:winapi_thunks.obj
 0001:000355df       ??R<lambda_56cae30c9364c9b6c15aeaac05d0418e>@@QBEXXZ 100365df f   libucrt:winapi_thunks.obj
 0001:000355e8       ??R<lambda_93797fb4802c957ba6a7f08e1250235b>@@QBEXXZ 100365e8 f   libucrt:winapi_thunks.obj
 0001:000355f1       ?enum_system_locales_ex_nolock@@YAHQ6GHPA_WKJ@Z@Z 100365f1 f   libucrt:winapi_thunks.obj
 0001:00035631       ?invalid_function_sentinel@@YAPAXXZ 10036631 f   libucrt:winapi_thunks.obj
 0001:00035635       ?try_get_AppPolicyGetProcessTerminationMethod@@YAP6GJPAXPAW4AppPolicyProcessTerminationMethod@@@ZXZ 10036635 f   libucrt:winapi_thunks.obj
 0001:0003564f       ?try_get_AppPolicyGetShowDeveloperDiagnostic@@YAP6GJPAXPAW4AppPolicyShowDeveloperDiagnostic@@@ZXZ 1003664f f   libucrt:winapi_thunks.obj
 0001:00035669       ?try_get_AppPolicyGetThreadInitializationType@@YAP6GJPAXPAW4AppPolicyThreadInitializationType@@@ZXZ 10036669 f   libucrt:winapi_thunks.obj
 0001:00035683       ?try_get_AppPolicyGetWindowingModel@@YAP6GJPAXPAW4AppPolicyWindowingModel@@@ZXZ 10036683 f   libucrt:winapi_thunks.obj
 0001:0003569d       ?try_get_AreFileApisANSI@@YAP6GHXZXZ 1003669d f   libucrt:winapi_thunks.obj
 0001:000356b7       ?try_get_CompareStringEx@@YAP6GHPB_WK0H0HPAU_nlsversioninfo@@PAXJ@ZXZ 100366b7 f   libucrt:winapi_thunks.obj
 0001:000356d1       ?try_get_EnumSystemLocalesEx@@YAP6GHP6GHPA_WKJ@ZKJPAX@ZXZ 100366d1 f   libucrt:winapi_thunks.obj
 0001:000356eb       ?try_get_FlsAlloc@@YAP6GKP6GXPAX@Z@ZXZ 100366eb f   libucrt:winapi_thunks.obj
 0001:00035705       ?try_get_FlsFree@@YAP6GHK@ZXZ 10036705 f   libucrt:winapi_thunks.obj
 0001:0003571f       ?try_get_FlsGetValue@@YAP6GPAXK@ZXZ 1003671f f   libucrt:winapi_thunks.obj
 0001:00035739       ?try_get_FlsSetValue@@YAP6GHKPAX@ZXZ 10036739 f   libucrt:winapi_thunks.obj
 0001:00035753       ?try_get_GetActiveWindow@@YAP6GPAUHWND__@@XZXZ 10036753 f   libucrt:winapi_thunks.obj
 0001:0003576d       ?try_get_GetDateFormatEx@@YAP6GHPB_WKPBU_SYSTEMTIME@@0PA_WH0@ZXZ 1003676d f   libucrt:winapi_thunks.obj
 0001:00035787       ?try_get_GetEnabledXStateFeatures@@YAP6G_KXZXZ 10036787 f   libucrt:winapi_thunks.obj
 0001:000357a1       ?try_get_GetLastActivePopup@@YAP6GPAUHWND__@@PAU1@@ZXZ 100367a1 f   libucrt:winapi_thunks.obj
 0001:000357bb       ?try_get_GetLocaleInfoEx@@YAP6GHPB_WKPA_WH@ZXZ 100367bb f   libucrt:winapi_thunks.obj
 0001:000357d5       ?try_get_GetProcessWindowStation@@YAP6GPAUHWINSTA__@@XZXZ 100367d5 f   libucrt:winapi_thunks.obj
 0001:000357ef       ?try_get_GetSystemTimePreciseAsFileTime@@YAP6GXPAU_FILETIME@@@ZXZ 100367ef f   libucrt:winapi_thunks.obj
 0001:00035809       ?try_get_GetTimeFormatEx@@YAP6GHPB_WKPBU_SYSTEMTIME@@0PA_WH@ZXZ 10036809 f   libucrt:winapi_thunks.obj
 0001:00035823       ?try_get_GetUserDefaultLocaleName@@YAP6GHPA_WH@ZXZ 10036823 f   libucrt:winapi_thunks.obj
 0001:0003583d       ?try_get_GetUserObjectInformationW@@YAP6GHPAXH0KPAK@ZXZ 1003683d f   libucrt:winapi_thunks.obj
 0001:00035857       ?try_get_GetXStateFeaturesMask@@YAP6GHPAU_CONTEXT@@PA_K@ZXZ 10036857 f   libucrt:winapi_thunks.obj
 0001:00035871       ?try_get_InitializeCriticalSectionEx@@YAP6GHPAU_RTL_CRITICAL_SECTION@@KK@ZXZ 10036871 f   libucrt:winapi_thunks.obj
 0001:0003588b       ?try_get_IsValidLocaleName@@YAP6GHPB_W@ZXZ 1003688b f   libucrt:winapi_thunks.obj
 0001:000358a5       ?try_get_LCIDToLocaleName@@YAP6GHKPA_WHK@ZXZ 100368a5 f   libucrt:winapi_thunks.obj
 0001:000358bf       ?try_get_LCMapStringEx@@YAP6GHPB_WK0HPA_WHPAU_nlsversioninfo@@PAXJ@ZXZ 100368bf f   libucrt:winapi_thunks.obj
 0001:000358d9       ?try_get_LocaleNameToLCID@@YAP6GKPB_WK@ZXZ 100368d9 f   libucrt:winapi_thunks.obj
 0001:000358f3       ?try_get_LocateXStateFeature@@YAP6GPAXPAU_CONTEXT@@KPAK@ZXZ 100368f3 f   libucrt:winapi_thunks.obj
 0001:0003590d       ?try_get_MessageBoxA@@YAP6GHPAUHWND__@@PBD1I@ZXZ 1003690d f   libucrt:winapi_thunks.obj
 0001:00035927       ?try_get_MessageBoxW@@YAP6GHPAUHWND__@@PB_W1I@ZXZ 10036927 f   libucrt:winapi_thunks.obj
 0001:00035941       ?try_get_RoInitialize@@YAP6GJW4RO_INIT_TYPE@@@ZXZ 10036941 f   libucrt:winapi_thunks.obj
 0001:0003595b       ?try_get_RoUninitialize@@YAP6GXXZXZ 1003695b f   libucrt:winapi_thunks.obj
 0001:00035975       ?try_get_SetThreadStackGuarantee@@YAP6GHPAK@ZXZ 10036975 f   libucrt:winapi_thunks.obj
 0001:0003598f       ?try_get_SystemFunction036@@YAP6GEPAXK@ZXZ 1003698f f   libucrt:winapi_thunks.obj
 0001:000359a9       ?try_get_first_available_module@@YAPAUHINSTANCE__@@QBW4module_id@?A0x391cf84c@@0@Z 100369a9 f   libucrt:winapi_thunks.obj
 0001:00035a71       ?try_get_function@@YAPAXW4function_id@?A0x391cf84c@@QBDQBW4module_id@2@2@Z 10036a71 f   libucrt:winapi_thunks.obj
 0001:00035af3       ?try_get_module@@YAPAUHINSTANCE__@@W4module_id@?A0x391cf84c@@@Z 10036af3 f   libucrt:winapi_thunks.obj
 0001:00035b44       ?try_get_proc_address_from_first_available_module@@YAPAXQBDQBW4module_id@?A0x391cf84c@@1@Z 10036b44 f   libucrt:winapi_thunks.obj
 0001:00035b68       ?try_load_library_from_system_directory@@YAPAUHINSTANCE__@@QB_W@Z 10036b68 f   libucrt:winapi_thunks.obj
 0001:00036854       ??$?RV<lambda_3b12a17125e8c5b5e6e6f6c6050db0c1>@@AAV<lambda_522ac1b1e1a1180d6f374a882b81d1c8>@@V<lambda_e92b96cac182f562f30acc9fb7872857>@@@?$__crt_seh_guarded_call@H@@QAEH$$QAV<lambda_3b12a17125e8c5b5e6e6f6c6050db0c1>@@AAV<lambda_522ac1b1e1a1180d6f374a882b81d1c8>@@$$QAV<lambda_e92b96cac182f562f30acc9fb7872857>@@@Z 10037854 f   libucrt:chsize.obj
 0001:000368dc       ??$__acrt_lowio_lock_fh_and_call@V<lambda_522ac1b1e1a1180d6f374a882b81d1c8>@@@@YAHH$$QAV<lambda_522ac1b1e1a1180d6f374a882b81d1c8>@@@Z 100378dc f   libucrt:chsize.obj
 0001:00036904       ??0<lambda_3b12a17125e8c5b5e6e6f6c6050db0c1>@@QAE@ABH@Z 10037904 f   libucrt:chsize.obj
 0001:00036916       ??0<lambda_522ac1b1e1a1180d6f374a882b81d1c8>@@QAE@ABHAB_J@Z 10037916 f   libucrt:chsize.obj
 0001:0003692c       ??0<lambda_e92b96cac182f562f30acc9fb7872857>@@QAE@ABH@Z 1003792c f   libucrt:chsize.obj
 0001:0003693e       ??R<lambda_3b12a17125e8c5b5e6e6f6c6050db0c1>@@QBEXXZ 1003793e f   libucrt:chsize.obj
 0001:00036947       ??R<lambda_522ac1b1e1a1180d6f374a882b81d1c8>@@QBEHXZ 10037947 f   libucrt:chsize.obj
 0001:0003698a       ??R<lambda_e92b96cac182f562f30acc9fb7872857>@@QBEXXZ 1003798a f   libucrt:chsize.obj
 0001:00036bed       _no_op_initialize          10037bed f   libucrt:wsetlocale.obj
 0001:00036c26       ??$?RV<lambda_135d2772fca65dc1248eeaa1b56e886a>@@AAV<lambda_2a444430fde8c29194d880d93eed5e8f>@@AAV<lambda_8dff2cf36a5417162780cd64fa2883ef>@@@?$__crt_seh_guarded_call@X@@QAEX$$QAV<lambda_135d2772fca65dc1248eeaa1b56e886a>@@AAV<lambda_2a444430fde8c29194d880d93eed5e8f>@@AAV<lambda_8dff2cf36a5417162780cd64fa2883ef>@@@Z 10037c26 f   libucrt:wsetlocale.obj
 0001:00036c61       ??$?RV<lambda_4fdada1b837b2abbf20876fac97688ad>@@AAV<lambda_b57350f2640456a0859d250846f69caf>@@V<lambda_eed5e4f92b5b7d55fa22c48c484aaa54>@@@?$__crt_seh_guarded_call@X@@QAEX$$QAV<lambda_4fdada1b837b2abbf20876fac97688ad>@@AAV<lambda_b57350f2640456a0859d250846f69caf>@@$$QAV<lambda_eed5e4f92b5b7d55fa22c48c484aaa54>@@@Z 10037c61 f   libucrt:wsetlocale.obj
 0001:00036ca4       ??$?RV<lambda_6673f7c4c09a5d469d0c27ae364621ce>@@AAV<lambda_ebab98244f73a74f49db879bf13fa982>@@V<lambda_be20789b7a146653eab82509ec35b419>@@@?$__crt_seh_guarded_call@X@@QAEX$$QAV<lambda_6673f7c4c09a5d469d0c27ae364621ce>@@AAV<lambda_ebab98244f73a74f49db879bf13fa982>@@$$QAV<lambda_be20789b7a146653eab82509ec35b419>@@@Z 10037ca4 f   libucrt:wsetlocale.obj
 0001:00036cec       ??$?RV<lambda_82aef432098b982f9ede325b418aa67a>@@AAV<lambda_862e9a3f04921db6ca1ce3faa2bf3edf>@@V<lambda_ffabc152e504b53d7492b9889b10c020>@@@?$__crt_seh_guarded_call@X@@QAEX$$QAV<lambda_82aef432098b982f9ede325b418aa67a>@@AAV<lambda_862e9a3f04921db6ca1ce3faa2bf3edf>@@$$QAV<lambda_ffabc152e504b53d7492b9889b10c020>@@@Z 10037cec f   libucrt:wsetlocale.obj
 0001:00036d36       ??$?RV<lambda_e5124f882df8998aaf41531e079ba474>@@AAV<lambda_3e16ef9562a7dcce91392c22ab16ea36>@@V<lambda_e25ca0880e6ef98be67edffd8c599615>@@@?$__crt_seh_guarded_call@X@@QAEX$$QAV<lambda_e5124f882df8998aaf41531e079ba474>@@AAV<lambda_3e16ef9562a7dcce91392c22ab16ea36>@@$$QAV<lambda_e25ca0880e6ef98be67edffd8c599615>@@@Z 10037d36 f   libucrt:wsetlocale.obj
 0001:00036d9a       ??$__acrt_lock_and_call@V<lambda_3e16ef9562a7dcce91392c22ab16ea36>@@@@YAXW4__acrt_lock_id@@$$QAV<lambda_3e16ef9562a7dcce91392c22ab16ea36>@@@Z 10037d9a f   libucrt:wsetlocale.obj
 0001:00036dc2       ??$__acrt_lock_and_call@V<lambda_862e9a3f04921db6ca1ce3faa2bf3edf>@@@@YAXW4__acrt_lock_id@@$$QAV<lambda_862e9a3f04921db6ca1ce3faa2bf3edf>@@@Z 10037dc2 f   libucrt:wsetlocale.obj
 0001:00036dea       ??$__acrt_lock_and_call@V<lambda_b57350f2640456a0859d250846f69caf>@@@@YAXW4__acrt_lock_id@@$$QAV<lambda_b57350f2640456a0859d250846f69caf>@@@Z 10037dea f   libucrt:wsetlocale.obj
 0001:00036e12       ??$__acrt_lock_and_call@V<lambda_ebab98244f73a74f49db879bf13fa982>@@@@YAXW4__acrt_lock_id@@$$QAV<lambda_ebab98244f73a74f49db879bf13fa982>@@@Z 10037e12 f   libucrt:wsetlocale.obj
 0001:00036e3a       ??$__crt_call_and_cleanup@V<lambda_2a444430fde8c29194d880d93eed5e8f>@@V<lambda_8dff2cf36a5417162780cd64fa2883ef>@@@@YAX$$QAV<lambda_2a444430fde8c29194d880d93eed5e8f>@@$$QAV<lambda_8dff2cf36a5417162780cd64fa2883ef>@@@Z 10037e3a f   libucrt:wsetlocale.obj
 0001:00036e57       ??$uninitialize@V<lambda_88ce03f932007f29bf8b8056cbaba4f3>@@@?$dual_state_global@PAU__crt_locale_data@@@__crt_state_management@@QAEX$$QAV<lambda_88ce03f932007f29bf8b8056cbaba4f3>@@@Z 10037e57 f   libucrt:wsetlocale.obj
 0001:00036e86       ??0<lambda_2a444430fde8c29194d880d93eed5e8f>@@QAE@AAPAU__crt_locale_data@@ABQAU__acrt_ptd@@AAPA_WAAHAAPB_W@Z 10037e86 f   libucrt:wsetlocale.obj
 0001:00036eae       ??0<lambda_4fdada1b837b2abbf20876fac97688ad>@@QAE@ABW4__acrt_lock_id@@@Z 10037eae f   libucrt:wsetlocale.obj
 0001:00036ec0       ??0<lambda_6673f7c4c09a5d469d0c27ae364621ce>@@QAE@ABW4__acrt_lock_id@@@Z 10037ec0 f   libucrt:wsetlocale.obj
 0001:00036ed2       ??0<lambda_82aef432098b982f9ede325b418aa67a>@@QAE@ABW4__acrt_lock_id@@@Z 10037ed2 f   libucrt:wsetlocale.obj
 0001:00036ee4       ??0<lambda_862e9a3f04921db6ca1ce3faa2bf3edf>@@QAE@AAV?$__crt_unique_heap_ptr@U__crt_locale_pointers@@U__crt_internal_free_policy@@@@@Z 10037ee4 f   libucrt:wsetlocale.obj
 0001:00036ef4       ??0<lambda_8dff2cf36a5417162780cd64fa2883ef>@@QAE@ABQAU__acrt_ptd@@@Z 10037ef4 f   libucrt:wsetlocale.obj
 0001:00036f04       ??0<lambda_b57350f2640456a0859d250846f69caf>@@QAE@AAPAU__crt_locale_data@@ABQAU__acrt_ptd@@AAPA_WAAHAAPB_W@Z 10037f04 f   libucrt:wsetlocale.obj
 0001:00036f2c       ??0<lambda_be20789b7a146653eab82509ec35b419>@@QAE@ABW4__acrt_lock_id@@@Z 10037f2c f   libucrt:wsetlocale.obj
 0001:00036f3e       ??0<lambda_e25ca0880e6ef98be67edffd8c599615>@@QAE@ABW4__acrt_lock_id@@@Z 10037f3e f   libucrt:wsetlocale.obj
 0001:00036f50       ??0<lambda_e5124f882df8998aaf41531e079ba474>@@QAE@ABW4__acrt_lock_id@@@Z 10037f50 f   libucrt:wsetlocale.obj
 0001:00036f62       ??0<lambda_ebab98244f73a74f49db879bf13fa982>@@QAE@AAV?$__crt_unique_heap_ptr@U__crt_locale_pointers@@U__crt_internal_free_policy@@@@@Z 10037f62 f   libucrt:wsetlocale.obj
 0001:00036f72       ??0<lambda_eed5e4f92b5b7d55fa22c48c484aaa54>@@QAE@ABW4__acrt_lock_id@@@Z 10037f72 f   libucrt:wsetlocale.obj
 0001:00036f84       ??0<lambda_ffabc152e504b53d7492b9889b10c020>@@QAE@ABW4__acrt_lock_id@@@Z 10037f84 f   libucrt:wsetlocale.obj
 0001:00037011       ??R<lambda_135d2772fca65dc1248eeaa1b56e886a>@@QBEXXZ 10038011 f   libucrt:wsetlocale.obj
 0001:00037012       ??R<lambda_2a444430fde8c29194d880d93eed5e8f>@@QBE@XZ 10038012 f   libucrt:wsetlocale.obj
 0001:0003707e       ??R<lambda_3e16ef9562a7dcce91392c22ab16ea36>@@QBE@XZ 1003807e f   libucrt:wsetlocale.obj
 0001:0003709e       ??R<lambda_4fdada1b837b2abbf20876fac97688ad>@@QBEXXZ 1003809e f   libucrt:wsetlocale.obj
 0001:000370a7       ??R<lambda_6673f7c4c09a5d469d0c27ae364621ce>@@QBEXXZ 100380a7 f   libucrt:wsetlocale.obj
 0001:000370b0       ??R<lambda_82aef432098b982f9ede325b418aa67a>@@QBEXXZ 100380b0 f   libucrt:wsetlocale.obj
 0001:000370b9       ??R<lambda_862e9a3f04921db6ca1ce3faa2bf3edf>@@QBEXXZ 100380b9 f   libucrt:wsetlocale.obj
 0001:000370c6       ??R<lambda_88ce03f932007f29bf8b8056cbaba4f3>@@QBEXAAPAU__crt_locale_data@@@Z 100380c6 f   libucrt:wsetlocale.obj
 0001:000370e8       ??R<lambda_8dff2cf36a5417162780cd64fa2883ef>@@QBEXXZ 100380e8 f   libucrt:wsetlocale.obj
 0001:000370f4       ??R<lambda_b57350f2640456a0859d250846f69caf>@@QBEXXZ 100380f4 f   libucrt:wsetlocale.obj
 0001:000371f2       ??R<lambda_be20789b7a146653eab82509ec35b419>@@QBEXXZ 100381f2 f   libucrt:wsetlocale.obj
 0001:000371fb       ??R<lambda_e25ca0880e6ef98be67edffd8c599615>@@QBEXXZ 100381fb f   libucrt:wsetlocale.obj
 0001:00037204       ??R<lambda_e5124f882df8998aaf41531e079ba474>@@QBEXXZ 10038204 f   libucrt:wsetlocale.obj
 0001:0003720d       ??R<lambda_ebab98244f73a74f49db879bf13fa982>@@QBEXXZ 1003820d f   libucrt:wsetlocale.obj
 0001:00037218       ??R<lambda_eed5e4f92b5b7d55fa22c48c484aaa54>@@QBEXXZ 10038218 f   libucrt:wsetlocale.obj
 0001:00037221       ??R<lambda_ffabc152e504b53d7492b9889b10c020>@@QBEXXZ 10038221 f   libucrt:wsetlocale.obj
 0001:00037549       __copytlocinfo_nolock      10038549 f   libucrt:wsetlocale.obj
 0001:00037cdf       __wsetlocale_get_all       10038cdf f   libucrt:wsetlocale.obj
 0001:00037e7c       __wsetlocale_nolock        10038e7c f   libucrt:wsetlocale.obj
 0001:00038168       __wsetlocale_set_cat       10039168 f   libucrt:wsetlocale.obj
 0001:00038532       _sync_legacy_variables_lk  10039532 f   libucrt:wsetlocale.obj
 0001:000385db       ?filter_wcstomb_flags@@YAKIK@Z 100395db f   libucrt:widechartomultibyte.obj
 0001:000387ed       ?_wcrtomb_s_l@@YAHQAHQADI_WQAU_Mbstatet@@QAU__crt_locale_pointers@@@Z 100397ed f   libucrt:wcrtomb.obj
 0001:00038898       _internal_wcsrtombs        10039898 f   libucrt:wcrtomb.obj
 0001:00038a28       _memcpy_s                  10039a28 f   libucrt:wcrtomb.obj
 0001:00038c54       ?fast_check@@YAHHH@Z       10039c54 f   libucrt:_ctype.obj
 0001:00039209       ??$common_tox_l@$1?internal_islower_l@@YA_NHQAU__crt_locale_pointers@@@Z$1?internal_map_upper@@YAHH0@Z@@YAHHKQAU__crt_locale_pointers@@@Z 1003a209 f   libucrt:tolower_toupper.obj
 0001:00039353       ??$common_tox_l@$1?internal_isupper_l@@YA_NHQAU__crt_locale_pointers@@@Z$1?internal_map_lower@@YAHH0@Z@@YAHHKQAU__crt_locale_pointers@@@Z 1003a353 f   libucrt:tolower_toupper.obj
 0001:0003949d       ?internal_islower_l@@YA_NHQAU__crt_locale_pointers@@@Z 1003a49d f   libucrt:tolower_toupper.obj
 0001:000394b9       ?internal_isupper_l@@YA_NHQAU__crt_locale_pointers@@@Z 1003a4b9 f   libucrt:tolower_toupper.obj
 0001:000394d5       ?internal_map_lower@@YAHHQAU__crt_locale_pointers@@@Z 1003a4d5 f   libucrt:tolower_toupper.obj
 0001:000394ee       ?internal_map_upper@@YAHHQAU__crt_locale_pointers@@@Z 1003a4ee f   libucrt:tolower_toupper.obj
 0001:0003a008       ??$common_strnlen@$00G@@YAIQBGI@Z 1003b008 f   libucrt:strnlen.obj
 0001:0003a13e       ??$common_strnlen@$0A@E@@YAIQBEI@Z 1003b13e f   libucrt:strnlen.obj
 0001:0003a25c       ??$common_strnlen@$0A@G@@YAIQBGI@Z 1003b25c f   libucrt:strnlen.obj
 0001:0003a405       ??$common_strnlen_c@$00G@@YAIQBGI@Z 1003b405 f   libucrt:strnlen.obj
 0001:0003a41f       ??$common_strnlen_c@$0A@E@@YAIQBEI@Z 1003b41f f   libucrt:strnlen.obj
 0001:0003a440       ??$common_strnlen_c@$0A@G@@YAIQBGI@Z 1003b440 f   libucrt:strnlen.obj
 0001:0003a467       ??$common_strnlen_simd@$00$00G@@YAIQBGI@Z 1003b467 f   libucrt:strnlen.obj
 0001:0003a4f3       ??$common_strnlen_simd@$00$0A@G@@YAIQBGI@Z 1003b4f3 f   libucrt:strnlen.obj
 0001:0003a57e       ??$common_strnlen_simd@$0A@$00E@@YAIQBEI@Z 1003b57e f   libucrt:strnlen.obj
 0001:0003a5f8       ??$common_strnlen_simd@$0A@$00G@@YAIQBGI@Z 1003b5f8 f   libucrt:strnlen.obj
 0001:0003a6ba       ??$common_strnlen_simd@$0A@$0A@E@@YAIQBEI@Z 1003b6ba f   libucrt:strnlen.obj
 0001:0003a733       ??$common_strnlen_simd@$0A@$0A@G@@YAIQBGI@Z 1003b733 f   libucrt:strnlen.obj
 0001:0003a7f4       ??$last_reached@$00@@YA_NQBX0@Z 1003b7f4 f   libucrt:strnlen.obj
 0001:0003a7f7       ??$last_reached@$0A@@@YA_NQBX0@Z 1003b7f7 f   libucrt:strnlen.obj
 0001:0003aca8       ?fp_format_a@@YAHQBNPADIQADIH_NIQAU__crt_locale_pointers@@@Z 1003bca8 f   libucrt:cvt.obj
 0001:0003afc2       ?fp_format_e@@YAHQBNQADI1IH_NIQAU__crt_locale_pointers@@@Z 1003bfc2 f   libucrt:cvt.obj
 0001:0003b066       ?fp_format_e_internal@@YAHQADIH_NIQAU_strflt@@1QAU__crt_locale_pointers@@@Z 1003c066 f   libucrt:cvt.obj
 0001:0003b1b0       ?fp_format_f@@YAHQBNQADI1IHQAU__crt_locale_pointers@@@Z 1003c1b0 f   libucrt:cvt.obj
 0001:0003b23d       ?fp_format_f_internal@@YAHQADIHQAU_strflt@@_NQAU__crt_locale_pointers@@@Z 1003c23d f   libucrt:cvt.obj
 0001:0003b310       ?fp_format_g@@YAHQBNQADI1IH_NIQAU__crt_locale_pointers@@@Z 1003c310 f   libucrt:cvt.obj
 0001:0003b3d3       ?fp_format_nan_or_infinity@@YAHW4__acrt_fp_class@@_NPADI1@Z 1003c3d3 f   libucrt:cvt.obj
 0001:0003b4c8       ?shift_bytes@@YAXQADI0H@Z  1003c4c8 f   libucrt:cvt.obj
 0001:0003b644       ?fputwc_binary_nolock@@YAG_WV__crt_stdio_stream@@@Z 1003c644 f   libucrt:fputwc.obj
 0001:0003bdab       ?_mbstowcs_l_helper@@YAIPA_WPBDIPAU__crt_locale_pointers@@@Z 1003cdab f   libucrt:mbstowcs.obj
 0001:0003c087       ??$common_tcsncpy_s@D@@YAHQADIQBDI@Z 1003d087 f   libucrt:strncpy_s.obj
 0001:0003c16e       ??$?RV<lambda_f828341fbe69b7c0d4c527b01f22877f>@@AAV<lambda_9e0b6ab72a5b3ae37ad997d08b519f50>@@V<lambda_f01deac0a8d65d6e0411edf7e0af5775>@@@?$__crt_seh_guarded_call@G@@QAEG$$QAV<lambda_f828341fbe69b7c0d4c527b01f22877f>@@AAV<lambda_9e0b6ab72a5b3ae37ad997d08b519f50>@@$$QAV<lambda_f01deac0a8d65d6e0411edf7e0af5775>@@@Z 1003d16e f   libucrt:putwch.obj
 0001:0003c1cc       ??$__acrt_lock_and_call@V<lambda_9e0b6ab72a5b3ae37ad997d08b519f50>@@@@YAGW4__acrt_lock_id@@$$QAV<lambda_9e0b6ab72a5b3ae37ad997d08b519f50>@@@Z 1003d1cc f   libucrt:putwch.obj
 0001:0003c1f4       ??0<lambda_9e0b6ab72a5b3ae37ad997d08b519f50>@@QAE@AB_W@Z 1003d1f4 f   libucrt:putwch.obj
 0001:0003c204       ??0<lambda_f01deac0a8d65d6e0411edf7e0af5775>@@QAE@ABW4__acrt_lock_id@@@Z 1003d204 f   libucrt:putwch.obj
 0001:0003c216       ??0<lambda_f828341fbe69b7c0d4c527b01f22877f>@@QAE@ABW4__acrt_lock_id@@@Z 1003d216 f   libucrt:putwch.obj
 0001:0003c228       ??R<lambda_9e0b6ab72a5b3ae37ad997d08b519f50>@@QBEGXZ 1003d228 f   libucrt:putwch.obj
 0001:0003c235       ??R<lambda_f01deac0a8d65d6e0411edf7e0af5775>@@QBEXXZ 1003d235 f   libucrt:putwch.obj
 0001:0003c23e       ??R<lambda_f828341fbe69b7c0d4c527b01f22877f>@@QBEXXZ 1003d23e f   libucrt:putwch.obj
 0001:0003c39e       ?find_or_allocate_unused_stream_nolock@@YA?AV__crt_stdio_stream@@XZ 1003d39e f   libucrt:stream.obj
 0001:0003c939       ??$common_openfile@D@@YAPAU_iobuf@@QBD0HV__crt_stdio_stream@@@Z 1003d939 f   libucrt:openfile.obj
 0001:0003c9be       ??$common_openfile@_W@@YAPAU_iobuf@@QB_W0HV__crt_stdio_stream@@@Z 1003d9be f   libucrt:openfile.obj
 0001:0003cd28       ??$?RV<lambda_2866be3712abc81a800a822484c830d8>@@AAV<lambda_39ca0ed439415581b5b15c265174cece>@@V<lambda_2b24c74d71094a6cd0cb82e44167d71b>@@@?$__crt_seh_guarded_call@X@@QAEX$$QAV<lambda_2866be3712abc81a800a822484c830d8>@@AAV<lambda_39ca0ed439415581b5b15c265174cece>@@$$QAV<lambda_2b24c74d71094a6cd0cb82e44167d71b>@@@Z 1003dd28 f   libucrt:fflush.obj
 0001:0003cda9       ??$?RV<lambda_2cc53f568c5a2bb6f192f930a45d44ea>@@AAV<lambda_ab61a845afdef5b7c387490eaf3616ee>@@V<lambda_c2ffc0b7726aa6be21d5f0026187e748>@@@?$__crt_seh_guarded_call@X@@QAEX$$QAV<lambda_2cc53f568c5a2bb6f192f930a45d44ea>@@AAV<lambda_ab61a845afdef5b7c387490eaf3616ee>@@$$QAV<lambda_c2ffc0b7726aa6be21d5f0026187e748>@@@Z 1003dda9 f   libucrt:fflush.obj
 0001:0003ce4b       ??$?RV<lambda_6d20deecaf4856105ebacbad442d1079>@@AAV<lambda_9a32fed5bf61b6b509b2d3f6003082a1>@@V<lambda_63ea2239ed67c638ddbae41947fdf875>@@@?$__crt_seh_guarded_call@H@@QAEH$$QAV<lambda_6d20deecaf4856105ebacbad442d1079>@@AAV<lambda_9a32fed5bf61b6b509b2d3f6003082a1>@@$$QAV<lambda_63ea2239ed67c638ddbae41947fdf875>@@@Z 1003de4b f   libucrt:fflush.obj
 0001:0003cea1       ??$__acrt_lock_and_call@V<lambda_ab61a845afdef5b7c387490eaf3616ee>@@@@YAXW4__acrt_lock_id@@$$QAV<lambda_ab61a845afdef5b7c387490eaf3616ee>@@@Z 1003dea1 f   libucrt:fflush.obj
 0001:0003cec9       ??$__acrt_lock_stream_and_call@V<lambda_39ca0ed439415581b5b15c265174cece>@@@@YAXQAU_iobuf@@$$QAV<lambda_39ca0ed439415581b5b15c265174cece>@@@Z 1003dec9 f   libucrt:fflush.obj
 0001:0003cef1       ??$__acrt_lock_stream_and_call@V<lambda_9a32fed5bf61b6b509b2d3f6003082a1>@@@@YAHQAU_iobuf@@$$QAV<lambda_9a32fed5bf61b6b509b2d3f6003082a1>@@@Z 1003def1 f   libucrt:fflush.obj
 0001:0003cf19       ??0<lambda_2866be3712abc81a800a822484c830d8>@@QAE@ABQAU_iobuf@@@Z 1003df19 f   libucrt:fflush.obj
 0001:0003cf2b       ??0<lambda_2b24c74d71094a6cd0cb82e44167d71b>@@QAE@ABQAU_iobuf@@@Z 1003df2b f   libucrt:fflush.obj
 0001:0003cf3d       ??0<lambda_2cc53f568c5a2bb6f192f930a45d44ea>@@QAE@ABW4__acrt_lock_id@@@Z 1003df3d f   libucrt:fflush.obj
 0001:0003cf4f       ??0<lambda_39ca0ed439415581b5b15c265174cece>@@QAE@ABV__crt_stdio_stream@@AAHAB_N1@Z 1003df4f f   libucrt:fflush.obj
 0001:0003cf71       ??0<lambda_63ea2239ed67c638ddbae41947fdf875>@@QAE@ABQAU_iobuf@@@Z 1003df71 f   libucrt:fflush.obj
 0001:0003cf83       ??0<lambda_6d20deecaf4856105ebacbad442d1079>@@QAE@ABQAU_iobuf@@@Z 1003df83 f   libucrt:fflush.obj
 0001:0003cf95       ??0<lambda_9a32fed5bf61b6b509b2d3f6003082a1>@@QAE@ABV__crt_stdio_stream@@@Z 1003df95 f   libucrt:fflush.obj
 0001:0003cfa5       ??0<lambda_ab61a845afdef5b7c387490eaf3616ee>@@QAE@AAHAB_N0@Z 1003dfa5 f   libucrt:fflush.obj
 0001:0003cfc1       ??0<lambda_c2ffc0b7726aa6be21d5f0026187e748>@@QAE@ABW4__acrt_lock_id@@@Z 1003dfc1 f   libucrt:fflush.obj
 0001:0003cfd3       ??R<lambda_2866be3712abc81a800a822484c830d8>@@QBEXXZ 1003dfd3 f   libucrt:fflush.obj
 0001:0003cfdc       ??R<lambda_2b24c74d71094a6cd0cb82e44167d71b>@@QBEXXZ 1003dfdc f   libucrt:fflush.obj
 0001:0003cfe5       ??R<lambda_2cc53f568c5a2bb6f192f930a45d44ea>@@QBEXXZ 1003dfe5 f   libucrt:fflush.obj
 0001:0003cfee       ??R<lambda_39ca0ed439415581b5b15c265174cece>@@QBEXXZ 1003dfee f   libucrt:fflush.obj
 0001:0003d038       ??R<lambda_63ea2239ed67c638ddbae41947fdf875>@@QBEXXZ 1003e038 f   libucrt:fflush.obj
 0001:0003d041       ??R<lambda_6d20deecaf4856105ebacbad442d1079>@@QBEXXZ 1003e041 f   libucrt:fflush.obj
 0001:0003d04a       ??R<lambda_9a32fed5bf61b6b509b2d3f6003082a1>@@QBEHXZ 1003e04a f   libucrt:fflush.obj
 0001:0003d055       ??R<lambda_ab61a845afdef5b7c387490eaf3616ee>@@QBE@XZ 1003e055 f   libucrt:fflush.obj
 0001:0003d0df       ??R<lambda_c2ffc0b7726aa6be21d5f0026187e748>@@QBEXXZ 1003e0df f   libucrt:fflush.obj
 0001:0003d0e8       ?common_flush_all@@YAH_N@Z 1003e0e8 f   libucrt:fflush.obj
 0001:0003d137       ?common_flush_all_should_try_to_flush_stream@@YA_NV__crt_stdio_stream@@QAH@Z 1003e137 f   libucrt:fflush.obj
 0001:0003d169       ?is_stream_allocated@@YA_NJ@Z 1003e169 f   libucrt:fflush.obj
 0001:0003d178       ?is_stream_flushable@@YA_NJ@Z 1003e178 f   libucrt:fflush.obj
 0001:0003d193       ?is_stream_flushable_or_commitable@@YA_NJ@Z 1003e193 f   libucrt:fflush.obj
 0001:0003d2bd       ??$common_flush_and_write_nolock@D@@YAHHV__crt_stdio_stream@@@Z 1003e2bd f   libucrt:_flsbuf.obj
 0001:0003d3ce       ??$common_flush_and_write_nolock@_W@@YAHHV__crt_stdio_stream@@@Z 1003e3ce f   libucrt:_flsbuf.obj
 0001:0003d4e3       ??$write_buffer_nolock@D@@YA_NDV__crt_stdio_stream@@@Z 1003e4e3 f   libucrt:_flsbuf.obj
 0001:0003d5ae       ??$write_buffer_nolock@_W@@YA_N_WV__crt_stdio_stream@@@Z 1003e5ae f   libucrt:_flsbuf.obj
 0001:0003d691       ??$common_refill_and_read_nolock@D@@YAHV__crt_stdio_stream@@@Z 1003e691 f   libucrt:_filbuf.obj
 0001:0003d814       ??$common_refill_and_read_nolock@_W@@YAHV__crt_stdio_stream@@@Z 1003e814 f   libucrt:_filbuf.obj
 0001:0003d9dc       ?get_context_nolock@@YA?AUfilwbuf_context@?A0x763516dc@@V__crt_stdio_stream@@_W@Z 1003e9dc f   libucrt:_filbuf.obj
 0001:0003da06       ?get_context_nolock@@YAHV__crt_stdio_stream@@D@Z 1003ea06 f   libucrt:_filbuf.obj
 0001:0003da09       ?is_buffer_valid_nolock@@YA_NV__crt_stdio_stream@@D@Z 1003ea09 f   libucrt:_filbuf.obj
 0001:0003da25       ?is_buffer_valid_nolock@@YA_NV__crt_stdio_stream@@_W@Z 1003ea25 f   libucrt:_filbuf.obj
 0001:0003da44       ?read_character_nolock@@YAEV__crt_stdio_stream@@HD@Z 1003ea44 f   libucrt:_filbuf.obj
 0001:0003da5b       ?read_character_nolock@@YA_WV__crt_stdio_stream@@Ufilwbuf_context@?A0x763516dc@@_W@Z 1003ea5b f   libucrt:_filbuf.obj
 0001:0003db69       ??$get_cached_win_policy@Ubegin_thread_init_policy_properties@?1??__acrt_get_begin_thread_init_policy@@YA?AW4begin_thread_init_policy@@XZ@@@YA?AW4begin_thread_init_policy@@W4AppPolicyThreadInitializationType@@@Z 1003eb69 f   libucrt:win_policies.obj
 0001:0003dbad       ??$get_cached_win_policy@Udeveloper_information_policy_properties@?1??__acrt_get_developer_information_policy@@YA?AW4developer_information_policy@@XZ@@@YA?AW4developer_information_policy@@W4AppPolicyShowDeveloperDiagnostic@@@Z 1003ebad f   libucrt:win_policies.obj
 0001:0003dbf1       ??$get_cached_win_policy@Uwindowing_model_policy_properties@?1??__acrt_get_windowing_model_policy@@YA?AW4windowing_model_policy@@XZ@@@YA?AW4windowing_model_policy@@W4AppPolicyWindowingModel@@@Z 1003ebf1 f   libucrt:win_policies.obj
 0001:0003dc4d       ??$get_win_policy@Uprocess_end_policy_properties@?1??__acrt_get_process_end_policy@@YA?AW4process_end_policy@@XZ@@@YA?AW4process_end_policy@@W4AppPolicyProcessTerminationMethod@@@Z 1003ec4d f   libucrt:win_policies.obj
 0001:0003dc7e       ?appmodel_get_policy@begin_thread_init_policy_properties@?1??__acrt_get_begin_thread_init_policy@@YA?AW4begin_thread_init_policy@@XZ@SAJPAW4AppPolicyThreadInitializationType@@@Z 1003ec7e f   libucrt:win_policies.obj
 0001:0003dc8d       ?appmodel_get_policy@developer_information_policy_properties@?1??__acrt_get_developer_information_policy@@YA?AW4developer_information_policy@@XZ@SAJPAW4AppPolicyShowDeveloperDiagnostic@@@Z 1003ec8d f   libucrt:win_policies.obj
 0001:0003dc9c       ?appmodel_get_policy@process_end_policy_properties@?1??__acrt_get_process_end_policy@@YA?AW4process_end_policy@@XZ@SAJPAW4AppPolicyProcessTerminationMethod@@@Z 1003ec9c f   libucrt:win_policies.obj
 0001:0003dcab       ?appmodel_get_policy@windowing_model_policy_properties@?1??__acrt_get_windowing_model_policy@@YA?AW4windowing_model_policy@@XZ@SAJPAW4AppPolicyWindowingModel@@@Z 1003ecab f   libucrt:win_policies.obj
 0001:0003dcba       ?appmodel_policy_to_policy_type@begin_thread_init_policy_properties@?1??__acrt_get_begin_thread_init_policy@@YA?AW4begin_thread_init_policy@@XZ@SA?AW43@J@Z 1003ecba f   libucrt:win_policies.obj
 0001:0003dccb       ?appmodel_policy_to_policy_type@developer_information_policy_properties@?1??__acrt_get_developer_information_policy@@YA?AW4developer_information_policy@@XZ@SA?AW43@J@Z 1003eccb f   libucrt:win_policies.obj
 0001:0003dcdc       ?appmodel_policy_to_policy_type@process_end_policy_properties@?1??__acrt_get_process_end_policy@@YA?AW4process_end_policy@@XZ@SA?AW43@W4AppPolicyProcessTerminationMethod@@@Z 1003ecdc f   libucrt:win_policies.obj
 0001:0003dcec       ?appmodel_policy_to_policy_type@windowing_model_policy_properties@?1??__acrt_get_windowing_model_policy@@YA?AW4windowing_model_policy@@XZ@SA?AW43@J@Z 1003ecec f   libucrt:win_policies.obj
 0001:0003de2f       ?<lambda_invoker_cdecl>@<lambda_601ce2808d07e6dd980fd6da59ab4158>@@CAHPBX0@Z 1003ee2f f   libucrt:argv_wildcards.obj
 0001:0003de47       ?<lambda_invoker_cdecl>@<lambda_86056e3c024bff449830248dc1621ed2>@@CAHPBX0@Z 1003ee47 f   libucrt:argv_wildcards.obj
 0001:0003de5f       ??$common_expand_argv_wildcards@D@@YAHQAPADQAPAPAD@Z 1003ee5f f   libucrt:argv_wildcards.obj
 0001:0003e050       ??$common_expand_argv_wildcards@_W@@YAHQAPA_WQAPAPA_W@Z 1003f050 f   libucrt:argv_wildcards.obj
 0001:0003e27e       ??$copy_and_add_argument_to_buffer@D@@YAHQBD0IAAV?$argument_list@D@?A0x5f5c8891@@@Z 1003f27e f   libucrt:argv_wildcards.obj
 0001:0003e331       ??$copy_and_add_argument_to_buffer@_W@@YAHQB_W0IAAV?$argument_list@_W@?A0x5f5c8891@@@Z 1003f331 f   libucrt:argv_wildcards.obj
 0001:0003e3e7       ??$expand_argument_wildcards@D@@YAHQAD0AAV?$argument_list@D@?A0x5f5c8891@@@Z 1003f3e7 f   libucrt:argv_wildcards.obj
 0001:0003e567       ??$expand_argument_wildcards@_W@@YAHQA_W0AAV?$argument_list@_W@?A0x5f5c8891@@@Z 1003f567 f   libucrt:argv_wildcards.obj
 0001:0003e8bd       ??0?$argument_list@D@?A0x5f5c8891@@QAE@XZ 1003f8bd f   libucrt:argv_wildcards.obj
 0001:0003e8ca       ??0?$argument_list@_W@?A0x5f5c8891@@QAE@XZ 1003f8ca f   libucrt:argv_wildcards.obj
 0001:0003e8ee       ??1?$argument_list@D@?A0x5f5c8891@@QAE@XZ 1003f8ee f   libucrt:argv_wildcards.obj
 0001:0003e917       ??1?$argument_list@_W@?A0x5f5c8891@@QAE@XZ 1003f917 f   libucrt:argv_wildcards.obj
 0001:0003e940       ??B<lambda_601ce2808d07e6dd980fd6da59ab4158>@@QBEP6AHPBX0@ZXZ 1003f940 f   libucrt:argv_wildcards.obj
 0001:0003e946       ??B<lambda_86056e3c024bff449830248dc1621ed2>@@QBEP6AHPBX0@ZXZ 1003f946 f   libucrt:argv_wildcards.obj
 0001:0003e94c       ??R<lambda_594f614a8947934b886943aa86a6498d>@@QBE_ND@Z 1003f94c f   libucrt:argv_wildcards.obj
 0001:0003e96a       ??R<lambda_601ce2808d07e6dd980fd6da59ab4158>@@QBEHPBX0@Z 1003f96a f   libucrt:argv_wildcards.obj
 0001:0003e984       ??R<lambda_86056e3c024bff449830248dc1621ed2>@@QBEHPBX0@Z 1003f984 f   libucrt:argv_wildcards.obj
 0001:0003e99e       ??R<lambda_d734a73e0f649ebd9d9b0eca0b8ca86a>@@QBE_N_W@Z 1003f99e f   libucrt:argv_wildcards.obj
 0001:0003e9c2       ?append@?$argument_list@D@?A0x5f5c8891@@QAEHQAD@Z 1003f9c2 f   libucrt:argv_wildcards.obj
 0001:0003e9f7       ?append@?$argument_list@_W@?A0x5f5c8891@@QAEHQA_W@Z 1003f9f7 f   libucrt:argv_wildcards.obj
 0001:0003ea2c       ?begin@?$argument_list@D@?A0x5f5c8891@@QBEPAPADXZ 1003fa2c f   libucrt:argv_wildcards.obj
 0001:0003ea2f       ?begin@?$argument_list@_W@?A0x5f5c8891@@QBEPAPA_WXZ 1003fa2f f   libucrt:argv_wildcards.obj
 0001:0003ea5e       ?end@?$argument_list@D@?A0x5f5c8891@@QBEPAPADXZ 1003fa5e f   libucrt:argv_wildcards.obj
 0001:0003ea62       ?end@?$argument_list@_W@?A0x5f5c8891@@QBEPAPA_WXZ 1003fa62 f   libucrt:argv_wildcards.obj
 0001:0003ea66       ?expand_if_necessary@?$argument_list@D@?A0x5f5c8891@@AAEHXZ 1003fa66 f   libucrt:argv_wildcards.obj
 0001:0003eaed       ?expand_if_necessary@?$argument_list@_W@?A0x5f5c8891@@AAEHXZ 1003faed f   libucrt:argv_wildcards.obj
 0001:0003eb7b       ?previous_character@@YAPADQAD0@Z 1003fb7b f   libucrt:argv_wildcards.obj
 0001:0003eb86       ?previous_character@@YAPA_WPA_WQA_W@Z 1003fb86 f   libucrt:argv_wildcards.obj
 0001:0003eb93       ?size@?$argument_list@D@?A0x5f5c8891@@QBEIXZ 1003fb93 f   libucrt:argv_wildcards.obj
 0001:0003eb9c       ?size@?$argument_list@_W@?A0x5f5c8891@@QBEIXZ 1003fb9c f   libucrt:argv_wildcards.obj
 0001:0003ec37       ??$?RV<lambda_ceb1ee4838e85a9d631eb091e2fbe199>@@AAV<lambda_ae742caa10f662c28703da3d2ea5e57e>@@V<lambda_cd08b5d6af4937fe54fc07d0c9bf6b37>@@@?$__crt_seh_guarded_call@X@@QAEX$$QAV<lambda_ceb1ee4838e85a9d631eb091e2fbe199>@@AAV<lambda_ae742caa10f662c28703da3d2ea5e57e>@@$$QAV<lambda_cd08b5d6af4937fe54fc07d0c9bf6b37>@@@Z 1003fc37 f   libucrt:mbctype.obj
 0001:0003ec7a       ??$__acrt_lock_and_call@V<lambda_ae742caa10f662c28703da3d2ea5e57e>@@@@YAXW4__acrt_lock_id@@$$QAV<lambda_ae742caa10f662c28703da3d2ea5e57e>@@@Z 1003fc7a f   libucrt:mbctype.obj
 0001:0003ecc0       ??0<lambda_ae742caa10f662c28703da3d2ea5e57e>@@QAE@ABQAU__acrt_ptd@@ABQAPAU__crt_multibyte_data@@@Z 1003fcc0 f   libucrt:mbctype.obj
 0001:0003ecd6       ??0<lambda_cd08b5d6af4937fe54fc07d0c9bf6b37>@@QAE@ABW4__acrt_lock_id@@@Z 1003fcd6 f   libucrt:mbctype.obj
 0001:0003ece8       ??0<lambda_ceb1ee4838e85a9d631eb091e2fbe199>@@QAE@ABW4__acrt_lock_id@@@Z 1003fce8 f   libucrt:mbctype.obj
 0001:0003ecfa       ??R<lambda_ae742caa10f662c28703da3d2ea5e57e>@@QBEXXZ 1003fcfa f   libucrt:mbctype.obj
 0001:0003ed7d       ??R<lambda_cd08b5d6af4937fe54fc07d0c9bf6b37>@@QBEXXZ 1003fd7d f   libucrt:mbctype.obj
 0001:0003ed86       ??R<lambda_ceb1ee4838e85a9d631eb091e2fbe199>@@QBEXXZ 1003fd86 f   libucrt:mbctype.obj
 0001:0003ed8f       ?CPtoLocaleName@@YAPB_WH@Z 1003fd8f f   libucrt:mbctype.obj
 0001:0003edd3       ?getSystemCP@@YAHH@Z       1003fdd3 f   libucrt:mbctype.obj
 0001:0003ee6c       ?setSBCS@@YAXPAU__crt_multibyte_data@@@Z 1003fe6c f   libucrt:mbctype.obj
 0001:0003eed1       ?setSBUpLow@@YAXPAU__crt_multibyte_data@@@Z 1003fed1 f   libucrt:mbctype.obj
 0001:0003f089       ?setmbcp_internal@@YAHH_NQAU__acrt_ptd@@QAPAU__crt_multibyte_data@@@Z 10040089 f   libucrt:mbctype.obj
 0001:0003f1a4       ?update_thread_multibyte_data_internal@@YAPAU__crt_multibyte_data@@QAU__acrt_ptd@@QAPAU1@@Z 100401a4 f   libucrt:mbctype.obj
 0001:0003f4f4       _memcpy_s                  100404f4 f   libucrt:mbctype.obj
 0001:0003f575       ?x_ismbbtype_l@@YAHPAU__crt_locale_pointers@@IHH@Z 10040575 f   libucrt:ismbbyte.obj
 0001:0003f923       ??$common_tcscpy_s@_W@@YAHQA_WIQB_W@Z 10040923 f   libucrt:wcscpy_s.obj
 0001:0003f9e7       ??0?$__crt_unique_handle_t@Uenvironment_strings_traits@?A0x1bf47908@@@@QAE@QA_W@Z 100409e7 f   libucrt:get_environment_from_os.obj
 0001:0003f9f7       ??1?$__crt_unique_handle_t@Uenvironment_strings_traits@?A0x1bf47908@@@@QAE@XZ 100409f7 f   libucrt:get_environment_from_os.obj
 0001:0003fa0e       ??B?$__crt_unique_handle_t@Uenvironment_strings_traits@?A0x1bf47908@@@@QBE_NXZ 10040a0e f   libucrt:get_environment_from_os.obj
 0001:0003fa15       ?close@?$__crt_unique_handle_t@Uenvironment_strings_traits@?A0x1bf47908@@@@QAEXXZ 10040a15 f   libucrt:get_environment_from_os.obj
 0001:0003fa2c       ?close@environment_strings_traits@?A0x1bf47908@@SA_NPA_W@Z 10040a2c f   libucrt:get_environment_from_os.obj
 0001:0003fa3e       ?find_end_of_double_null_terminated_sequence@@YAPB_WQB_W@Z 10040a3e f   libucrt:get_environment_from_os.obj
 0001:0003fa75       ?get@?$__crt_unique_handle_t@Uenvironment_strings_traits@?A0x1bf47908@@@@QBEPA_WXZ 10040a75 f   libucrt:get_environment_from_os.obj
 0001:0003fa78       ?get_invalid_value@environment_strings_traits@?A0x1bf47908@@SAPA_WXZ 10040a78 f   libucrt:get_environment_from_os.obj
 0001:0003fa7b       ?is_valid@?$__crt_unique_handle_t@Uenvironment_strings_traits@?A0x1bf47908@@@@QBE_NXZ 10040a7b f   libucrt:get_environment_from_os.obj
 0001:0003fb58       ??$common_set_variable_in_environment_nolock@D@@YAHQADH@Z 10040b58 f   libucrt:setenv.obj
 0001:0003fd98       ??$common_set_variable_in_environment_nolock@_W@@YAHQA_WH@Z 10040d98 f   libucrt:setenv.obj
 0001:0003ffed       ??$copy_environment@D@@YAPAPADQAPAD@Z 10040fed f   libucrt:setenv.obj
 0001:0004009f       ??$copy_environment@_W@@YAPAPA_WQAPA_W@Z 1004109f f   libucrt:setenv.obj
 0001:0004015f       ??$ensure_current_environment_is_not_initial_environment_nolock@D@@YAXXZ 1004115f f   libucrt:setenv.obj
 0001:00040179       ??$ensure_current_environment_is_not_initial_environment_nolock@_W@@YAXXZ 10041179 f   libucrt:setenv.obj
 0001:00040193       ??$find_in_environment_nolock@D@@YAHQBDI@Z 10041193 f   libucrt:setenv.obj
 0001:000401e8       ??$find_in_environment_nolock@_W@@YAHQB_WI@Z 100411e8 f   libucrt:setenv.obj
 0001:0004039b       ?get_environment@@YAAAPAPADD@Z 1004139b f   libucrt:setenv.obj
 0001:000403a1       ?get_environment@@YAAAPAPA_W_W@Z 100413a1 f   libucrt:setenv.obj
 0001:000403a7       ?get_initial_environment@@YAAAPAPADD@Z 100413a7 f   libucrt:setenv.obj
 0001:000403ad       ?get_initial_environment@@YAAAPAPA_W_W@Z 100413ad f   libucrt:setenv.obj
 0001:000403b3       ?get_other_environment@@YAAAPAPAD_W@Z 100413b3 f   libucrt:setenv.obj
 0001:000403b9       ?get_other_environment@@YAAAPAPA_WD@Z 100413b9 f   libucrt:setenv.obj
 0001:00040707       ??$?RV<lambda_cbab9ec6f41b0180b23cc171c22676b0>@@AAV<lambda_44731a7d0e6d81c3e6aa82d741081786>@@V<lambda_4b292cb8dd18144e164572427af410ab>@@@?$__crt_seh_guarded_call@P6AXH@Z@@QAEP6AXH@Z$$QAV<lambda_cbab9ec6f41b0180b23cc171c22676b0>@@AAV<lambda_44731a7d0e6d81c3e6aa82d741081786>@@$$QAV<lambda_4b292cb8dd18144e164572427af410ab>@@@Z 10041707 f   libucrt:signal.obj
 0001:00040761       ??$__acrt_lock_and_call@V<lambda_44731a7d0e6d81c3e6aa82d741081786>@@@@YAP6AXH@ZW4__acrt_lock_id@@$$QAV<lambda_44731a7d0e6d81c3e6aa82d741081786>@@@Z 10041761 f   libucrt:signal.obj
 0001:000407be       ??0<lambda_4b292cb8dd18144e164572427af410ab>@@QAE@ABW4__acrt_lock_id@@@Z 100417be f   libucrt:signal.obj
 0001:000407d0       ??0<lambda_cbab9ec6f41b0180b23cc171c22676b0>@@QAE@ABW4__acrt_lock_id@@@Z 100417d0 f   libucrt:signal.obj
 0001:000407e2       ??R<lambda_44731a7d0e6d81c3e6aa82d741081786>@@QBEP6AXH@ZXZ 100417e2 f   libucrt:signal.obj
 0001:000407f5       ??R<lambda_4b292cb8dd18144e164572427af410ab>@@QBEXXZ 100417f5 f   libucrt:signal.obj
 0001:000407fe       ??R<lambda_cbab9ec6f41b0180b23cc171c22676b0>@@QBEXXZ 100417fe f   libucrt:signal.obj
 0001:00040807       ?ctrlevent_capture@@YGHK@Z 10041807 f   libucrt:signal.obj
 0001:000408b5       ?get_global_action_nolock@@YAPAP6AXH@ZH@Z 100418b5 f   libucrt:signal.obj
 0001:0004091d       ?is_console_signal@@YAHH@Z 1004191d f   libucrt:signal.obj
 0001:00040937       ?is_unsupported_signal@@YAHHQ6AXH@Z@Z 10041937 f   libucrt:signal.obj
 0001:00040951       ?siglookup@@YAPAU__crt_signal_action_t@@HQAU1@@Z 10041951 f   libucrt:signal.obj
 0001:00040979       ?signal_failed@@YAP6AXH@ZH@Z 10041979 f   libucrt:signal.obj
 0001:00041025       ?issue_debug_notification@@YA_NQB_W@Z 10042025 f   libucrt:report_runtime_error.obj
 0001:00041028       ?should_write_error_to_console@@YA_NXZ 10042028 f   libucrt:report_runtime_error.obj
 0001:00041048       ?write_string_to_console@@YAXQB_W@Z 10042048 f   libucrt:report_runtime_error.obj
 0001:000415be       ?GetTableIndexFromLcid@@YAHK@Z 100425be f   libucrt:lcidtoname_downlevel.obj
 0001:000415f5       ?GetTableIndexFromLocaleName@@YAHPB_W@Z 100425f5 f   libucrt:lcidtoname_downlevel.obj
 0001:000416a9       ?__wcsnicmp_ascii@@YAHPB_W0I@Z 100426a9 f   libucrt:lcidtoname_downlevel.obj
 0001:00042271       _fix_grouping              10043271 f   libucrt:initmon.obj
 0001:00042523       _fix_grouping              10043523 f   libucrt:initnum.obj
 0001:0004256d       ??$free_crt_array@D$01@@YAXAAY01PAD@Z 1004356d f   libucrt:inittime.obj
 0001:00042580       ??$free_crt_array@D$06@@YAXAAY06PAD@Z 10043580 f   libucrt:inittime.obj
 0001:00042593       ??$free_crt_array@D$0M@@@YAXAAY0M@PAD@Z 10043593 f   libucrt:inittime.obj
 0001:000425a6       ??$free_crt_array@_W$01@@YAXAAY01PA_W@Z 100435a6 f   libucrt:inittime.obj
 0001:000425b9       ??$free_crt_array@_W$06@@YAXAAY06PA_W@Z 100435b9 f   libucrt:inittime.obj
 0001:000425cc       ??$free_crt_array@_W$0M@@@YAXAAY0M@PA_W@Z 100435cc f   libucrt:inittime.obj
 0001:0004260e       ?free_crt_array_internal@@YAXQAPBXI@Z 1004360e f   libucrt:inittime.obj
 0001:00042649       ?get_or_create_lc_time@@YAPBU__crt_lc_time_data@@QAU__crt_locale_data@@@Z 10043649 f   libucrt:inittime.obj
 0001:000426aa       ?initialize_lc_time@@YA_NQAU__crt_lc_time_data@@QAU__crt_locale_data@@@Z 100436aa f   libucrt:inittime.obj
 0001:00042aa0       ??$common_tcscat_s@_W@@YAHQA_WIQB_W@Z 10043aa0 f   libucrt:wcscat_s.obj
 0001:00042b87       ??$common_tcsncpy_s@_W@@YAHQA_WIQB_WI@Z 10043b87 f   libucrt:wcsncpy_s.obj
 0001:00042fec       _GetLocaleNameFromDefault  10043fec f   libucrt:get_qualified_locale.obj
 0001:00043075       _GetLocaleNameFromLangCountry 10044075 f   libucrt:get_qualified_locale.obj
 0001:0004310f       _GetLocaleNameFromLanguage 1004410f f   libucrt:get_qualified_locale.obj
 0001:0004316a       _GetPrimaryLen             1004416a f   libucrt:get_qualified_locale.obj
 0001:0004319e       _LangCountryEnumProcEx@12  1004419e f   libucrt:get_qualified_locale.obj
 0001:0004348f       _LanguageEnumProcEx@12     1004448f f   libucrt:get_qualified_locale.obj
 0001:00043550       _ProcessCodePage           10044550 f   libucrt:get_qualified_locale.obj
 0001:00043648       _TestDefaultCountry        10044648 f   libucrt:get_qualified_locale.obj
 0001:00043693       _TestDefaultLanguage       10044693 f   libucrt:get_qualified_locale.obj
 0001:000436d9       _TranslateName             100446d9 f   libucrt:get_qualified_locale.obj
 0001:00043945       _CountryEnumProc@4         10044945 f   libucrt:getqloc_downlevel.obj
 0001:000439ee       _GetLcidFromCountry        100449ee f   libucrt:getqloc_downlevel.obj
 0001:00043a39       _GetLcidFromDefault        10044a39 f   libucrt:getqloc_downlevel.obj
 0001:00043a57       _GetLcidFromLangCountry    10044a57 f   libucrt:getqloc_downlevel.obj
 0001:00043af2       _GetLcidFromLanguage       10044af2 f   libucrt:getqloc_downlevel.obj
 0001:00043b53       _GetPrimaryLen             10044b53 f   libucrt:getqloc_downlevel.obj
 0001:00043b7f       _LangCountryEnumProc@4     10044b7f f   libucrt:getqloc_downlevel.obj
 0001:00043dd5       _LanguageEnumProc@4        10044dd5 f   libucrt:getqloc_downlevel.obj
 0001:00043eac       _LcidFromHexString         10044eac f   libucrt:getqloc_downlevel.obj
 0001:00043efd       _ProcessCodePage           10044efd f   libucrt:getqloc_downlevel.obj
 0001:00043fe0       _TestDefaultCountry        10044fe0 f   libucrt:getqloc_downlevel.obj
 0001:00044005       _TestDefaultLanguage       10045005 f   libucrt:getqloc_downlevel.obj
 0001:00044075       _TranslateName             10045075 f   libucrt:getqloc_downlevel.obj
 0001:00044397       ?combine_second_surrogate@?A0xc60ee810@@YA_U_SPAU_Mbstatet@@@Z 10045397 f   libucrt:c16rtomb.obj
 0001:000443ac       ?has_surrogate@?A0xc60ee810@@YA_NPAU_Mbstatet@@@Z 100453ac f   libucrt:c16rtomb.obj
 0001:000443bc       ?is_first_surrogate@?A0xc60ee810@@YA_N_S@Z 100453bc f   libucrt:c16rtomb.obj
 0001:000443d7       ?is_second_surrogate@?A0xc60ee810@@YA_N_S@Z 100453d7 f   libucrt:c16rtomb.obj
 0001:00044425       ?store_first_surrogate@?A0xc60ee810@@YAX_SPAU_Mbstatet@@@Z 10045425 f   libucrt:c16rtomb.obj
 0001:00044745       ?__acrt_LCMapStringA_stat@@YAHPAU__crt_locale_pointers@@PB_WKPBDHPADHHH@Z 10045745 f   libucrt:lcmapstringa.obj
 0001:0004497c       ??R<lambda_0f007d4f94c691a9a85cf1869a09f0c3>@@QBEIPBD@Z 1004597c f   libucrt:mbrtowc.obj
 0001:00044ae7       ?_mbrtowc_s_l@@YAHPAHPA_WPBDIPAU_Mbstatet@@PAU__crt_locale_pointers@@@Z 10045ae7 f   libucrt:mbrtowc.obj
 0001:00044cd6       ?_mbsrtowcs_helper@@YAIPA_WPAPBDIPAU_Mbstatet@@@Z 10045cd6 f   libucrt:mbrtowc.obj
 0001:00045051       ??$convert_to_fos_high_precision@N@@YAXNIQAHQADI@Z 10046051 f   libucrt:cfout.obj
 0001:000463f9       ??0scoped_fp_state_reset@?A0x71ca7cfb@@QAE@XZ 100473f9 f   libucrt:cfout.obj
 0001:00046425       ??1scoped_fp_state_reset@?A0x71ca7cfb@@QAE@XZ 10047425 f   libucrt:cfout.obj
 0001:00048905       _memcpy_s                  10049905 f   libucrt:cfout.obj
 0001:00048a26       ??$console_output_reopen_and_retry@V<lambda_61c1b8a38cedca4df5fdc542e6ccae6d>@@@@YAHABV<lambda_61c1b8a38cedca4df5fdc542e6ccae6d>@@@Z 10049a26 f   libucrt:initcon.obj
 0001:00048a7e       ??0<lambda_61c1b8a38cedca4df5fdc542e6ccae6d>@@QAE@ABQBXABKABQAK@Z 10049a7e f   libucrt:initcon.obj
 0001:00048aa0       ??R<lambda_61c1b8a38cedca4df5fdc542e6ccae6d>@@QBEHXZ 10049aa0 f   libucrt:initcon.obj
 0001:00048ab7       ?__dcrt_lowio_initialize_console_output@@YAXXZ 10049ab7 f   libucrt:initcon.obj
 0001:00048e39       ??$?RV<lambda_9e9de3de5fa147e2223d7db92bc10aa6>@@AAV<lambda_38ce7e780aa69e748d6df282ebc68efe>@@V<lambda_8ca6da459f0f6780f1cff60fdc3d00e5>@@@?$__crt_seh_guarded_call@H@@QAEH$$QAV<lambda_9e9de3de5fa147e2223d7db92bc10aa6>@@AAV<lambda_38ce7e780aa69e748d6df282ebc68efe>@@$$QAV<lambda_8ca6da459f0f6780f1cff60fdc3d00e5>@@@Z 10049e39 f   libucrt:commit.obj
 0001:00048ed1       ??$__acrt_lowio_lock_fh_and_call@V<lambda_38ce7e780aa69e748d6df282ebc68efe>@@@@YAHH$$QAV<lambda_38ce7e780aa69e748d6df282ebc68efe>@@@Z 10049ed1 f   libucrt:commit.obj
 0001:00048ef9       ??0<lambda_38ce7e780aa69e748d6df282ebc68efe>@@QAE@ABH@Z 10049ef9 f   libucrt:commit.obj
 0001:00048f09       ??0<lambda_8ca6da459f0f6780f1cff60fdc3d00e5>@@QAE@ABH@Z 10049f09 f   libucrt:commit.obj
 0001:00048f1b       ??0<lambda_9e9de3de5fa147e2223d7db92bc10aa6>@@QAE@ABH@Z 10049f1b f   libucrt:commit.obj
 0001:00048f2d       ??R<lambda_38ce7e780aa69e748d6df282ebc68efe>@@QBEHXZ 10049f2d f   libucrt:commit.obj
 0001:00048f82       ??R<lambda_8ca6da459f0f6780f1cff60fdc3d00e5>@@QBEXXZ 10049f82 f   libucrt:commit.obj
 0001:00048f8b       ??R<lambda_9e9de3de5fa147e2223d7db92bc10aa6>@@QBEXXZ 10049f8b f   libucrt:commit.obj
 0001:00049070       ?shortsort@@YAXPAD0IP6AHPBX1@Z@Z 1004a070 f   libucrt:qsort.obj
 0001:00049110       ?swap@@YAXPAD0I@Z          1004a110 f   libucrt:qsort.obj
 0001:000495a0       $$000000                   1004a5a0     libucrt:strpbrk.obj
 0001:00049a84       ?initialize_multibyte@@YAHXZ 1004aa84 f   libucrt:multibyte_initializer.obj
 0001:00049f10       ??$common_show_message_box@D@@YAHQBD0I@Z 1004af10 f   libucrt:crtmbox.obj
 0001:00049f8d       ??$common_show_message_box@_W@@YAHQB_W0I@Z 1004af8d f   libucrt:crtmbox.obj
 0001:0004a0c4       ?InternalGetLocaleInfoA@@YAHQAU__crt_locale_pointers@@QB_WKQADH@Z 1004b0c4 f   libucrt:getlocaleinfoa.obj
 0001:0004a433       ??$common_xtox@KD@@YAHKQADII_N@Z 1004b433 f   libucrt:xtoa.obj
 0001:0004a4e5       ??$common_xtox@K_W@@YAHKQA_WII_N@Z 1004b4e5 f   libucrt:xtoa.obj
 0001:0004a591       ??$common_xtox@_KD@@YAH_KQADII_N@Z 1004b591 f   libucrt:xtoa.obj
 0001:0004a659       ??$common_xtox@_K_W@@YAH_KQA_WII_N@Z 1004b659 f   libucrt:xtoa.obj
 0001:0004a73c       ??$common_xtox_s@KD@@YAHKQADII_N@Z 1004b73c f   libucrt:xtoa.obj
 0001:0004a7ac       ??$common_xtox_s@K_W@@YAHKQA_WII_N@Z 1004b7ac f   libucrt:xtoa.obj
 0001:0004a81e       ??$common_xtox_s@_KD@@YAH_KQADII_N@Z 1004b81e f   libucrt:xtoa.obj
 0001:0004a891       ??$common_xtox_s@_K_W@@YAH_KQA_WII_N@Z 1004b891 f   libucrt:xtoa.obj
 0001:0004b010       $$000000                   1004c010     libucrt:log10_impl.obj
 0001:0004b120       $$000000                   1004c120     libucrt:ceil_pentium4.obj
 0001:0004b240       $$000000                   1004c240     libucrt:_strnicm.obj
 0001:0004b306       ?InternalCompareStringA@@YAHPAU__crt_locale_pointers@@PB_WKPBDH2HH@Z 1004c306 f   libucrt:comparestringa.obj
 0001:0004b772       ??$to_abstract_status@W4__acrt_fenv_machine_sse_status@@@@YA?AW4__acrt_fenv_abstract_status@@W4__acrt_fenv_machine_sse_status@@@Z 1004c772 f   libucrt:_fenvutils.obj
 0001:0004b7c2       ??$to_abstract_status@W4__acrt_fenv_machine_x87_status@@@@YA?AW4__acrt_fenv_abstract_status@@W4__acrt_fenv_machine_x87_status@@@Z 1004c7c2 f   libucrt:_fenvutils.obj
 0001:0004b812       ??$translate_control_exception_mask@W4__acrt_fenv_abstract_control@@W4__acrt_fenv_machine_sse_control@@@@YA?AW4__acrt_fenv_abstract_control@@W4__acrt_fenv_machine_sse_control@@@Z 1004c812 f   libucrt:_fenvutils.obj
 0001:0004b863       ??$translate_control_exception_mask@W4__acrt_fenv_abstract_control@@W4__acrt_fenv_machine_x87_control@@@@YA?AW4__acrt_fenv_abstract_control@@W4__acrt_fenv_machine_x87_control@@@Z 1004c863 f   libucrt:_fenvutils.obj
 0001:0004b8b3       ??$translate_control_exception_mask@W4__acrt_fenv_machine_sse_control@@W4__acrt_fenv_abstract_control@@@@YA?AW4__acrt_fenv_machine_sse_control@@W4__acrt_fenv_abstract_control@@@Z 1004c8b3 f   libucrt:_fenvutils.obj
 0001:0004b93c       ??$translate_control_exception_mask@W4__acrt_fenv_machine_x87_control@@W4__acrt_fenv_abstract_control@@@@YA?AW4__acrt_fenv_machine_x87_control@@W4__acrt_fenv_abstract_control@@@Z 1004c93c f   libucrt:_fenvutils.obj
 0001:0004b9a5       ??$translate_control_infinity_control@W4__acrt_fenv_abstract_control@@W4__acrt_fenv_machine_x87_control@@@@YA?AW4__acrt_fenv_abstract_control@@W4__acrt_fenv_machine_x87_control@@@Z 1004c9a5 f   libucrt:_fenvutils.obj
 0001:0004b9b8       ??$translate_control_infinity_control@W4__acrt_fenv_machine_x87_control@@W4__acrt_fenv_abstract_control@@@@YA?AW4__acrt_fenv_machine_x87_control@@W4__acrt_fenv_abstract_control@@@Z 1004c9b8 f   libucrt:_fenvutils.obj
 0001:0004b9d1       ??$translate_control_precision_control@W4__acrt_fenv_abstract_control@@W4__acrt_fenv_machine_x87_control@@@@YA?AW4__acrt_fenv_abstract_control@@W4__acrt_fenv_machine_x87_control@@@Z 1004c9d1 f   libucrt:_fenvutils.obj
 0001:0004b9f9       ??$translate_control_precision_control@W4__acrt_fenv_machine_x87_control@@W4__acrt_fenv_abstract_control@@@@YA?AW4__acrt_fenv_machine_x87_control@@W4__acrt_fenv_abstract_control@@@Z 1004c9f9 f   libucrt:_fenvutils.obj
 0001:0004ba21       ??$translate_control_rounding_control@W4__acrt_fenv_abstract_control@@W4__acrt_fenv_machine_sse_control@@@@YA?AW4__acrt_fenv_abstract_control@@W4__acrt_fenv_machine_sse_control@@@Z 1004ca21 f   libucrt:_fenvutils.obj
 0001:0004ba5d       ??$translate_control_rounding_control@W4__acrt_fenv_abstract_control@@W4__acrt_fenv_machine_x87_control@@@@YA?AW4__acrt_fenv_abstract_control@@W4__acrt_fenv_machine_x87_control@@@Z 1004ca5d f   libucrt:_fenvutils.obj
 0001:0004ba99       ??$translate_control_rounding_control@W4__acrt_fenv_machine_sse_control@@W4__acrt_fenv_abstract_control@@@@YA?AW4__acrt_fenv_machine_sse_control@@W4__acrt_fenv_abstract_control@@@Z 1004ca99 f   libucrt:_fenvutils.obj
 0001:0004bad5       ??$translate_control_rounding_control@W4__acrt_fenv_machine_x87_control@@W4__acrt_fenv_abstract_control@@@@YA?AW4__acrt_fenv_machine_x87_control@@W4__acrt_fenv_abstract_control@@@Z 1004cad5 f   libucrt:_fenvutils.obj
 0001:0004bb11       ??$translate_status@W4__acrt_fenv_abstract_status@@W4__acrt_fenv_machine_sse_status@@@@YA?AW4__acrt_fenv_abstract_status@@W4__acrt_fenv_machine_sse_status@@@Z 1004cb11 f   libucrt:_fenvutils.obj
 0001:0004bb61       ??$translate_status@W4__acrt_fenv_abstract_status@@W4__acrt_fenv_machine_x87_status@@@@YA?AW4__acrt_fenv_abstract_status@@W4__acrt_fenv_machine_x87_status@@@Z 1004cb61 f   libucrt:_fenvutils.obj
 0001:0004bbb1       ??$translate_status@W4__acrt_fenv_machine_sse_status@@W4__acrt_fenv_abstract_status@@@@YA?AW4__acrt_fenv_machine_sse_status@@W4__acrt_fenv_abstract_status@@@Z 1004cbb1 f   libucrt:_fenvutils.obj
 0001:0004bc01       ??$translate_status@W4__acrt_fenv_machine_x87_status@@W4__acrt_fenv_abstract_status@@@@YA?AW4__acrt_fenv_machine_x87_status@@W4__acrt_fenv_abstract_status@@@Z 1004cc01 f   libucrt:_fenvutils.obj
 0001:0004bde9       ?get_machine_sse_control@@YA?AW4__acrt_fenv_machine_sse_control@@XZ 1004cde9 f   libucrt:_fenvutils.obj
 0001:0004be0c       ?get_machine_sse_status@@YA?AW4__acrt_fenv_machine_sse_status@@XZ 1004ce0c f   libucrt:_fenvutils.obj
 0001:0004be2d       ?get_machine_x87_control@@YA?AW4__acrt_fenv_machine_x87_control@@XZ 1004ce2d f   libucrt:_fenvutils.obj
 0001:0004be53       ?get_machine_x87_status@@YA?AW4__acrt_fenv_machine_x87_status@@XZ 1004ce53 f   libucrt:_fenvutils.obj
 0001:0004be6d       ?set_machine_sse_control@@YAXW4__acrt_fenv_machine_sse_control@@@Z 1004ce6d f   libucrt:_fenvutils.obj
 0001:0004be9e       ?set_machine_sse_status@@YAXW4__acrt_fenv_machine_sse_status@@@Z 1004ce9e f   libucrt:_fenvutils.obj
 0001:0004beca       ?set_machine_x87_control@@YAXW4__acrt_fenv_machine_x87_control@@@Z 1004ceca f   libucrt:_fenvutils.obj
 0001:0004befa       ?set_machine_x87_status@@YAXW4__acrt_fenv_machine_x87_status@@@Z 1004cefa f   libucrt:_fenvutils.obj
 0001:0004bf28       ?to_abstract_control@@YA?AW4__acrt_fenv_abstract_control@@W4__acrt_fenv_machine_sse_control@@@Z 1004cf28 f   libucrt:_fenvutils.obj
 0001:0004bfe4       ?to_abstract_control@@YA?AW4__acrt_fenv_abstract_control@@W4__acrt_fenv_machine_x87_control@@@Z 1004cfe4 f   libucrt:_fenvutils.obj
 0001:0004c0a1       ?to_machine_sse_control@@YA?AW4__acrt_fenv_machine_sse_control@@W4__acrt_fenv_abstract_control@@@Z 1004d0a1 f   libucrt:_fenvutils.obj
 0001:0004c135       ?to_machine_sse_status@@YA?AW4__acrt_fenv_machine_sse_status@@W4__acrt_fenv_abstract_status@@@Z 1004d135 f   libucrt:_fenvutils.obj
 0001:0004c18a       ?to_machine_x87_control@@YA?AW4__acrt_fenv_machine_x87_control@@W4__acrt_fenv_abstract_control@@@Z 1004d18a f   libucrt:_fenvutils.obj
 0001:0004c274       ?to_machine_x87_status@@YA?AW4__acrt_fenv_machine_x87_status@@W4__acrt_fenv_abstract_status@@@Z 1004d274 f   libucrt:_fenvutils.obj
 0001:0004c2c9       ?translate_control_denormal_control_from_sse@@YA?AW4__acrt_fenv_abstract_control@@W4__acrt_fenv_machine_sse_control@@@Z 1004d2c9 f   libucrt:_fenvutils.obj
 0001:0004c304       ?translate_control_denormal_control_to_sse@@YA?AW4__acrt_fenv_machine_sse_control@@W4__acrt_fenv_abstract_control@@@Z 1004d304 f   libucrt:_fenvutils.obj
 0001:0004c655       ___abstract_cw_sse2        1004d655 f   libucrt:ieee87.obj
 0001:0004c6ff       ___abstract_sw_sse2        1004d6ff f   libucrt:ieee87.obj
 0001:0004c742       ___clearfp_sse2            1004d742 f   libucrt:ieee87.obj
 0001:0004cabc       ___control87_sse2          1004dabc f   libucrt:ieee87.obj
 0001:0004cc4a       ___hw_cw_sse2              1004dc4a f   libucrt:ieee87.obj
 0001:0004ccf1       ___statusfp_sse2           1004dcf1 f   libucrt:ieee87.obj
 0001:0004cd32       __abstract_cw              1004dd32 f   libucrt:ieee87.obj
 0001:0004cdd1       __abstract_sw              1004ddd1 f   libucrt:ieee87.obj
 0001:0004d23f       __hw_cw                    1004e23f f   libucrt:ieee87.obj
 0001:0004d490       $$000000                   1004e490     libucrt:log10_pentium4.obj
 0001:0004d720       $$000000                   1004e720     libucrt:87tran.obj
 0001:0004d930       $$000000                   1004e930     libucrt:87disp.obj
 0001:0004dba0       $$000000                   1004eba0     libucrt:common.obj
 0001:0004dd30       $$000000                   1004ed30     libucrt:genexcep.obj
 0001:0004e75e       __get_fname                1004f75e f   libucrt:fpexcept.obj
 0001:0004f573       ?fperrraise_with@@YAXHK@Z  10050573 f   libucrt:_test.obj
 0001:0004fda0       $$000000                   10050da0     LIBCMT:ulldvrm.obj
 0001:0004fe70       $$000000                   10050e70     LIBCMT:chkstk.obj
 0001:0004fea0       $$000000                   10050ea0     LIBCMT:lldiv.obj
 0001:0004ff50       $$000000                   10050f50     LIBCMT:lldvrm.obj
 0001:00050030       $$000000                   10051030     LIBCMT:_sehprolg4gs_.obj
 0001:00050090       $$000000                   10051090     LIBCMT:llmul.obj
 0001:000500d0       $$000000                   100510d0     LIBCMT:ullshr.obj
 0001:000500f0       $$000000                   100510f0     LIBCMT:alloca16.obj
 0001:00050120       $$000000                   10051120     LIBCMT:llshl.obj
 0001:00050140       $$000000                   10051140     LIBCMT:_ftol2_.obj
 0001:0005021b       _cmpBYTE                   1005121b f   libvcruntime:_memcmp_.obj
 0001:00050240       _cmpDWORD                  10051240 f   libvcruntime:_memcmp_.obj
 0001:000502a5       _cmpResult                 100512a5 f   libvcruntime:_memcmp_.obj
 0001:000502c1       _cmpWORD                   100512c1 f   libvcruntime:_memcmp_.obj
 0001:00051234       $LN1285                    10052234     libvcruntime:_memcmp_.obj
 0001:000512b4       _unaligned_memcmp          100522b4 f   libvcruntime:_memcmp_.obj
 0001:00052014       $LN1243                    10053014     libvcruntime:_memcmp_.obj
 0001:000520a0       $$000000                   100530a0     libvcruntime:strrchr.obj
 0001:000521e0       $$000000                   100531e0     libvcruntime:strchr.obj
 0001:000523e0       $$000000                   100533e0     libvcruntime:memchr.obj
 0001:0005248d       __unwindfunclet$?getDecoratedName@UnDecorator@@CA?AVDName@@XZ$0 1005348d f   libvcruntime:undname.obj
 0001:00052495       __ehhandler$?getDecoratedName@UnDecorator@@CA?AVDName@@XZ 10053495 f   libvcruntime:undname.obj
 0001:000524b0       __ehhandler$?CallUnexpected@@YAXPBU_s_ESTypeList@@@Z 100534b0 f   libvcruntime:frame.obj
 0001:000524cb       __unwindfunclet$?_wcstombs_l_helper@@YAIPADPB_WIPAU__crt_locale_pointers@@@Z$0 100534cb f   libucrt:wcstombs.obj
 0001:000524d3       __ehhandler$?_wcstombs_l_helper@@YAIPADPB_WIPAU__crt_locale_pointers@@@Z 100534d3 f   libucrt:wcstombs.obj
 0002:00000194       _GS_ExceptionPointers      10054194     LIBCMT:gs_report.obj
 0002:000001a0       ?tokenTable@@3QBQBDB       100541a0     libvcruntime:undname.obj
 0002:000001e0       ?nameTable@@3QBQBDB        100541e0     libvcruntime:undname.obj
 0002:00000328       ?rttiTable@@3QBQBDB        10054328     libvcruntime:undname.obj
 0002:00000dbc       ?module_names@?A0x03f7da57@@3QBQB_WB 10054dbc     libvcruntime:winapi_downlevel.obj
 0002:00000e74       ?candidate_modules@?1??try_get_FlsAlloc@@YAP6GKP6GXPAX@Z@ZXZ@4QBW4module_id@?A0x03f7da57@@B 10054e74     libvcruntime:winapi_downlevel.obj
 0002:00000e88       ?candidate_modules@?1??try_get_FlsFree@@YAP6GHK@ZXZ@4QBW4module_id@?A0x03f7da57@@B 10054e88     libvcruntime:winapi_downlevel.obj
 0002:00000e98       ?candidate_modules@?1??try_get_FlsGetValue@@YAP6GPAXK@ZXZ@4QBW4module_id@?A0x03f7da57@@B 10054e98     libvcruntime:winapi_downlevel.obj
 0002:00000eac       ?candidate_modules@?1??try_get_FlsSetValue@@YAP6GHKPAX@ZXZ@4QBW4module_id@?A0x03f7da57@@B 10054eac     libvcruntime:winapi_downlevel.obj
 0002:00000ec0       ?candidate_modules@?1??try_get_InitializeCriticalSectionEx@@YAP6GHPAU_RTL_CRITICAL_SECTION@@KK@ZXZ@4QBW4module_id@?A0x03f7da57@@B 10054ec0     libvcruntime:winapi_downlevel.obj
 0002:00000f24       ?ExceptionTemplate@?1??_CxxThrowException@@9@8@4UEHExceptionRecord@@B 10054f24     libvcruntime:throw.obj
 0002:00001020       ?errtable@@3QBUerrentry@?A0x31fdb9ec@@B 10055020     libucrt:errno.obj
 0002:00001330       ___acrt_initializers       10055330     libucrt:initialization.obj
 0002:000013b8       ?module_names@?A0x391cf84c@@3QBQB_WB 100553b8     libucrt:winapi_thunks.obj
 0002:000018d8       ?candidate_modules@?1??try_get_AreFileApisANSI@@YAP6GHXZXZ@4QBW4module_id@?A0x391cf84c@@B 100558d8     libucrt:winapi_thunks.obj
 0002:000018ec       ?candidate_modules@?1??try_get_CompareStringEx@@YAP6GHPB_WK0H0HPAU_nlsversioninfo@@PAXJ@ZXZ@4QBW4module_id@?A0x391cf84c@@B 100558ec     libucrt:winapi_thunks.obj
 0002:00001904       ?candidate_modules@?1??try_get_EnumSystemLocalesEx@@YAP6GHP6GHPA_WKJ@ZKJPAX@ZXZ@4QBW4module_id@?A0x391cf84c@@B 10055904     libucrt:winapi_thunks.obj
 0002:00001920       ?candidate_modules@?1??try_get_FlsAlloc@@YAP6GKP6GXPAX@Z@ZXZ@4QBW4module_id@?A0x391cf84c@@B 10055920     libucrt:winapi_thunks.obj
 0002:00001934       ?candidate_modules@?1??try_get_FlsFree@@YAP6GHK@ZXZ@4QBW4module_id@?A0x391cf84c@@B 10055934     libucrt:winapi_thunks.obj
 0002:00001944       ?candidate_modules@?1??try_get_FlsGetValue@@YAP6GPAXK@ZXZ@4QBW4module_id@?A0x391cf84c@@B 10055944     libucrt:winapi_thunks.obj
 0002:00001958       ?candidate_modules@?1??try_get_FlsSetValue@@YAP6GHKPAX@ZXZ@4QBW4module_id@?A0x391cf84c@@B 10055958     libucrt:winapi_thunks.obj
 0002:0000196c       ?candidate_modules@?1??try_get_GetActiveWindow@@YAP6GPAUHWND__@@XZXZ@4QBW4module_id@?A0x391cf84c@@B 1005596c     libucrt:winapi_thunks.obj
 0002:00001984       ?candidate_modules@?1??try_get_GetDateFormatEx@@YAP6GHPB_WKPBU_SYSTEMTIME@@0PA_WH0@ZXZ@4QBW4module_id@?A0x391cf84c@@B 10055984     libucrt:winapi_thunks.obj
 0002:0000199c       ?candidate_modules@?1??try_get_GetEnabledXStateFeatures@@YAP6G_KXZXZ@4QBW4module_id@?A0x391cf84c@@B 1005599c     libucrt:winapi_thunks.obj
 0002:000019c0       ?candidate_modules@?1??try_get_GetLastActivePopup@@YAP6GPAUHWND__@@PAU2@@ZXZ@4QBW4module_id@?A0x391cf84c@@B 100559c0     libucrt:winapi_thunks.obj
 0002:000019dc       ?candidate_modules@?1??try_get_GetLocaleInfoEx@@YAP6GHPB_WKPA_WH@ZXZ@4QBW4module_id@?A0x391cf84c@@B 100559dc     libucrt:winapi_thunks.obj
 0002:000019f4       ?candidate_modules@?1??try_get_GetProcessWindowStation@@YAP6GPAUHWINSTA__@@XZXZ@4QBW4module_id@?A0x391cf84c@@B 100559f4     libucrt:winapi_thunks.obj
 0002:00001a14       ?candidate_modules@?1??try_get_GetSystemTimePreciseAsFileTime@@YAP6GXPAU_FILETIME@@@ZXZ@4QBW4module_id@?A0x391cf84c@@B 10055a14     libucrt:winapi_thunks.obj
 0002:00001a38       ?candidate_modules@?1??try_get_GetTimeFormatEx@@YAP6GHPB_WKPBU_SYSTEMTIME@@0PA_WH@ZXZ@4QBW4module_id@?A0x391cf84c@@B 10055a38     libucrt:winapi_thunks.obj
 0002:00001a50       ?candidate_modules@?1??try_get_GetUserDefaultLocaleName@@YAP6GHPA_WH@ZXZ@4QBW4module_id@?A0x391cf84c@@B 10055a50     libucrt:winapi_thunks.obj
 0002:00001a74       ?candidate_modules@?1??try_get_GetUserObjectInformationW@@YAP6GHPAXH0KPAK@ZXZ@4QBW4module_id@?A0x391cf84c@@B 10055a74     libucrt:winapi_thunks.obj
 0002:00001a98       ?candidate_modules@?1??try_get_GetXStateFeaturesMask@@YAP6GHPAU_CONTEXT@@PA_K@ZXZ@4QBW4module_id@?A0x391cf84c@@B 10055a98     libucrt:winapi_thunks.obj
 0002:00001ab8       ?candidate_modules@?1??try_get_InitializeCriticalSectionEx@@YAP6GHPAU_RTL_CRITICAL_SECTION@@KK@ZXZ@4QBW4module_id@?A0x391cf84c@@B 10055ab8     libucrt:winapi_thunks.obj
 0002:00001adc       ?candidate_modules@?1??try_get_IsValidLocaleName@@YAP6GHPB_W@ZXZ@4QBW4module_id@?A0x391cf84c@@B 10055adc     libucrt:winapi_thunks.obj
 0002:00001af8       ?candidate_modules@?1??try_get_LCMapStringEx@@YAP6GHPB_WK0HPA_WHPAU_nlsversioninfo@@PAXJ@ZXZ@4QBW4module_id@?A0x391cf84c@@B 10055af8     libucrt:winapi_thunks.obj
 0002:00001b10       ?candidate_modules@?1??try_get_LCIDToLocaleName@@YAP6GHKPA_WHK@ZXZ@4QBW4module_id@?A0x391cf84c@@B 10055b10     libucrt:winapi_thunks.obj
 0002:00001b2c       ?candidate_modules@?1??try_get_LocaleNameToLCID@@YAP6GKPB_WK@ZXZ@4QBW4module_id@?A0x391cf84c@@B 10055b2c     libucrt:winapi_thunks.obj
 0002:00001b48       ?candidate_modules@?1??try_get_LocateXStateFeature@@YAP6GPAXPAU_CONTEXT@@KPAK@ZXZ@4QBW4module_id@?A0x391cf84c@@B 10055b48     libucrt:winapi_thunks.obj
 0002:00001b64       ?candidate_modules@?1??try_get_MessageBoxA@@YAP6GHPAUHWND__@@PBD1I@ZXZ@4QBW4module_id@?A0x391cf84c@@B 10055b64     libucrt:winapi_thunks.obj
 0002:00001b78       ?candidate_modules@?1??try_get_MessageBoxW@@YAP6GHPAUHWND__@@PB_W1I@ZXZ@4QBW4module_id@?A0x391cf84c@@B 10055b78     libucrt:winapi_thunks.obj
 0002:00001b8c       ?candidate_modules@?1??try_get_RoInitialize@@YAP6GJW4RO_INIT_TYPE@@@ZXZ@4QBW4module_id@?A0x391cf84c@@B 10055b8c     libucrt:winapi_thunks.obj
 0002:00001ba0       ?candidate_modules@?1??try_get_RoUninitialize@@YAP6GXXZXZ@4QBW4module_id@?A0x391cf84c@@B 10055ba0     libucrt:winapi_thunks.obj
 0002:00001bb4       ?candidate_modules@?1??try_get_AppPolicyGetProcessTerminationMethod@@YAP6GJPAXPAW4AppPolicyProcessTerminationMethod@@@ZXZ@4QBW4module_id@?A0x391cf84c@@B 10055bb4     libucrt:winapi_thunks.obj
 0002:00001be0       ?candidate_modules@?1??try_get_AppPolicyGetThreadInitializationType@@YAP6GJPAXPAW4AppPolicyThreadInitializationType@@@ZXZ@4QBW4module_id@?A0x391cf84c@@B 10055be0     libucrt:winapi_thunks.obj
 0002:00001c0c       ?candidate_modules@?1??try_get_AppPolicyGetShowDeveloperDiagnostic@@YAP6GJPAXPAW4AppPolicyShowDeveloperDiagnostic@@@ZXZ@4QBW4module_id@?A0x391cf84c@@B 10055c0c     libucrt:winapi_thunks.obj
 0002:00001c34       ?candidate_modules@?1??try_get_AppPolicyGetWindowingModel@@YAP6GJPAXPAW4AppPolicyWindowingModel@@@ZXZ@4QBW4module_id@?A0x391cf84c@@B 10055c34     libucrt:winapi_thunks.obj
 0002:00001c54       ?candidate_modules@?1??try_get_SetThreadStackGuarantee@@YAP6GHPAK@ZXZ@4QBW4module_id@?A0x391cf84c@@B 10055c54     libucrt:winapi_thunks.obj
 0002:00001c74       ?candidate_modules@?1??try_get_SystemFunction036@@YAP6GEPAXK@ZXZ@4QBW4module_id@?A0x391cf84c@@B 10055c74     libucrt:winapi_thunks.obj
 0002:00001c90       __first_127char            10055c90     libucrt:wsetlocale.obj
 0002:00002f5c       ?_mb_locale_names@@3QBQB_WB 10056f5c     libucrt:mbctype.obj
 0002:00003060       ?LcidToLocaleNameTable@?A0x881e4c05@@3QBULcidToLocaleName@1@B 10057060     libucrt:lcidtoname_downlevel.obj
 0002:00004188       ?LocaleNameToIndexTable@?A0x881e4c05@@3QBULocaleNameIndex@1@B 10058188     libucrt:lcidtoname_downlevel.obj
 0002:00006890       LOG_name                   1005a890     libucrt:log10_impl.obj
 0002:000068a0       _One                       1005a8a0     libucrt:ceil_pentium4.obj
 0002:000068b0       _Bns                       1005a8b0     libucrt:ceil_pentium4.obj
 0002:000068c0       _Zero                      1005a8c0     libucrt:ceil_pentium4.obj
 0002:000068d0       _S                         1005a8d0     libucrt:ceil_pentium4.obj
 0002:000068e0       _NegZero                   1005a8e0     libucrt:ceil_pentium4.obj
 0002:000068e8       ?commonFlags@?1??_control87@@9@9 1005a8e8     libucrt:ieee87.obj
 0002:000068f0       emask                      1005a8f0     libucrt:log10_pentium4.obj
 0002:00006900       CC                         1005a900     libucrt:log10_pentium4.obj
 0002:00006910       Magic                      1005a910     libucrt:log10_pentium4.obj
 0002:00006920       hi_mask                    1005a920     libucrt:log10_pentium4.obj
 0002:00006930       LOG10_2                    1005a930     libucrt:log10_pentium4.obj
 0002:00006940       place_L                    1005a940     libucrt:log10_pentium4.obj
 0002:00006960       One                        1005a960     libucrt:log10_pentium4.obj
 0002:00006970       Zero                       1005a970     libucrt:log10_pentium4.obj
 0002:00006980       Two52                      1005a980     libucrt:log10_pentium4.obj
 0002:00006990       Infs                       1005a990     libucrt:log10_pentium4.obj
 0002:000069a0       NaN                        1005a9a0     libucrt:log10_pentium4.obj
 0002:000069b0       coeff                      1005a9b0     libucrt:log10_pentium4.obj
 0002:00006a0e       _log2max                   1005aa0e     libucrt:87tran.obj
 0002:00006a18       _smallarg                  1005aa18     libucrt:87tran.obj
 0002:00006a22       _half                      1005aa22     libucrt:87tran.obj
 0002:00006a6e       One                        1005aa6e     libucrt:87disp.obj
 0002:00006a76       Three                      1005aa76     libucrt:87disp.obj
 0002:00006a7e       XAMtoTagTab                1005aa7e     libucrt:87disp.obj
 0002:00006a90       One                        1005aa90     libucrt:common.obj
 0002:00006aa4       DblMax                     1005aaa4     libucrt:common.obj
 0002:00006aac       DblMin                     1005aaac     libucrt:common.obj
 0002:00006ab4       IeeeAdjO                   1005aab4     libucrt:common.obj
 0002:00006abc       IeeeAdjU                   1005aabc     libucrt:common.obj
 0002:00006ac4       _infinity                  1005aac4     libucrt:common.obj
 0002:00006acc       _zero                      1005aacc     libucrt:common.obj
 0002:00006ad4       _INF                       1005aad4     libucrt:libm_error.obj
 0002:00006ae4       _BIG                       1005aae4     libucrt:libm_error.obj
 0002:00006af4       _ZERO                      1005aaf4     libucrt:libm_error.obj
 0002:00006b04       _INF_32                    1005ab04     libucrt:libm_error.obj
 0002:00006b0c       _NAN_32                    1005ab0c     libucrt:libm_error.obj
 0002:00006b14       _ZERO_32                   1005ab14     libucrt:libm_error.obj
 0002:00006b1c       _libm_largef               1005ab1c     libucrt:libm_error.obj
 0002:00006b24       _libm_smallf               1005ab24     libucrt:libm_error.obj
 0002:00006b30       _libm_small                1005ab30     libucrt:libm_error.obj
 0002:00006b78       _newcw                     1005ab78     libucrt:ceil.obj
 0002:00006b7c       _over                      1005ab7c     libucrt:fpctrl.obj
 0002:00006b88       _under                     1005ab88     libucrt:fpctrl.obj
 0002:000073d0       ?_names@?1??_get_fname@@9@9 1005b3d0     libucrt:fpexcept.obj
 0002:00007580       ?mask@?P@??_d_int@@9@4QBGB 1005b580     libucrt:_test.obj
 0002:000075a0       ?sub@?P@??_d_int@@9@4QBIB  1005b5a0     libucrt:_test.obj
 0002:000075b0       ?mask@?P@??_fd_int@@9@4QBGB 1005b5b0     libucrt:_test.obj
 0002:000075d0       ?sub@?P@??_fd_int@@9@4QBIB 1005b5d0     libucrt:_test.obj
 0002:000075e8       _crc_table                 1005b5e8     crc32.obj
 0002:000095e8       ?my_version@?1??deflateInit2_@@9@9 1005d5e8     deflate.obj
 0002:000095f0       _configuration_table       1005d5f0     deflate.obj
 0002:00009668       ?lenfix@?1??fixedtables@@9@9 1005d668     infback.obj
 0002:00009e68       ?distfix@?1??fixedtables@@9@9 1005de68     infback.obj
 0002:00009ee8       ?order@?1??inflateBack@@9@9 1005dee8     infback.obj
 0002:00009f10       ?lenfix@?1??fixedtables@@9@9 1005df10     inflate.obj
 0002:0000a710       ?distfix@?1??fixedtables@@9@9 1005e710     inflate.obj
 0002:0000a790       ?order@?1??inflate@@9@9    1005e790     inflate.obj
 0002:0000a7b8       ?dext@?1??inflate_table@@9@9 1005e7b8     inftrees.obj
 0002:0000a7f8       ?lext@?1??inflate_table@@9@9 1005e7f8     inftrees.obj
 0002:0000a838       ?lbase@?1??inflate_table@@9@9 1005e838     inftrees.obj
 0002:0000a878       ?dbase@?1??inflate_table@@9@9 1005e878     inftrees.obj
 0002:0000abb8       _static_dtree              1005ebb8     trees.obj
 0002:0000ac30       _extra_blbits              1005ec30     trees.obj
 0002:0000ac80       _extra_lbits               1005ec80     trees.obj
 0002:0000acf8       _base_dist                 1005ecf8     trees.obj
 0002:0000ad70       _base_length               1005ed70     trees.obj
 0002:0000ade4       _static_l_desc             1005ede4     trees.obj
 0002:0000adf8       _static_bl_desc            1005edf8     trees.obj
 0002:0000ae10       _extra_dbits               1005ee10     trees.obj
 0002:0000ae88       _static_ltree              1005ee88     trees.obj
 0002:0000b308       _static_d_desc             1005f308     trees.obj
 0002:0000b31c       _bl_order                  1005f31c     trees.obj
 0002:0000be50       __sehtable$?dllmain_crt_process_attach@@YAHQAUHINSTANCE__@@QAX@Z 1005fe50     LIBCMT:dll_dllmain.obj
 0002:0000be70       __sehtable$?dllmain_crt_process_detach@@YAH_N@Z 1005fe70     LIBCMT:dll_dllmain.obj
 0002:0000be90       __sehtable$?dllmain_dispatch@@YAHQAUHINSTANCE__@@KQAX@Z 1005fe90     LIBCMT:dll_dllmain.obj
 0002:0000beb0       __sehtable$___scrt_is_nonwritable_in_current_image 1005feb0     LIBCMT:utility.obj
 0002:0000bed0       __sehtable$___unDNameEx    1005fed0     libvcruntime:undname.obj
 0002:0000beec       __unwindtable$?getDecoratedName@UnDecorator@@CA?AVDName@@XZ 1005feec     libvcruntime:undname.obj
 0002:0000bef4       __ehfuncinfo$?getDecoratedName@UnDecorator@@CA?AVDName@@XZ 1005fef4     libvcruntime:undname.obj
 0002:0000bf18       __sehtable$?FrameUnwindToState@__FrameHandler3@@SAXPAUEHRegistrationNode@@PAXPBU_s_FuncInfo@@H@Z 1005ff18     libvcruntime:frame.obj
 0002:0000bf40       __sehtable$?CallCatchBlock@@YAPAXPAUEHExceptionRecord@@PAUEHRegistrationNode@@PAU_CONTEXT@@PBU_s_FuncInfo@@PAXHK@Z 1005ff40     libvcruntime:frame.obj
 0002:0000bf68       __catchsym$?CallUnexpected@@YAXPBU_s_ESTypeList@@@Z$2 1005ff68     libvcruntime:frame.obj
 0002:0000bf78       __unwindtable$?CallUnexpected@@YAXPBU_s_ESTypeList@@@Z 1005ff78     libvcruntime:frame.obj
 0002:0000bf88       __tryblocktable$?CallUnexpected@@YAXPBU_s_ESTypeList@@@Z 1005ff88     libvcruntime:frame.obj
 0002:0000bf9c       __ehfuncinfo$?CallUnexpected@@YAXPBU_s_ESTypeList@@@Z 1005ff9c     libvcruntime:frame.obj
 0002:0000bfc0       __sehtable$??$BuildCatchObjectHelperInternal@$$CBU_s_HandlerType@@@@YAHPAUEHExceptionRecord@@PAXPBU_s_HandlerType@@PBU_s_CatchableType@@@Z 1005ffc0     libvcruntime:frame.obj
 0002:0000bfe0       __sehtable$??$BuildCatchObjectInternal@$$CBU_s_HandlerType@@@@YAXPAUEHExceptionRecord@@PAXPBU_s_HandlerType@@PBU_s_CatchableType@@@Z 1005ffe0     libvcruntime:frame.obj
 0002:0000c050       __sehtable$___DestructExceptionObject 10060050     libvcruntime:ehhelpers.obj
 0002:0000c070       __sehtable$??$common_lseek@J@@YAJHJH@Z 10060070     libucrt:lseek.obj
 0002:0000c090       __sehtable$??$common_lseek@_J@@YA_JH_JH@Z 10060090     libucrt:lseek.obj
 0002:0000c0b0       __sehtable$??$common_open@D@@YAHQBDHH@Z 100600b0     libucrt:open.obj
 0002:0000c0d0       __sehtable$??$common_open@_W@@YAHQB_WHH@Z 100600d0     libucrt:open.obj
 0002:0000c0f0       __sehtable$??$common_sopen_dispatch@D@@YAHQBDHHHQAHH@Z 100600f0     libucrt:open.obj
 0002:0000c110       __sehtable$??$common_sopen_dispatch@_W@@YAHQB_WHHHQAHH@Z 10060110     libucrt:open.obj
 0002:0000c12c       __unwindtable$?_wcstombs_l_helper@@YAIPADPB_WIPAU__crt_locale_pointers@@@Z 1006012c     libucrt:wcstombs.obj
 0002:0000c134       __ehfuncinfo$?_wcstombs_l_helper@@YAIPADPB_WIPAU__crt_locale_pointers@@@Z 10060134     libucrt:wcstombs.obj
 0002:0000c158       __sehtable$??$?RV<lambda_80d7abc6eae2375db70be92ccaaf9b57>@@AAV<lambda_df52180bf14694d51fdefd82613e8f07>@@V<lambda_4fa1155033dff2042363dba4e2dc3802>@@@?$__crt_seh_guarded_call@H@@QAEH$$QAV<lambda_80d7abc6eae2375db70be92ccaaf9b57>@@AAV<lambda_df52180bf14694d51fdefd82613e8f07>@@$$QAV<lambda_4fa1155033dff2042363dba4e2dc3802>@@@Z 10060158     libucrt:output.obj
 0002:0000c178       __sehtable$??$?RV<lambda_75d23329f2fb3d02b2e1cf5509bb1caf>@@AAV<lambda_c4f131f91cb4ec00a5b0a26aa161b8b4>@@V<lambda_114dc79c86b00c313cb0b6b3b001aaf8>@@@?$__crt_seh_guarded_call@H@@QAEH$$QAV<lambda_75d23329f2fb3d02b2e1cf5509bb1caf>@@AAV<lambda_c4f131f91cb4ec00a5b0a26aa161b8b4>@@$$QAV<lambda_114dc79c86b00c313cb0b6b3b001aaf8>@@@Z 10060178     libucrt:output.obj
 0002:0000c198       __sehtable$??$?RV<lambda_cc35d49d909def412005bd38ddc96b77>@@AAV<lambda_d6a382b8dd98a6801a8abd6c28bdff2d>@@V<lambda_148068cfb9786d9714740654406e93d5>@@@?$__crt_seh_guarded_call@H@@QAEH$$QAV<lambda_cc35d49d909def412005bd38ddc96b77>@@AAV<lambda_d6a382b8dd98a6801a8abd6c28bdff2d>@@$$QAV<lambda_148068cfb9786d9714740654406e93d5>@@@Z 10060198     libucrt:output.obj
 0002:0000c1b8       __sehtable$??$?RV<lambda_b7f50223258ab9fcc98080d45d02b1a4>@@AAV<lambda_42506531d319a600ce771deb5a236a10>@@V<lambda_31f843250ba6188c6e1f35d2bec6db0e>@@@?$__crt_seh_guarded_call@H@@QAEH$$QAV<lambda_b7f50223258ab9fcc98080d45d02b1a4>@@AAV<lambda_42506531d319a600ce771deb5a236a10>@@$$QAV<lambda_31f843250ba6188c6e1f35d2bec6db0e>@@@Z 100601b8     libucrt:output.obj
 0002:0000c1d8       __sehtable$??$?RV<lambda_3a2a6cca1b0f7007a3db339dcecd1562>@@AAV<lambda_e38011a3ba6e07c7dbcef4d549f26102>@@V<lambda_b2332a2b562101f3c3c34baab19e0511>@@@?$__crt_seh_guarded_call@H@@QAEH$$QAV<lambda_3a2a6cca1b0f7007a3db339dcecd1562>@@AAV<lambda_e38011a3ba6e07c7dbcef4d549f26102>@@$$QAV<lambda_b2332a2b562101f3c3c34baab19e0511>@@@Z 100601d8     libucrt:output.obj
 0002:0000c1f8       __sehtable$??$?RV<lambda_b4329732a1a72698597872ef534ad66d>@@AAV<lambda_96392db5b14a27f72535a2156da24b09>@@V<lambda_0f47277b42e3e84c3311fed419af0b3c>@@@?$__crt_seh_guarded_call@H@@QAEH$$QAV<lambda_b4329732a1a72698597872ef534ad66d>@@AAV<lambda_96392db5b14a27f72535a2156da24b09>@@$$QAV<lambda_0f47277b42e3e84c3311fed419af0b3c>@@@Z 100601f8     libucrt:output.obj
 0002:0000c218       __sehtable$__read          10060218     libucrt:read.obj
 0002:0000c238       __sehtable$??$?RV<lambda_218ce3db14220d0be481dae8ef3383b6>@@AAV<lambda_628dfdc04ba53c8bfc02c9951375f3f5>@@V<lambda_57dc472bd5c9d5f3b2cbca59b8a843ae>@@@?$__crt_seh_guarded_call@H@@QAEH$$QAV<lambda_218ce3db14220d0be481dae8ef3383b6>@@AAV<lambda_628dfdc04ba53c8bfc02c9951375f3f5>@@$$QAV<lambda_57dc472bd5c9d5f3b2cbca59b8a843ae>@@@Z 10060238     libucrt:close.obj
 0002:0000c258       __sehtable$__write         10060258     libucrt:write.obj
 0002:0000c278       __sehtable$??$common_ftell@J@@YAJV__crt_stdio_stream@@@Z 10060278     libucrt:ftell.obj
 0002:0000c298       __sehtable$??$common_ftell@_J@@YA_JV__crt_stdio_stream@@@Z 10060298     libucrt:ftell.obj
 0002:0000c2b8       __sehtable$??$common_fsopen@D@@YAPAU_iobuf@@QBD0H@Z 100602b8     libucrt:fopen.obj
 0002:0000c2d8       __sehtable$??$common_fsopen@_W@@YAPAU_iobuf@@QB_W0H@Z 100602d8     libucrt:fopen.obj
 0002:0000c2f8       __sehtable$_fclose         100602f8     libucrt:fclose.obj
 0002:0000c318       __sehtable$?common_fseek@@YAHV__crt_stdio_stream@@_JH@Z 10060318     libucrt:fseek.obj
 0002:0000c338       __sehtable$??$?RV<lambda_cd3bfd923e8d1349099e544c97b1bd8e>@@AAV<lambda_54dcfcba6f8e0c549fa430f4d53fb7dd>@@V<lambda_5e1d0fa2aa2b73b187bf8b7e1d30c7f8>@@@?$__crt_seh_guarded_call@I@@QAEI$$QAV<lambda_cd3bfd923e8d1349099e544c97b1bd8e>@@AAV<lambda_54dcfcba6f8e0c549fa430f4d53fb7dd>@@$$QAV<lambda_5e1d0fa2aa2b73b187bf8b7e1d30c7f8>@@@Z 10060338     libucrt:fwrite.obj
 0002:0000c358       __sehtable$_fread_s        10060358     libucrt:fread.obj
 0002:0000c378       __sehtable$??R<lambda_6e4b09c48022b2350581041d5f6b0c4c>@@QBE@XZ 10060378     libucrt:exit.obj
 0002:0000c398       __sehtable$??$?RV<lambda_03b1d95aef87969028cfba75ccab2455>@@AAV<lambda_6e4b09c48022b2350581041d5f6b0c4c>@@V<lambda_22bdf7517842c4b3e53723af5aa32b9e>@@@?$__crt_seh_guarded_call@X@@QAEX$$QAV<lambda_03b1d95aef87969028cfba75ccab2455>@@AAV<lambda_6e4b09c48022b2350581041d5f6b0c4c>@@$$QAV<lambda_22bdf7517842c4b3e53723af5aa32b9e>@@@Z 10060398     libucrt:exit.obj
 0002:0000c3b8       __sehtable$??$?RV<lambda_7ac4055421038abea736e08bd20712a4>@@AAV<lambda_a10e4b102d4a2c3aac6f4f48bbdf488f>@@V<lambda_1da61822885009acd1bf848af4f9644b>@@@?$__crt_seh_guarded_call@H@@QAEH$$QAV<lambda_7ac4055421038abea736e08bd20712a4>@@AAV<lambda_a10e4b102d4a2c3aac6f4f48bbdf488f>@@$$QAV<lambda_1da61822885009acd1bf848af4f9644b>@@@Z 100603b8     libucrt:onexit.obj
 0002:0000c3d8       __sehtable$??$?RV<lambda_69a2805e680e0e292e8ba93315fe43a8>@@AAV<lambda_f03950bc5685219e0bcd2087efbe011e>@@V<lambda_03fcd07e894ec930e3f35da366ca99d6>@@@?$__crt_seh_guarded_call@H@@QAEH$$QAV<lambda_69a2805e680e0e292e8ba93315fe43a8>@@AAV<lambda_f03950bc5685219e0bcd2087efbe011e>@@$$QAV<lambda_03fcd07e894ec930e3f35da366ca99d6>@@@Z 100603d8     libucrt:onexit.obj
 0002:0000c3f8       __sehtable$_terminate      100603f8     libucrt:terminate.obj
 0002:0000c418       __sehtable$__open_osfhandle 10060418     libucrt:osfinfo.obj
 0002:0000c438       __sehtable$__alloc_osfhnd  10060438     libucrt:osfinfo.obj
 0002:0000c458       __sehtable$___acrt_lowio_ensure_fh_exists 10060458     libucrt:osfinfo.obj
 0002:0000c478       __sehtable$___acrt_initialize_lowio 10060478     libucrt:ioinit.obj
 0002:0000c498       __sehtable$__setmode       10060498     libucrt:setmode.obj
 0002:0000c4b8       __sehtable$??$?RV<lambda_15ade71b0218206bbe3333a0c9b79046>@@AAV<lambda_da44e0f8b0f19ba52fefafb335991732>@@V<lambda_207f2d024fc103971653565357d6cd41>@@@?$__crt_seh_guarded_call@X@@QAEX$$QAV<lambda_15ade71b0218206bbe3333a0c9b79046>@@AAV<lambda_da44e0f8b0f19ba52fefafb335991732>@@$$QAV<lambda_207f2d024fc103971653565357d6cd41>@@@Z 100604b8     libucrt:per_thread_data.obj
 0002:0000c4d8       __sehtable$??$?RV<lambda_a7e850c220f1c8d1e6efeecdedd162c6>@@AAV<lambda_46720907175c18b6c9d2717bc0d2d362>@@V<lambda_9048902d66e8d99359bc9897bbb930a8>@@@?$__crt_seh_guarded_call@X@@QAEX$$QAV<lambda_a7e850c220f1c8d1e6efeecdedd162c6>@@AAV<lambda_46720907175c18b6c9d2717bc0d2d362>@@$$QAV<lambda_9048902d66e8d99359bc9897bbb930a8>@@@Z 100604d8     libucrt:per_thread_data.obj
 0002:0000c4f8       __sehtable$??$?RV<lambda_38edbb1296d33220d7e4dd0ed76b244a>@@AAV<lambda_5ce1d447e08cb34b2473517608e21441>@@V<lambda_fb385d3da700c9147fc39e65dd577a8c>@@@?$__crt_seh_guarded_call@X@@QAEX$$QAV<lambda_38edbb1296d33220d7e4dd0ed76b244a>@@AAV<lambda_5ce1d447e08cb34b2473517608e21441>@@$$QAV<lambda_fb385d3da700c9147fc39e65dd577a8c>@@@Z 100604f8     libucrt:per_thread_data.obj
 0002:0000c518       __sehtable$??$?RV<lambda_6affb1475c98b40b75cdec977db92e3c>@@AAV<lambda_b8d4b9c228a6ecc3f80208dbb4b4a104>@@V<lambda_608742c3c92a14382c1684fc64f96c88>@@@?$__crt_seh_guarded_call@X@@QAEX$$QAV<lambda_6affb1475c98b40b75cdec977db92e3c>@@AAV<lambda_b8d4b9c228a6ecc3f80208dbb4b4a104>@@$$QAV<lambda_608742c3c92a14382c1684fc64f96c88>@@@Z 10060518     libucrt:per_thread_data.obj
 0002:0000c538       __sehtable$??$?RV<lambda_93797fb4802c957ba6a7f08e1250235b>@@AAV<lambda_1f3ce6bd48e0aa2e72a71c02eee379d3>@@V<lambda_56cae30c9364c9b6c15aeaac05d0418e>@@@?$__crt_seh_guarded_call@H@@QAEH$$QAV<lambda_93797fb4802c957ba6a7f08e1250235b>@@AAV<lambda_1f3ce6bd48e0aa2e72a71c02eee379d3>@@$$QAV<lambda_56cae30c9364c9b6c15aeaac05d0418e>@@@Z 10060538     libucrt:winapi_thunks.obj
 0002:0000c558       __sehtable$??$?RV<lambda_3b12a17125e8c5b5e6e6f6c6050db0c1>@@AAV<lambda_522ac1b1e1a1180d6f374a882b81d1c8>@@V<lambda_e92b96cac182f562f30acc9fb7872857>@@@?$__crt_seh_guarded_call@H@@QAEH$$QAV<lambda_3b12a17125e8c5b5e6e6f6c6050db0c1>@@AAV<lambda_522ac1b1e1a1180d6f374a882b81d1c8>@@$$QAV<lambda_e92b96cac182f562f30acc9fb7872857>@@@Z 10060558     libucrt:chsize.obj
 0002:0000c578       __sehtable$__free_locale   10060578     libucrt:wsetlocale.obj
 0002:0000c5a0       __sehtable$??$?RV<lambda_e5124f882df8998aaf41531e079ba474>@@AAV<lambda_3e16ef9562a7dcce91392c22ab16ea36>@@V<lambda_e25ca0880e6ef98be67edffd8c599615>@@@?$__crt_seh_guarded_call@X@@QAEX$$QAV<lambda_e5124f882df8998aaf41531e079ba474>@@AAV<lambda_3e16ef9562a7dcce91392c22ab16ea36>@@$$QAV<lambda_e25ca0880e6ef98be67edffd8c599615>@@@Z 100605a0     libucrt:wsetlocale.obj
 0002:0000c5c0       __sehtable$??$?RV<lambda_82aef432098b982f9ede325b418aa67a>@@AAV<lambda_862e9a3f04921db6ca1ce3faa2bf3edf>@@V<lambda_ffabc152e504b53d7492b9889b10c020>@@@?$__crt_seh_guarded_call@X@@QAEX$$QAV<lambda_82aef432098b982f9ede325b418aa67a>@@AAV<lambda_862e9a3f04921db6ca1ce3faa2bf3edf>@@$$QAV<lambda_ffabc152e504b53d7492b9889b10c020>@@@Z 100605c0     libucrt:wsetlocale.obj
 0002:0000c5e0       __sehtable$??$?RV<lambda_6673f7c4c09a5d469d0c27ae364621ce>@@AAV<lambda_ebab98244f73a74f49db879bf13fa982>@@V<lambda_be20789b7a146653eab82509ec35b419>@@@?$__crt_seh_guarded_call@X@@QAEX$$QAV<lambda_6673f7c4c09a5d469d0c27ae364621ce>@@AAV<lambda_ebab98244f73a74f49db879bf13fa982>@@$$QAV<lambda_be20789b7a146653eab82509ec35b419>@@@Z 100605e0     libucrt:wsetlocale.obj
 0002:0000c600       __sehtable$??$?RV<lambda_4fdada1b837b2abbf20876fac97688ad>@@AAV<lambda_b57350f2640456a0859d250846f69caf>@@V<lambda_eed5e4f92b5b7d55fa22c48c484aaa54>@@@?$__crt_seh_guarded_call@X@@QAEX$$QAV<lambda_4fdada1b837b2abbf20876fac97688ad>@@AAV<lambda_b57350f2640456a0859d250846f69caf>@@$$QAV<lambda_eed5e4f92b5b7d55fa22c48c484aaa54>@@@Z 10060600     libucrt:wsetlocale.obj
 0002:0000c620       __sehtable$??$?RV<lambda_135d2772fca65dc1248eeaa1b56e886a>@@AAV<lambda_2a444430fde8c29194d880d93eed5e8f>@@AAV<lambda_8dff2cf36a5417162780cd64fa2883ef>@@@?$__crt_seh_guarded_call@X@@QAEX$$QAV<lambda_135d2772fca65dc1248eeaa1b56e886a>@@AAV<lambda_2a444430fde8c29194d880d93eed5e8f>@@AAV<lambda_8dff2cf36a5417162780cd64fa2883ef>@@@Z 10060620     libucrt:wsetlocale.obj
 0002:0000c640       __sehtable$_fputwc         10060640     libucrt:fputwc.obj
 0002:0000c660       __sehtable$_fputc          10060660     libucrt:fputc.obj
 0002:0000c680       __sehtable$??$?RV<lambda_f828341fbe69b7c0d4c527b01f22877f>@@AAV<lambda_9e0b6ab72a5b3ae37ad997d08b519f50>@@V<lambda_f01deac0a8d65d6e0411edf7e0af5775>@@@?$__crt_seh_guarded_call@G@@QAEG$$QAV<lambda_f828341fbe69b7c0d4c527b01f22877f>@@AAV<lambda_9e0b6ab72a5b3ae37ad997d08b519f50>@@$$QAV<lambda_f01deac0a8d65d6e0411edf7e0af5775>@@@Z 10060680     libucrt:putwch.obj
 0002:0000c6a0       __sehtable$?__acrt_stdio_allocate_stream@@YA?AV__crt_stdio_stream@@XZ 100606a0     libucrt:stream.obj
 0002:0000c6c0       __sehtable$??$?RV<lambda_2866be3712abc81a800a822484c830d8>@@AAV<lambda_39ca0ed439415581b5b15c265174cece>@@V<lambda_2b24c74d71094a6cd0cb82e44167d71b>@@@?$__crt_seh_guarded_call@X@@QAEX$$QAV<lambda_2866be3712abc81a800a822484c830d8>@@AAV<lambda_39ca0ed439415581b5b15c265174cece>@@$$QAV<lambda_2b24c74d71094a6cd0cb82e44167d71b>@@@Z 100606c0     libucrt:fflush.obj
 0002:0000c6e0       __sehtable$??$?RV<lambda_2cc53f568c5a2bb6f192f930a45d44ea>@@AAV<lambda_ab61a845afdef5b7c387490eaf3616ee>@@V<lambda_c2ffc0b7726aa6be21d5f0026187e748>@@@?$__crt_seh_guarded_call@X@@QAEX$$QAV<lambda_2cc53f568c5a2bb6f192f930a45d44ea>@@AAV<lambda_ab61a845afdef5b7c387490eaf3616ee>@@$$QAV<lambda_c2ffc0b7726aa6be21d5f0026187e748>@@@Z 100606e0     libucrt:fflush.obj
 0002:0000c700       __sehtable$??$?RV<lambda_6d20deecaf4856105ebacbad442d1079>@@AAV<lambda_9a32fed5bf61b6b509b2d3f6003082a1>@@V<lambda_63ea2239ed67c638ddbae41947fdf875>@@@?$__crt_seh_guarded_call@H@@QAEH$$QAV<lambda_6d20deecaf4856105ebacbad442d1079>@@AAV<lambda_9a32fed5bf61b6b509b2d3f6003082a1>@@$$QAV<lambda_63ea2239ed67c638ddbae41947fdf875>@@@Z 10060700     libucrt:fflush.obj
 0002:0000c720       __sehtable$?update_thread_multibyte_data_internal@@YAPAU__crt_multibyte_data@@QAU__acrt_ptd@@QAPAU1@@Z 10060720     libucrt:mbctype.obj
 0002:0000c740       __sehtable$??$?RV<lambda_ceb1ee4838e85a9d631eb091e2fbe199>@@AAV<lambda_ae742caa10f662c28703da3d2ea5e57e>@@V<lambda_cd08b5d6af4937fe54fc07d0c9bf6b37>@@@?$__crt_seh_guarded_call@X@@QAEX$$QAV<lambda_ceb1ee4838e85a9d631eb091e2fbe199>@@AAV<lambda_ae742caa10f662c28703da3d2ea5e57e>@@$$QAV<lambda_cd08b5d6af4937fe54fc07d0c9bf6b37>@@@Z 10060740     libucrt:mbctype.obj
 0002:0000c760       __sehtable$__query_new_handler 10060760     libucrt:new_handler.obj
 0002:0000c780       __sehtable$__set_new_handler 10060780     libucrt:new_handler.obj
 0002:0000c7a0       __sehtable$_signal         100607a0     libucrt:signal.obj
 0002:0000c7c0       __sehtable$_raise          100607c0     libucrt:signal.obj
 0002:0000c7e0       __sehtable$?ctrlevent_capture@@YGHK@Z 100607e0     libucrt:signal.obj
 0002:0000c800       __sehtable$??$?RV<lambda_cbab9ec6f41b0180b23cc171c22676b0>@@AAV<lambda_44731a7d0e6d81c3e6aa82d741081786>@@V<lambda_4b292cb8dd18144e164572427af410ab>@@@?$__crt_seh_guarded_call@P6AXH@Z@@QAEP6AXH@Z$$QAV<lambda_cbab9ec6f41b0180b23cc171c22676b0>@@AAV<lambda_44731a7d0e6d81c3e6aa82d741081786>@@$$QAV<lambda_4b292cb8dd18144e164572427af410ab>@@@Z 10060800     libucrt:signal.obj
 0002:0000c820       __sehtable$___acrt_update_thread_locale_data 10060820     libucrt:locale_refcounting.obj
 0002:0000c840       __sehtable$__fcloseall     10060840     libucrt:closeall.obj
 0002:0000c860       __sehtable$??$?RV<lambda_9e9de3de5fa147e2223d7db92bc10aa6>@@AAV<lambda_38ce7e780aa69e748d6df282ebc68efe>@@V<lambda_8ca6da459f0f6780f1cff60fdc3d00e5>@@@?$__crt_seh_guarded_call@H@@QAEH$$QAV<lambda_9e9de3de5fa147e2223d7db92bc10aa6>@@AAV<lambda_38ce7e780aa69e748d6df282ebc68efe>@@$$QAV<lambda_8ca6da459f0f6780f1cff60fdc3d00e5>@@@Z 10060860     libucrt:commit.obj
 0002:0000c880       __sehtable$___set_fpsr_sse2 10060880     libucrt:fpctrl.obj
 0002:0000c8a0       __sehtable$__IsNonwritableInCurrentImage 100608a0     LIBCMT:pesect.obj
 0002:0000c8c0       .edata                     100608c0     zlibwapi.exp
 0002:0000c8e8       rgpv                       100608e8     zlibwapi.exp
 0002:0000cba4       rgszName                   10060ba4     zlibwapi.exp
 0002:0000cda8       rgwOrd                     10060da8     zlibwapi.exp
 0002:0000ceaa       szName                     10060eaa     zlibwapi.exp
 0002:0000ceb7       $N00001                    10060eb7     zlibwapi.exp
 0002:0000cebf       $N00140                    10060ebf     zlibwapi.exp
 0002:0000cecf       $N00174                    10060ecf     zlibwapi.exp
 0002:0000ced9       $N00039                    10060ed9     zlibwapi.exp
 0002:0000cee3       $N00002                    10060ee3     zlibwapi.exp
 0002:0000ceec       $N00046                    10060eec     zlibwapi.exp
 0002:0000cefa       $N00003                    10060efa     zlibwapi.exp
 0002:0000cf00       $N00142                    10060f00     zlibwapi.exp
 0002:0000cf0e       $N00175                    10060f0e     zlibwapi.exp
 0002:0000cf16       $N00004                    10060f16     zlibwapi.exp
 0002:0000cf1e       $N00047                    10060f1e     zlibwapi.exp
 0002:0000cf2b       $N00005                    10060f2b     zlibwapi.exp
 0002:0000cf37       $N00006                    10060f37     zlibwapi.exp
 0002:0000cf42       $N00173                    10060f42     zlibwapi.exp
 0002:0000cf57       $N00007                    10060f57     zlibwapi.exp
 0002:0000cf65       $N00008                    10060f65     zlibwapi.exp
 0002:0000cf72       $N00009                    10060f72     zlibwapi.exp
 0002:0000cf80       $N00052                    10060f80     zlibwapi.exp
 0002:0000cf8f       $N00051                    10060f8f     zlibwapi.exp
 0002:0000cf9c       $N00010                    10060f9c     zlibwapi.exp
 0002:0000cfa9       $N00164                    10060fa9     zlibwapi.exp
 0002:0000cfba       $N00011                    10060fba     zlibwapi.exp
 0002:0000cfcf       $N00144                    10060fcf     zlibwapi.exp
 0002:0000cfe0       $N00145                    10060fe0     zlibwapi.exp
 0002:0000cfec       $N00110                    10060fec     zlibwapi.exp
 0002:0000d000       $N00111                    10061000     zlibwapi.exp
 0002:0000d016       $N00112                    10061016     zlibwapi.exp
 0002:0000d02d       $N00113                    1006102d     zlibwapi.exp
 0002:0000d044       $N00038                    10061044     zlibwapi.exp
 0002:0000d052       $N00146                    10061052     zlibwapi.exp
 0002:0000d05b       $N00048                    1006105b     zlibwapi.exp
 0002:0000d066       $N00012                    10061066     zlibwapi.exp
 0002:0000d06e       $N00147                    1006106e     zlibwapi.exp
 0002:0000d078       $N00148                    10061078     zlibwapi.exp
 0002:0000d082       $N00149                    10061082     zlibwapi.exp
 0002:0000d08b       $N00013                    1006108b     zlibwapi.exp
 0002:0000d093       $N00034                    10061093     zlibwapi.exp
 0002:0000d099       $N00014                    10061099     zlibwapi.exp
 0002:0000d0a1       $N00015                    100610a1     zlibwapi.exp
 0002:0000d0a9       $N00171                    100610a9     zlibwapi.exp
 0002:0000d0b1       $N00172                    100610b1     zlibwapi.exp
 0002:0000d0ba       $N00030                    100610ba     zlibwapi.exp
 0002:0000d0c1       $N00161                    100610c1     zlibwapi.exp
 0002:0000d0c9       $N00041                    100610c9     zlibwapi.exp
 0002:0000d0d0       $N00150                    100610d0     zlibwapi.exp
 0002:0000d0d9       $N00016                    100610d9     zlibwapi.exp
 0002:0000d0e0       $N00165                    100610e0     zlibwapi.exp
 0002:0000d0e9       $N00028                    100610e9     zlibwapi.exp
 0002:0000d0f2       $N00029                    100610f2     zlibwapi.exp
 0002:0000d0f9       $N00040                    100610f9     zlibwapi.exp
 0002:0000d100       $N00017                    10061100     zlibwapi.exp
 0002:0000d107       $N00032                    10061107     zlibwapi.exp
 0002:0000d110       $N00031                    10061110     zlibwapi.exp
 0002:0000d117       $N00035                    10061117     zlibwapi.exp
 0002:0000d123       $N00033                    10061123     zlibwapi.exp
 0002:0000d12a       $N00049                    1006112a     zlibwapi.exp
 0002:0000d133       $N00167                    10061133     zlibwapi.exp
 0002:0000d13d       $N00018                    1006113d     zlibwapi.exp
 0002:0000d145       $N00019                    10061145     zlibwapi.exp
 0002:0000d14d       $N00044                    1006114d     zlibwapi.exp
 0002:0000d159       $N00045                    10061159     zlibwapi.exp
 0002:0000d168       $N00043                    10061168     zlibwapi.exp
 0002:0000d179       $N00168                    10061179     zlibwapi.exp
 0002:0000d18a       $N00042                    1006118a     zlibwapi.exp
 0002:0000d196       $N00020                    10061196     zlibwapi.exp
 0002:0000d1a1       $N00166                    100611a1     zlibwapi.exp
 0002:0000d1b6       $N00156                    100611b6     zlibwapi.exp
 0002:0000d1c7       $N00021                    100611c7     zlibwapi.exp
 0002:0000d1d5       $N00022                    100611d5     zlibwapi.exp
 0002:0000d1e2       $N00157                    100611e2     zlibwapi.exp
 0002:0000d1ee       $N00158                    100611ee     zlibwapi.exp
 0002:0000d1fb       $N00159                    100611fb     zlibwapi.exp
 0002:0000d209       $N00023                    10061209     zlibwapi.exp
 0002:0000d216       $N00163                    10061216     zlibwapi.exp
 0002:0000d227       $N00024                    10061227     zlibwapi.exp
 0002:0000d23c       $N00025                    1006123c     zlibwapi.exp
 0002:0000d248       $N00037                    10061248     zlibwapi.exp
 0002:0000d259       $N00160                    10061259     zlibwapi.exp
 0002:0000d26a       $N00169                    1006126a     zlibwapi.exp
 0002:0000d27a       $N00170                    1006127a     zlibwapi.exp
 0002:0000d286       $N00026                    10061286     zlibwapi.exp
 0002:0000d291       $N00062                    10061291     zlibwapi.exp
 0002:0000d29a       $N00072                    1006129a     zlibwapi.exp
 0002:0000d2ae       $N00124                    100612ae     zlibwapi.exp
 0002:0000d2c6       $N00064                    100612c6     zlibwapi.exp
 0002:0000d2dc       $N00125                    100612dc     zlibwapi.exp
 0002:0000d2fa       $N00127                    100612fa     zlibwapi.exp
 0002:0000d30a       $N00100                    1006130a     zlibwapi.exp
 0002:0000d318       $N00073                    10061318     zlibwapi.exp
 0002:0000d32c       $N00122                    1006132c     zlibwapi.exp
 0002:0000d33f       $N00063                    1006133f     zlibwapi.exp
 0002:0000d350       $N00076                    10061350     zlibwapi.exp
 0002:0000d366       $N00128                    10061366     zlibwapi.exp
 0002:0000d377       $N00101                    10061377     zlibwapi.exp
 0002:0000d386       $N00065                    10061386     zlibwapi.exp
 0002:0000d397       $N00066                    10061397     zlibwapi.exp
 0002:0000d3a7       $N00075                    100613a7     zlibwapi.exp
 0002:0000d3b5       $N00077                    100613b5     zlibwapi.exp
 0002:0000d3be       $N00121                    100613be     zlibwapi.exp
 0002:0000d3ca       $N00120                    100613ca     zlibwapi.exp
 0002:0000d3d4       $N00061                    100613d4     zlibwapi.exp
 0002:0000d3dc       $N00078                    100613dc     zlibwapi.exp
 0002:0000d3f0       $N00069                    100613f0     zlibwapi.exp
 0002:0000d404       $N00067                    10061404     zlibwapi.exp
 0002:0000d417       $N00079                    10061417     zlibwapi.exp
 0002:0000d432       $N00068                    10061432     zlibwapi.exp
 0002:0000d445       $N00074                    10061445     zlibwapi.exp
 0002:0000d45e       $N00071                    1006145e     zlibwapi.exp
 0002:0000d465       $N00126                    10061465     zlibwapi.exp
 0002:0000d46f       $N00070                    1006146f     zlibwapi.exp
 0002:0000d477       $N00036                    10061477     zlibwapi.exp
 0002:0000d47e       $N00084                    1006147e     zlibwapi.exp
 0002:0000d487       $N00083                    10061487     zlibwapi.exp
 0002:0000d499       $N00136                    10061499     zlibwapi.exp
 0002:0000d4b0       $N00087                    100614b0     zlibwapi.exp
 0002:0000d4c5       $N00088                    100614c5     zlibwapi.exp
 0002:0000d4ce       $N00131                    100614ce     zlibwapi.exp
 0002:0000d4da       $N00130                    100614da     zlibwapi.exp
 0002:0000d4e4       $N00080                    100614e4     zlibwapi.exp
 0002:0000d4ec       $N00086                    100614ec     zlibwapi.exp
 0002:0000d501       $N00133                    10061501     zlibwapi.exp
 0002:0000d519       $N00089                    10061519     zlibwapi.exp
 0002:0000d52e       $N00134                    1006152e     zlibwapi.exp
 0002:0000d546       $N00135                    10061546     zlibwapi.exp
 0002:0000d55e       $N00132                    1006155e     zlibwapi.exp
 0002:0000d574       $N00081                    10061574     zlibwapi.exp
 0002:0000d588       $N00082                    10061588     zlibwapi.exp
 0002:0000d59c       $N00050                    1006159c     zlibwapi.exp
 0002:0000d5ad       $N00027                    100615ad     zlibwapi.exp
 0002:0000d794       .idata$6                   10061794     kernel32:KERNEL32.dll
 0003:00000020       ?__vcrt_flsindex@@3KA      10062020     libvcruntime:per_thread_data.obj
 0003:00000140       ?errno_no_memory@@3HA      10062140     libucrt:errno.obj
 0003:00000144       ?doserrno_no_memory@@3KA   10062144     libucrt:errno.obj
 0003:00000188       ?__acrt_flsindex@@3KA      10062188     libucrt:per_thread_data.obj
 0003:0000018c       __ctype_loc_style          1006218c     libucrt:wsetlocale.obj
 0003:00000528       __mbctypes                 10062528     libucrt:mbctype.obj
 0003:00000630       __mbcasemaps               10062630     libucrt:mbctype.obj
 0003:00000730       ?__rgctypeflag@@3PADA      10062730     libucrt:mbctype.obj
 0003:00000738       ?__rgcode_page_info@@3PAUcode_page_info@@A 10062738     libucrt:mbctype.obj
 0003:0000088c       ?__dcrt_lowio_console_output_handle@@3PAXA 1006288c     libucrt:initcon.obj
 0003:00000890       ?__DAZ_ENABLED@?1??__set_fpsr_sse2@@9@9 10062890     libucrt:fpctrl.obj
 0003:000009c0       ?__proc_attached@@3HA      100629c0     LIBCMT:dll_dllmain.obj
 0003:000009e8       ?is_initialized_as_dll@@3_NA 100629e8     LIBCMT:utility.obj
 0003:000009e9       ?module_local_atexit_table_initialized@@3_NA 100629e9     LIBCMT:utility.obj
 0003:000009ec       ?module_local_atexit_table@@3U_onexit_table_t@@A 100629ec     LIBCMT:utility.obj
 0003:000009f8       ?module_local_at_quick_exit_table@@3U_onexit_table_t@@A 100629f8     LIBCMT:utility.obj
 0003:00000a10       _GS_ExceptionRecord        10062a10     LIBCMT:gs_report.obj
 0003:00000a60       _GS_ContextRecord          10062a60     LIBCMT:gs_report.obj
 0003:00000d54       ?heap@@3V_HeapManager@@A   10062d54     libvcruntime:undname.obj
 0003:00000d68       ?__vcrt_startup_thread_ptd@@3U__vcrt_ptd@@A 10062d68     libvcruntime:per_thread_data.obj
 0003:00000d90       ___vcrt_lock_table         10062d90     libvcruntime:locks.obj
 0003:00000da8       ___vcrt_locks_initialized  10062da8     libvcruntime:locks.obj
 0003:00000dac       ?module_handles@@3PAPAUHINSTANCE__@@A 10062dac     libvcruntime:winapi_downlevel.obj
 0003:00000db8       ?encoded_function_pointers@@3PAPAXA 10062db8     libvcruntime:winapi_downlevel.obj
 0003:00000dd4       ?c_termination_complete@@3JA 10062dd4     libucrt:exit.obj
 0003:00000dd8       ?thread_local_exit_callback_func@@3P6GXPAXK0@ZA 10062dd8     libucrt:exit.obj
 0003:00000de0       ?program_name@?1???$common_configure_argv@D@@YAHW4_crt_argv_mode@@@Z@4PADA 10062de0     libucrt:argv_parsing.obj
 0003:00000ee8       ?program_name@?1???$common_configure_argv@_W@@YAHW4_crt_argv_mode@@@Z@4PA_WA 10062ee8     libucrt:argv_parsing.obj
 0003:0000111c       ?__acrt_invalid_parameter_handler@@3V?$dual_state_global@P6AXPB_W00II@Z@__crt_state_management@@A 1006311c     libucrt:invalid_parameter.obj
 0003:00001328       ?module_handles@@3PAPAUHINSTANCE__@@A 10063328     libucrt:winapi_thunks.obj
 0003:00001378       ?encoded_function_pointers@@3PAPAXA 10063378     libucrt:winapi_thunks.obj
 0003:00001400       ?static_enum_proc@?1??enum_system_locales_ex_nolock@@YAHQ6GHPA_WKJ@Z@Z@4P6GH0KJ@ZA 10063400     libucrt:winapi_thunks.obj
 0003:00001410       ?internal_state@?1??_mbtowc_l@@9@4U_Mbstatet@@A 10063410     libucrt:mbtowc.obj
 0003:00001424       ?enable_percent_n@@3IA     10063424     libucrt:printf_count_output.obj
 0003:00001430       ?__acrt_lock_table@@3PAU_RTL_CRITICAL_SECTION@@A 10063430     libucrt:locks.obj
 0003:00001580       ?__acrt_locks_initialized@@3IA 10063580     libucrt:locks.obj
 0003:00001584       ?state_cache@?1???$get_cached_win_policy@Ubegin_thread_init_policy_properties@?1??__acrt_get_begin_thread_init_policy@@YA?AW4begin_thread_init_policy@@XZ@@@YA?AW4begin_thread_init_policy@@W4AppPolicyThreadInitializationType@@@Z@4JA 10063584     libucrt:win_policies.obj
 0003:00001588       ?state_cache@?1???$get_cached_win_policy@Udeveloper_information_policy_properties@?1??__acrt_get_developer_information_policy@@YA?AW4developer_information_policy@@XZ@@@YA?AW4developer_information_policy@@W4AppPolicyShowDeveloperDiagnostic@@@Z@4JA 10063588     libucrt:win_policies.obj
 0003:0000158c       ?state_cache@?1???$get_cached_win_policy@Uwindowing_model_policy_properties@?1??__acrt_get_windowing_model_policy@@YA?AW4windowing_model_policy@@XZ@@@YA?AW4windowing_model_policy@@W4AppPolicyWindowingModel@@@Z@4JA 1006358c     libucrt:win_policies.obj
 0003:0000159c       ?fSystemSet@@3HA           1006359c     libucrt:mbctype.obj
 0003:000015a0       ?initialized@?1??__acrt_initialize_multibyte@@9@4_NA 100635a0     libucrt:mbctype.obj
 0003:000015c4       ?__acrt_new_handler@@3V?$dual_state_global@P6AHI@Z@__crt_state_management@@A 100635c4     libucrt:new_handler.obj
 0003:000015c8       ?console_ctrl_handler_installed@@3_NA 100635c8     libucrt:signal.obj
 0003:000015cc       ?ctrlc_action@@3V?$dual_state_global@P6AXH@Z@__crt_state_management@@A 100635cc     libucrt:signal.obj
 0003:000015d0       ?ctrlbreak_action@@3V?$dual_state_global@P6AXH@Z@__crt_state_management@@A 100635d0     libucrt:signal.obj
 0003:000015d4       ?abort_action@@3V?$dual_state_global@P6AXH@Z@__crt_state_management@@A 100635d4     libucrt:signal.obj
 0003:000015d8       ?term_action@@3V?$dual_state_global@P6AXH@Z@__crt_state_management@@A 100635d8     libucrt:signal.obj
 0003:000015dc       ?user_matherr@@3V?$dual_state_global@P6AHPAU_exception@@@Z@__crt_state_management@@A 100635dc     libucrt:matherr.obj
 0003:000015e0       ?__acrt_app_type@@3W4_crt_app_type@@A 100635e0     libucrt:report_runtime_error.obj
 0003:000015e8       ?outmsg@?9??__acrt_report_runtime_error@@9@4PA_WA 100635e8     libucrt:report_runtime_error.obj
 0003:00001c10       ?__acrt_global_new_mode@@3V?$dual_state_global@J@__crt_state_management@@A 10063c10     libucrt:new_mode.obj
 0003:00001c20       ?internal_pst@?1??__c16rtomb_utf8@__crt_mbstring@@YAIPAD_SPAU_Mbstatet@@@Z@4U3@A 10063c20     libucrt:c16rtomb.obj
 0003:00001c28       ?mbst@?1??mbrlen@@9@4U_Mbstatet@@A 10063c28     libucrt:mbrtowc.obj
 0003:00001c30       ?mbst@?1??mbrtowc@@9@4U_Mbstatet@@A 10063c30     libucrt:mbrtowc.obj
 0003:00001c38       ?mbst@?1??_mbsrtowcs_helper@@YAIPA_WPAPBDIPAU_Mbstatet@@@Z@4U2@A 10063c38     libucrt:mbrtowc.obj
 0003:00001c44       ___acrt_error_mode         10063c44     libucrt:set_error_mode.obj
 0003:00001c48       ?internal_pst@?1??__mbrtoc32_utf8@__crt_mbstring@@YAIPA_UPBDIPAU_Mbstatet@@@Z@4U3@A 10063c48     libucrt:mbrtoc32.obj
 0003:00001c54       __pmatherr_set             10063c54     libucrt:libm_error.obj
 0003:00001c58       ?calls@?1??crypthead@@9@9  10063c58     zip.obj
 0004:00000060       $R000000                   10064060     zlib.res
